
CH582M-mdc02.elf:     file format elf32-littleriscv
CH582M-mdc02.elf
architecture: riscv:rv32, flags 0x00000112:
EXEC_P, HAS_SYMS, D_PAGED
start address 0x00000000

Program Header:
    LOAD off    0x00001000 vaddr 0x00000000 paddr 0x00000000 align 2**12
         filesz 0x00000004 memsz 0x00000004 flags r-x
    LOAD off    0x00002000 vaddr 0x20000000 paddr 0x00000004 align 2**12
         filesz 0x000007bc memsz 0x000007bc flags r-x
    LOAD off    0x000027c0 vaddr 0x000007c0 paddr 0x000007c0 align 2**12
         filesz 0x00009644 memsz 0x00009644 flags r-x
    LOAD off    0x0000c7bc vaddr 0x200007bc paddr 0x00009e04 align 2**12
         filesz 0x00000000 memsz 0x00000044 flags rw-
    LOAD off    0x0000c800 vaddr 0x20000800 paddr 0x00009e04 align 2**12
         filesz 0x000001d8 memsz 0x00000274 flags rw-

Sections:
Idx Name          Size      VMA       LMA       File off  Algn
  0 .init         00000004  00000000  00000000  00001000  2**1
                  CONTENTS, ALLOC, LOAD, READONLY, CODE
  1 .highcodelalign 00000000  00000004  00000004  0000c9d8  2**0
                  CONTENTS
  2 .highcode     000007bc  20000000  00000004  00002000  2**1
                  CONTENTS, ALLOC, LOAD, READONLY, CODE
  3 .text         00009644  000007c0  000007c0  000027c0  2**3
                  CONTENTS, ALLOC, LOAD, READONLY, CODE
  4 .fini         00000000  00009e04  00009e04  0000c9d8  2**0
                  CONTENTS, ALLOC, LOAD, CODE
  5 .dalign       00000044  200007bc  00009e04  0000c7bc  2**0
                  ALLOC
  6 .dlalign      00000000  00009e04  00009e04  0000c9d8  2**0
                  CONTENTS
  7 .data         000001d8  20000800  00009e04  0000c800  2**2
                  CONTENTS, ALLOC, LOAD, DATA
  8 .bss          0000009c  200009d8  00009fdc  0000c9d8  2**2
                  ALLOC
  9 .stack        00000000  20008000  20008000  0000c9d8  2**0
                  CONTENTS
 10 .debug_info   0000792c  00000000  00000000  0000c9d8  2**0
                  CONTENTS, READONLY, DEBUGGING
 11 .debug_abbrev 000013df  00000000  00000000  00014304  2**0
                  CONTENTS, READONLY, DEBUGGING
 12 .debug_aranges 00000360  00000000  00000000  000156e8  2**3
                  CONTENTS, READONLY, DEBUGGING
 13 .debug_ranges 000003e0  00000000  00000000  00015a48  2**3
                  CONTENTS, READONLY, DEBUGGING
 14 .debug_line   000049ad  00000000  00000000  00015e28  2**0
                  CONTENTS, READONLY, DEBUGGING
 15 .debug_str    00001859  00000000  00000000  0001a7d5  2**0
                  CONTENTS, READONLY, DEBUGGING
 16 .comment      00000033  00000000  00000000  0001c02e  2**0
                  CONTENTS, READONLY
 17 .debug_frame  00001bf0  00000000  00000000  0001c064  2**2
                  CONTENTS, READONLY, DEBUGGING
 18 .debug_loc    00001ab2  00000000  00000000  0001dc54  2**0
                  CONTENTS, READONLY, DEBUGGING
SYMBOL TABLE:
00000000 l    d  .init	00000000 .init
00000004 l    d  .highcodelalign	00000000 .highcodelalign
20000000 l    d  .highcode	00000000 .highcode
000007c0 l    d  .text	00000000 .text
00009e04 l    d  .fini	00000000 .fini
200007bc l    d  .dalign	00000000 .dalign
00009e04 l    d  .dlalign	00000000 .dlalign
20000800 l    d  .data	00000000 .data
200009d8 l    d  .bss	00000000 .bss
20008000 l    d  .stack	00000000 .stack
00000000 l    d  .debug_info	00000000 .debug_info
00000000 l    d  .debug_abbrev	00000000 .debug_abbrev
00000000 l    d  .debug_aranges	00000000 .debug_aranges
00000000 l    d  .debug_ranges	00000000 .debug_ranges
00000000 l    d  .debug_line	00000000 .debug_line
00000000 l    d  .debug_str	00000000 .debug_str
00000000 l    d  .comment	00000000 .comment
00000000 l    d  .debug_frame	00000000 .debug_frame
00000000 l    d  .debug_loc	00000000 .debug_loc
00000000 l    df *ABS*	00000000 ./Startup/startup_CH583.o
20000000 l       .highcode	00000000 _vector_base
00000000 l    df *ABS*	00000000 Main.c
00000000 l    df *ABS*	00000000 onewire.c
00000970 l     F .text	00000046 ow_delay_us
00009768 l     O .text	0000001c CFB
00009784 l     O .text	00000020 COS_Factor
200009d8 l     O .bss	00000004 ow_flag_timerout
00000000 l    df *ABS*	00000000 CH58x_sys.c
00000000 l    df *ABS*	00000000 ISP583.c
200003a8 l       .highcode	00000000 .loop18
200003b6 l       .highcode	00000000 .loop29
200003c4 l       .highcode	00000000 .loop40
20000650 l       .highcode	00000000 .loop402
00000000 l    df *ABS*	00000000 CH58x_gpio.c
00000000 l    df *ABS*	00000000 CH58x_timer0.c
00000000 l    df *ABS*	00000000 CH58x_uart1.c
00000000 l    df *ABS*	00000000 printfloat.c
00000000 l    df *ABS*	00000000 wchprintf.c
00000000 l    df *ABS*	00000000 libgcc2.c
00000000 l    df *ABS*	00000000 libgcc2.c
00000000 l    df *ABS*	00000000 adddf3.c
00000000 l    df *ABS*	00000000 divdf3.c
00000000 l    df *ABS*	00000000 muldf3.c
00000000 l    df *ABS*	00000000 subdf3.c
00000000 l    df *ABS*	00000000 floatsidf.c
00000000 l    df *ABS*	00000000 fixdfdi.c
00000000 l    df *ABS*	00000000 floatdidf.c
00000000 l    df *ABS*	00000000 addsf3.c
00000000 l    df *ABS*	00000000 gesf2.c
00000000 l    df *ABS*	00000000 lesf2.c
00000000 l    df *ABS*	00000000 mulsf3.c
00000000 l    df *ABS*	00000000 subsf3.c
00000000 l    df *ABS*	00000000 extendsfdf2.c
00000000 l    df *ABS*	00000000 truncdfsf2.c
00000000 l    df *ABS*	00000000 libgcc2.c
00000000 l    df *ABS*	00000000 nano-vfprintf_float.c
00000000 l    df *ABS*	00000000 nano-vfprintf_i.c
00000000 l    df *ABS*	00000000 nano-vfscanf_float.c
00000000 l    df *ABS*	00000000 sf_nan.c
00000000 l    df *ABS*	00000000 sprintf.c
00000000 l    df *ABS*	00000000 strlen.c
00000000 l    df *ABS*	00000000 strtod.c
00005c78 l     F .text	0000004e sulp
00009b48 l     O .text	00000014 fpi.3395
00009b5c l     O .text	00000014 fpinan.3431
00009b70 l     O .text	00000028 tinytens
00000000 l    df *ABS*	00000000 strtol.c
0000695c l     F .text	00000144 _strtol_l.isra.0
00000000 l    df *ABS*	00000000 dtoa.c
00006ab8 l     F .text	0000013a quorem
00000000 l    df *ABS*	00000000 gdtoa-gethex.c
00007812 l     F .text	00000076 rshift
00000000 l    df *ABS*	00000000 gdtoa-hexnan.c
00007d92 l     F .text	0000002c L_shift
00000000 l    df *ABS*	00000000 locale.c
00000000 l    df *ABS*	00000000 localeconv.c
00000000 l    df *ABS*	00000000 malloc.c
00000000 l    df *ABS*	00000000 mbtowc_r.c
00000000 l    df *ABS*	00000000 memchr.c
00000000 l    df *ABS*	00000000 memcpy.c
00000000 l    df *ABS*	00000000 mprec.c
00009ce0 l     O .text	0000000c p05.3319
00000000 l    df *ABS*	00000000 nano-mallocr.c
00000000 l    df *ABS*	00000000 nano-mallocr.c
00000000 l    df *ABS*	00000000 nano-mallocr.c
00000000 l    df *ABS*	00000000 nano-vfprintf.c
00000000 l    df *ABS*	00000000 sbrkr.c
00000000 l    df *ABS*	00000000 strncmp.c
00000000 l    df *ABS*	00000000 wctomb_r.c
00000000 l    df *ABS*	00000000 memmove.c
00000000 l    df *ABS*	00000000 mlock.c
00000000 l    df *ABS*	00000000 nano-mallocr.c
00000000 l    df *ABS*	00000000 nano-mallocr.c
00000000 l    df *ABS*	00000000 eqdf2.c
00000000 l    df *ABS*	00000000 gedf2.c
00000000 l    df *ABS*	00000000 ledf2.c
00000000 l    df *ABS*	00000000 unorddf2.c
00000000 l    df *ABS*	00000000 fixdfsi.c
00000000 l    df *ABS*	00000000 fixunsdfsi.c
00000000 l    df *ABS*	00000000 floatunsidf.c
00000000 l    df *ABS*	00000000 extenddftf2.c
00000000 l    df *ABS*	00000000 trunctfdf2.c
00000000 l    df *ABS*	00000000 sbrk.c
200009e4 l     O .bss	00000004 heap_end.1518
00000000 l    df *ABS*	00000000 libgcc2.c
00000000 l    df *ABS*	00000000 ctype_.c
00000000 l    df *ABS*	00000000 impure.c
20000800 l     O .data	00000060 impure_data
00000000 l    df *ABS*	00000000 reent.c
00001910 g     F .text	000000e8 printDouble
00009038 g     F .text	00000014 _malloc_usable_size_r
00004daa g     F .text	000000ee __cvt
000089d6 g     F .text	00000046 __any_on
000015b0 g     F .text	00000028 UART1_SendString
200003c4 g     F .highcode	0000000e FLASH_ROM_OUT
0000904c g     F .text	0000006a .hidden __eqdf2
000019f8 g     F .text	00000338 print
00003ed4 g     F .text	000001b6 .hidden __floatdidf
00001d30 g     F .text	00000022 printf
200011d0 g       .data	00000000 __global_pointer$
20000360 g     F .highcode	0000000e mDelayuS
20000326 g     F .highcode	0000003a HardFault_Handler
200000a2  w      .highcode	00000000 GPIOB_IRQHandler
00001724 g     F .text	000000e8 printInt
00008fde g     F .text	00000002 __malloc_unlock
200000a0  w      .highcode	00000000 GPIOA_IRQHandler
00006942 g     F .text	0000001a _strtod_r
2000009a  w      .highcode	00000000 SysTick_Handler
00007888 g     F .text	00000040 __hexdig_fun
000015d8 g     F .text	0000002a UART1_RecvString
00008f92 g     F .text	0000004a memmove
00000e08 g     F .text	00000036 onewire_crc8
20000090  w      .highcode	00000000 NMI_Handler
00008090 g     F .text	0000008c _Balloc
0000109c g     F .text	00000046 writecfbconfig
200000c6 g     F .highcode	000000a2 UART1_IRQHandler
000090b6 g     F .text	000000ae .hidden __gtdf2
00007f54 g     F .text	00000006 __localeconv_l
20000a70 g     O .bss	00000004 errno
200009d8 g       .bss	00000000 _sbss
200003b6 g     F .highcode	0000000e FLASH_ROM_IN
00004796 g     F .text	00000388 .hidden __subsf3
200000b2  w      .highcode	00000000 UART0_IRQHandler
0000110a g     F .text	00000040 mdc02_capconfigurerange
00007fda g     F .text	000000b6 memcpy
00007dee g     F .text	00000160 __hexnan
00008c9e g     F .text	0000027e _svfprintf_r
00003da6 g     F .text	00000072 .hidden __floatsidf
00000adc g     F .text	0000005a onewire_writebit
0000180c g     F .text	00000104 printLongLongInt
00009164 g     F .text	000000b6 .hidden __ltdf2
00000e74 g     F .text	00000038 mdc02_writeparameters_skiprom
00001d52 g     F .text	00000054 puts
00000bf2 g     F .text	00000064 cfbcfgtocaprange
0000892c g     F .text	00000074 __ratio
00007f76 g     F .text	00000010 malloc
00009c18 g     O .text	000000c8 __mprec_tens
00000004 g       .init	00000000 _einit
0000447a g     F .text	0000008c .hidden __lesf2
0000124c g     F .text	0000003e mdc02_readc2c3c4_skiprom
000092be g     F .text	0000005c .hidden __fixunsdfsi
200000a6  w      .highcode	00000000 BB_IRQHandler
20000452 g     F .highcode	0000036a FLASH_EEPROM_CMD
0000105e g     F .text	0000003e mdc02_capconfigureoffset
20000a50 g     O .bss	00000004 CapCfg_offset
20000098  w      .highcode	00000000 Break_Point_Handler
00007f5a g     F .text	0000001c _localeconv_r
0000834e g     F .text	0000001c __i2b
00008f1c g     F .text	0000002a _sbrk_r
00000bc4 g     F .text	0000002e onewire_read
20000168 g     F .highcode	00000028 TMR0_IRQHandler
00000ee4 g     F .text	00000040 readcfbconfig
00000b36 g     F .text	00000026 onewire_writebyte
20000396 g     F .highcode	00000012 FLASH_ROM_BEG
00000eac g     F .text	00000038 mdc02_readparameters_skiprom
00004b1e g     F .text	000000ac .hidden __extendsfdf2
20000a54 g     O .bss	00000001 crc8
000024cc g     F .text	00000730 .hidden __adddf3
2000036e g     F .highcode	00000028 mDelaymS
20000094  w      .highcode	00000000 Ecall_M_Mode_Handler
000087a4 g     F .text	000000b4 __b2d
0000213e g     F .text	0000038e .hidden __umoddi3
200003d2 g     F .highcode	00000048 FLASH_ROM_ADDR
00008fe0 g     F .text	00000058 _realloc_r
00001da6 g     F .text	00000398 .hidden __udivdi3
00009bf0 g     O .text	00000028 __mprec_bigtens
000081f8 g     F .text	000000a6 __s2b
0000931a g     F .text	00000068 .hidden __floatunsidf
00009744 g     F .text	00000020 _sbrk
0000863a g     F .text	00000032 __mcmp
0000100e g     F .text	00000050 writecosconfig
200000b6  w      .highcode	00000000 RTC_IRQHandler
00005cc6 g     F .text	00000c7c _strtod_l
00007dbe g     F .text	00000030 __match
20000a74 g       .bss	00000000 _ebss
0000829e g     F .text	00000046 __hi0bits
0000157e g     F .text	00000032 UART1_DefInit
00009256 g     F .text	00000068 .hidden __fixdfsi
0000128a g     F .text	00000026 readcapc2c3c4
2000041a g     F .highcode	00000038 FLASH_ROM_WAIT
000043f4 g     F .text	00000086 .hidden __gtsf2
00000a9a g     F .text	00000042 slave_init
00009164 g     F .text	000000b6 .hidden __ledf2
00001394 g     F .text	00000088 mdc02_range
00000fc8 g     F .text	00000046 setcapchannel
000084ae g     F .text	000000be __pow5mult
20000a74 g       .bss	00000000 end
200000c0  w      .highcode	00000000 UART2_IRQHandler
200000bc  w      .highcode	00000000 PWMX_IRQHandler
00008bb4 g     F .text	000000ea __ssputs_r
00004d34 g     F .text	00000076 .hidden __clzsi2
00007fc0 g     F .text	0000001a memchr
00004f24  w    F .text	000004c0 _printf_float
00008a42 g     F .text	000000a4 _free_r
000012b0 g     F .text	000000e4 read_cap
00000000 g       .init	00000000 _start
0000856c g     F .text	000000ce __lshift
00000fb2 g     F .text	00000016 readcapconfigure
0000164c g     F .text	000000d8 prints
20000a58 g     O .bss	00000004 LastFamilyDiscrepancy
20000a5c g     O .bss	00000001 buffer
00008f46 g     F .text	0000002c strncmp
200000b8  w      .highcode	00000000 ADC_IRQHandler
00000c56 g     F .text	00000046 coscfgtocapoffset
20000000 g       .highcode	00000000 _highcode_vma_start
0000836a g     F .text	00000144 __multiply
00008858 g     F .text	000000d4 __d2b
200000b0  w      .highcode	00000000 TMR2_IRQHandler
00009382 g     F .text	000001a4 .hidden __extenddftf2
20000800 g       .data	00000000 _data_vma
20000190 g     F .highcode	0000015a SetSysClock
200000aa  w      .highcode	00000000 USB_IRQHandler
00002bfc g     F .text	000005b4 .hidden __divdf3
000089a0 g     F .text	00000036 __copybits
20000a5d g     O .bss	00000001 CapCfg_Chan
000031b0 g     F .text	000004b8 .hidden __muldf3
00008fdc g     F .text	00000002 __malloc_lock
00008a1c g     F .text	00000026 _calloc_r
00000f24 g     F .text	0000001e getcfg_caprange
20000a60 g     O .bss	00000004 CapCfg_range
200000ba  w      .highcode	00000000 I2C_IRQHandler
0000086a g     F .text	000000a8 memset
00000a6a g     F .text	00000030 onewire_resetcheck
00000912 g     F .text	0000005e main
200009e8 g     O .bss	00000001 trigB
0000447a g     F .text	0000008c .hidden __ltsf2
00006aa0 g     F .text	00000018 _strtol_r
00004bca g     F .text	0000016a .hidden __truncdfsf2
00006bf2 g     F .text	00000c20 _dtoa_r
00008ae6 g     F .text	000000ce _malloc_r
00008f72 g     F .text	00000020 __ascii_wctomb
200000ac  w      .highcode	00000000 USB2_IRQHandler
20000a64 g     O .bss	00000001 CapCfg_ChanMap
00004506 g     F .text	00000290 .hidden __mulsf3
00000d02 g     F .text	0000008c caprangetocfbcfg
20000a68 g     O .bss	00000004 LastDeviceFlag
00000b5c g     F .text	00000068 onewire_readbit
00000004 g       .highcodelalign	00000000 _highcode_lma
00000f94 g     F .text	0000001e getcfg_capoffset
0000904c g     F .text	0000006a .hidden __nedf2
00001602 g     F .text	0000004a printchar
00005c1c g     F .text	0000004a sprintf
0000999c g     O .text	00000100 .hidden __clz_tab
00004e98 g     F .text	0000008c __exponent
200000a8  w      .highcode	00000000 LLE_IRQHandler
00000000 g       .init	00000000 _sinit
00003e18 g     F .text	000000bc .hidden __fixdfdi
000010e2 g     F .text	00000028 mdc02_capconfigurefs
000043f4 g     F .text	00000086 .hidden __gesf2
00000e3e g     F .text	00000036 read_command
00005c10 g     F .text	0000000c nanf
000053e4 g     F .text	0000010c _printf_common
0000141c g     F .text	0000000e mdc02_channel
200009d0 g     O .data	00000004 _impure_ptr
00008c9e g     F .text	0000027e _svfiprintf_r
00007f86 g     F .text	0000003a __ascii_mbtowc
200000c4  w      .highcode	00000000 WDOG_BAT_IRQHandler
20000096  w      .highcode	00000000 Ecall_U_Mode_Handler
0000875e g     F .text	00000046 __ulp
200009ec g     O .bss	00000064 RxBuff
00000c9c g     F .text	00000066 captocoscfg
200000be  w      .highcode	00000000 TMR3_IRQHandler
20008000 g       .stack	00000000 _eusrstack
2000009c  w      .highcode	00000000 SW_Handler
000011f2 g     F .text	0000005a readtempcap1
0000142a g     F .text	000000a6 GPIOA_ModeCfg
0000114a g     F .text	00000020 convertcap
20000a6c g     O .bss	00000004 LastDiscrepancy
0000116a g     F .text	0000003e mdc02_readscratchpad_skiprom
000014d0 g     F .text	00000042 GetSysClock
000011a8 g     F .text	0000004a readstatusconfig
00001512 g     F .text	00000028 _write
200009d8 g       .data	00000000 _edata
200000a4  w      .highcode	00000000 SPI0_IRQHandler
00000a2c g     F .text	0000003e onewire_reset
200007bc g       .highcode	00000000 _highcode_vma_end
00009e04 g       .dlalign	00000000 _data_lma
0000866c g     F .text	000000f2 __mdiff
00005c1c g     F .text	0000004a siprintf
00009d00 g     O .text	00000101 _ctype_
0000921a g     F .text	0000003c .hidden __unorddf2
000007c0  w      .text	00000000 handle_reset
00005c66 g     F .text	00000012 strlen
000054f0 g     F .text	000002aa _printf_i
00007f4e g     F .text	00000006 __locale_ctype_ptr_l
000090b6 g     F .text	000000ae .hidden __gedf2
200000c2  w      .highcode	00000000 UART3_IRQHandler
000078c8 g     F .text	000004ca __gethex
200009e0 g     O .bss	00000004 __malloc_sbrk_start
200003a8 g     F .highcode	0000000e FLASH_ROM_END
200009dc g     O .bss	00000004 __malloc_free_list
00000d8e g     F .text	0000007a mdc02_outputtocap
00003668 g     F .text	0000073e .hidden __subdf3
200000ae  w      .highcode	00000000 TMR1_IRQHandler
000082e4 g     F .text	0000006a __lo0bits
0000408a g     F .text	0000036a .hidden __addsf3
000009b6 g     F .text	00000076 check_ack
20000860 g     O .data	0000016c __global_locale
200002ea g     F .highcode	0000003c SYS_ResetExecute
00009526 g     F .text	0000021e .hidden __trunctfdf2
0000579a  w    F .text	00000476 _scanf_float
00008160 g     F .text	00000098 __multadd
0000811c g     F .text	00000044 _Bfree
0000153a g     F .text	00000014 TMR0_TimerInit
00000f42 g     F .text	00000052 readcosconfig
0000154e g     F .text	00000030 UART1_BaudRateCfg



Disassembly of section .init:

00000000 <_sinit>:
   0:	7c00006f          	j	7c0 <handle_reset>

Disassembly of section .highcode:

20000000 <_highcode_vma_start>:
	...
20000008:	0090                	addi	a2,sp,64
2000000a:	2000                	fld	fs0,0(s0)
2000000c:	0326                	slli	t1,t1,0x9
2000000e:	2000                	fld	fs0,0(s0)
20000010:	bda9                	j	1ffffe6a <_data_lma+0x1fff6066>
20000012:	f5f9                	bnez	a1,1fffffe0 <_data_lma+0x1fff61dc>
20000014:	0094                	addi	a3,sp,64
20000016:	2000                	fld	fs0,0(s0)
	...
20000020:	0096                	slli	ra,ra,0x5
20000022:	2000                	fld	fs0,0(s0)
20000024:	0098                	addi	a4,sp,64
20000026:	2000                	fld	fs0,0(s0)
	...
20000030:	009a                	slli	ra,ra,0x6
20000032:	2000                	fld	fs0,0(s0)
20000034:	0000                	unimp
20000036:	0000                	unimp
20000038:	009c                	addi	a5,sp,64
2000003a:	2000                	fld	fs0,0(s0)
2000003c:	0000                	unimp
2000003e:	0000                	unimp
20000040:	0168                	addi	a0,sp,140
20000042:	2000                	fld	fs0,0(s0)
20000044:	00a0                	addi	s0,sp,72
20000046:	2000                	fld	fs0,0(s0)
20000048:	00a2                	slli	ra,ra,0x8
2000004a:	2000                	fld	fs0,0(s0)
2000004c:	00a4                	addi	s1,sp,72
2000004e:	2000                	fld	fs0,0(s0)
20000050:	00a6                	slli	ra,ra,0x9
20000052:	2000                	fld	fs0,0(s0)
20000054:	00a8                	addi	a0,sp,72
20000056:	2000                	fld	fs0,0(s0)
20000058:	00aa                	slli	ra,ra,0xa
2000005a:	2000                	fld	fs0,0(s0)
2000005c:	00ac                	addi	a1,sp,72
2000005e:	2000                	fld	fs0,0(s0)
20000060:	00ae                	slli	ra,ra,0xb
20000062:	2000                	fld	fs0,0(s0)
20000064:	00b0                	addi	a2,sp,72
20000066:	2000                	fld	fs0,0(s0)
20000068:	00b2                	slli	ra,ra,0xc
2000006a:	2000                	fld	fs0,0(s0)
2000006c:	00c6                	slli	ra,ra,0x11
2000006e:	2000                	fld	fs0,0(s0)
20000070:	00b6                	slli	ra,ra,0xd
20000072:	2000                	fld	fs0,0(s0)
20000074:	00b8                	addi	a4,sp,72
20000076:	2000                	fld	fs0,0(s0)
20000078:	00ba                	slli	ra,ra,0xe
2000007a:	2000                	fld	fs0,0(s0)
2000007c:	00bc                	addi	a5,sp,72
2000007e:	2000                	fld	fs0,0(s0)
20000080:	00be                	slli	ra,ra,0xf
20000082:	2000                	fld	fs0,0(s0)
20000084:	00c0                	addi	s0,sp,68
20000086:	2000                	fld	fs0,0(s0)
20000088:	00c2                	slli	ra,ra,0x10
2000008a:	2000                	fld	fs0,0(s0)
2000008c:	00c4                	addi	s1,sp,68
2000008e:	2000                	fld	fs0,0(s0)

20000090 <NMI_Handler>:
20000090:	a001                	j	20000090 <NMI_Handler>
20000092:	a001                	j	20000092 <NMI_Handler+0x2>

20000094 <Ecall_M_Mode_Handler>:
20000094:	a001                	j	20000094 <Ecall_M_Mode_Handler>

20000096 <Ecall_U_Mode_Handler>:
20000096:	a001                	j	20000096 <Ecall_U_Mode_Handler>

20000098 <Break_Point_Handler>:
20000098:	a001                	j	20000098 <Break_Point_Handler>

2000009a <SysTick_Handler>:
2000009a:	a001                	j	2000009a <SysTick_Handler>

2000009c <SW_Handler>:
2000009c:	a001                	j	2000009c <SW_Handler>
2000009e:	a001                	j	2000009e <SW_Handler+0x2>

200000a0 <GPIOA_IRQHandler>:
200000a0:	a001                	j	200000a0 <GPIOA_IRQHandler>

200000a2 <GPIOB_IRQHandler>:
200000a2:	a001                	j	200000a2 <GPIOB_IRQHandler>

200000a4 <SPI0_IRQHandler>:
200000a4:	a001                	j	200000a4 <SPI0_IRQHandler>

200000a6 <BB_IRQHandler>:
200000a6:	a001                	j	200000a6 <BB_IRQHandler>

200000a8 <LLE_IRQHandler>:
200000a8:	a001                	j	200000a8 <LLE_IRQHandler>

200000aa <USB_IRQHandler>:
200000aa:	a001                	j	200000aa <USB_IRQHandler>

200000ac <USB2_IRQHandler>:
200000ac:	a001                	j	200000ac <USB2_IRQHandler>

200000ae <TMR1_IRQHandler>:
200000ae:	a001                	j	200000ae <TMR1_IRQHandler>

200000b0 <TMR2_IRQHandler>:
200000b0:	a001                	j	200000b0 <TMR2_IRQHandler>

200000b2 <UART0_IRQHandler>:
200000b2:	a001                	j	200000b2 <UART0_IRQHandler>
200000b4:	a001                	j	200000b4 <UART0_IRQHandler+0x2>

200000b6 <RTC_IRQHandler>:
200000b6:	a001                	j	200000b6 <RTC_IRQHandler>

200000b8 <ADC_IRQHandler>:
200000b8:	a001                	j	200000b8 <ADC_IRQHandler>

200000ba <I2C_IRQHandler>:
200000ba:	a001                	j	200000ba <I2C_IRQHandler>

200000bc <PWMX_IRQHandler>:
200000bc:	a001                	j	200000bc <PWMX_IRQHandler>

200000be <TMR3_IRQHandler>:
200000be:	a001                	j	200000be <TMR3_IRQHandler>

200000c0 <UART2_IRQHandler>:
200000c0:	a001                	j	200000c0 <UART2_IRQHandler>

200000c2 <UART3_IRQHandler>:
200000c2:	a001                	j	200000c2 <UART3_IRQHandler>

200000c4 <WDOG_BAT_IRQHandler>:
200000c4:	a001                	j	200000c4 <WDOG_BAT_IRQHandler>

200000c6 <UART1_IRQHandler>:
200000c6:	40003737          	lui	a4,0x40003
200000ca:	40474783          	lbu	a5,1028(a4) # 40003404 <_eusrstack+0x1fffb404>
200000ce:	4699                	li	a3,6
200000d0:	8bbd                	andi	a5,a5,15
200000d2:	02d78a63          	beq	a5,a3,20000106 <UART1_IRQHandler+0x40>
200000d6:	4731                	li	a4,12
200000d8:	1141                	addi	sp,sp,-16
200000da:	06e78063          	beq	a5,a4,2000013a <UART1_IRQHandler+0x74>
200000de:	4711                	li	a4,4
200000e0:	02e79063          	bne	a5,a4,20000100 <UART1_IRQHandler+0x3a>
200000e4:	000107a3          	sb	zero,15(sp)
200000e8:	40003737          	lui	a4,0x40003
200000ec:	00001697          	auipc	a3,0x1
200000f0:	90068693          	addi	a3,a3,-1792 # 200009ec <RxBuff>
200000f4:	00f14783          	lbu	a5,15(sp)
200000f8:	8181c603          	lbu	a2,-2024(gp) # 200009e8 <trigB>
200000fc:	00f61963          	bne	a2,a5,2000010e <UART1_IRQHandler+0x48>
20000100:	0141                	addi	sp,sp,16
20000102:	30200073          	mret
20000106:	40574783          	lbu	a5,1029(a4) # 40003405 <_eusrstack+0x1fffb405>
2000010a:	30200073          	mret
2000010e:	00f14783          	lbu	a5,15(sp)
20000112:	40874603          	lbu	a2,1032(a4)
20000116:	97b6                	add	a5,a5,a3
20000118:	00c78023          	sb	a2,0(a5)
2000011c:	00f14783          	lbu	a5,15(sp)
20000120:	97b6                	add	a5,a5,a3
20000122:	0007c783          	lbu	a5,0(a5)
20000126:	40f70423          	sb	a5,1032(a4)
2000012a:	00f14783          	lbu	a5,15(sp)
2000012e:	0785                	addi	a5,a5,1
20000130:	0ff7f793          	andi	a5,a5,255
20000134:	00f107a3          	sb	a5,15(sp)
20000138:	bf75                	j	200000f4 <UART1_IRQHandler+0x2e>
2000013a:	00001517          	auipc	a0,0x1
2000013e:	8b250513          	addi	a0,a0,-1870 # 200009ec <RxBuff>
20000142:	e0001097          	auipc	ra,0xe0001
20000146:	496080e7          	jalr	1174(ra) # 15d8 <UART1_RecvString>
2000014a:	0ff57513          	andi	a0,a0,255
2000014e:	00a107a3          	sb	a0,15(sp)
20000152:	00f14583          	lbu	a1,15(sp)
20000156:	00001517          	auipc	a0,0x1
2000015a:	89650513          	addi	a0,a0,-1898 # 200009ec <RxBuff>
2000015e:	e0001097          	auipc	ra,0xe0001
20000162:	452080e7          	jalr	1106(ra) # 15b0 <UART1_SendString>
20000166:	bf69                	j	20000100 <UART1_IRQHandler+0x3a>

20000168 <TMR0_IRQHandler>:
20000168:	400027b7          	lui	a5,0x40002
2000016c:	0067c703          	lbu	a4,6(a5) # 40002006 <_eusrstack+0x1fffa006>
20000170:	8b05                	andi	a4,a4,1
20000172:	cf09                	beqz	a4,2000018c <TMR0_IRQHandler+0x24>
20000174:	0007c703          	lbu	a4,0(a5)
20000178:	0fb77713          	andi	a4,a4,251
2000017c:	00e78023          	sb	a4,0(a5)
20000180:	4705                	li	a4,1
20000182:	00e78323          	sb	a4,6(a5)
20000186:	4785                	li	a5,1
20000188:	80f1a423          	sw	a5,-2040(gp) # 200009d8 <_edata>
2000018c:	30200073          	mret

20000190 <SetSysClock>:
20000190:	400017b7          	lui	a5,0x40001
20000194:	05700693          	li	a3,87
20000198:	04d78023          	sb	a3,64(a5) # 40001040 <_eusrstack+0x1fff9040>
2000019c:	fa800713          	li	a4,-88
200001a0:	04e78023          	sb	a4,64(a5)
200001a4:	0001                	nop
200001a6:	0001                	nop
200001a8:	04b7c603          	lbu	a2,75(a5)
200001ac:	0df67613          	andi	a2,a2,223
200001b0:	04c785a3          	sb	a2,75(a5)
200001b4:	04078023          	sb	zero,64(a5)
200001b8:	02057613          	andi	a2,a0,32
200001bc:	ce59                	beqz	a2,2000025a <SetSysClock+0xca>
200001be:	00a7c603          	lbu	a2,10(a5)
200001c2:	8a11                	andi	a2,a2,4
200001c4:	e21d                	bnez	a2,200001ea <SetSysClock+0x5a>
200001c6:	04d78023          	sb	a3,64(a5)
200001ca:	04e78023          	sb	a4,64(a5)
200001ce:	0001                	nop
200001d0:	0001                	nop
200001d2:	00a7c703          	lbu	a4,10(a5)
200001d6:	00476713          	ori	a4,a4,4
200001da:	00e78523          	sb	a4,10(a5)
200001de:	4b000793          	li	a5,1200
200001e2:	0001                	nop
200001e4:	0001                	nop
200001e6:	17fd                	addi	a5,a5,-1
200001e8:	ffed                	bnez	a5,200001e2 <SetSysClock+0x52>
200001ea:	400017b7          	lui	a5,0x40001
200001ee:	05700693          	li	a3,87
200001f2:	04d78023          	sb	a3,64(a5) # 40001040 <_eusrstack+0x1fff9040>
200001f6:	fa800713          	li	a4,-88
200001fa:	04e78023          	sb	a4,64(a5)
200001fe:	0001                	nop
20000200:	0001                	nop
20000202:	897d                	andi	a0,a0,31
20000204:	00a79423          	sh	a0,8(a5)
20000208:	0001                	nop
2000020a:	0001                	nop
2000020c:	0001                	nop
2000020e:	0001                	nop
20000210:	04078023          	sb	zero,64(a5)
20000214:	04d78023          	sb	a3,64(a5)
20000218:	04e78023          	sb	a4,64(a5)
2000021c:	0001                	nop
2000021e:	0001                	nop
20000220:	40002737          	lui	a4,0x40002
20000224:	05100693          	li	a3,81
20000228:	80d703a3          	sb	a3,-2041(a4) # 40001807 <_eusrstack+0x1fff9807>
2000022c:	04078023          	sb	zero,64(a5)
20000230:	400017b7          	lui	a5,0x40001
20000234:	05700713          	li	a4,87
20000238:	04e78023          	sb	a4,64(a5) # 40001040 <_eusrstack+0x1fff9040>
2000023c:	fa800713          	li	a4,-88
20000240:	04e78023          	sb	a4,64(a5)
20000244:	0001                	nop
20000246:	0001                	nop
20000248:	04b7c703          	lbu	a4,75(a5)
2000024c:	08076713          	ori	a4,a4,128
20000250:	04e785a3          	sb	a4,75(a5)
20000254:	04078023          	sb	zero,64(a5)
20000258:	8082                	ret
2000025a:	04057613          	andi	a2,a0,64
2000025e:	ca2d                	beqz	a2,200002d0 <SetSysClock+0x140>
20000260:	00a7c603          	lbu	a2,10(a5)
20000264:	8a41                	andi	a2,a2,16
20000266:	e21d                	bnez	a2,2000028c <SetSysClock+0xfc>
20000268:	04d78023          	sb	a3,64(a5)
2000026c:	04e78023          	sb	a4,64(a5)
20000270:	0001                	nop
20000272:	0001                	nop
20000274:	00a7c703          	lbu	a4,10(a5)
20000278:	01076713          	ori	a4,a4,16
2000027c:	00e78523          	sb	a4,10(a5)
20000280:	7d000793          	li	a5,2000
20000284:	0001                	nop
20000286:	0001                	nop
20000288:	17fd                	addi	a5,a5,-1
2000028a:	ffed                	bnez	a5,20000284 <SetSysClock+0xf4>
2000028c:	400017b7          	lui	a5,0x40001
20000290:	05700693          	li	a3,87
20000294:	04d78023          	sb	a3,64(a5) # 40001040 <_eusrstack+0x1fff9040>
20000298:	fa800713          	li	a4,-88
2000029c:	04e78023          	sb	a4,64(a5)
200002a0:	0001                	nop
200002a2:	0001                	nop
200002a4:	897d                	andi	a0,a0,31
200002a6:	04056513          	ori	a0,a0,64
200002aa:	00a79423          	sh	a0,8(a5)
200002ae:	0001                	nop
200002b0:	0001                	nop
200002b2:	0001                	nop
200002b4:	0001                	nop
200002b6:	04078023          	sb	zero,64(a5)
200002ba:	04d78023          	sb	a3,64(a5)
200002be:	04e78023          	sb	a4,64(a5)
200002c2:	0001                	nop
200002c4:	0001                	nop
200002c6:	40002737          	lui	a4,0x40002
200002ca:	05200693          	li	a3,82
200002ce:	bfa9                	j	20000228 <SetSysClock+0x98>
200002d0:	04d78023          	sb	a3,64(a5)
200002d4:	04e78023          	sb	a4,64(a5)
200002d8:	0001                	nop
200002da:	0001                	nop
200002dc:	0087d703          	lhu	a4,8(a5)
200002e0:	0c076713          	ori	a4,a4,192
200002e4:	00e79423          	sh	a4,8(a5)
200002e8:	b7a1                	j	20000230 <SetSysClock+0xa0>

200002ea <SYS_ResetExecute>:
200002ea:	1141                	addi	sp,sp,-16
200002ec:	4681                	li	a3,0
200002ee:	4601                	li	a2,0
200002f0:	4581                	li	a1,0
200002f2:	4511                	li	a0,4
200002f4:	c606                	sw	ra,12(sp)
200002f6:	2ab1                	jal	20000452 <FLASH_EEPROM_CMD>
200002f8:	400017b7          	lui	a5,0x40001
200002fc:	05700713          	li	a4,87
20000300:	04e78023          	sb	a4,64(a5) # 40001040 <_eusrstack+0x1fff9040>
20000304:	fa800713          	li	a4,-88
20000308:	04e78023          	sb	a4,64(a5)
2000030c:	0001                	nop
2000030e:	0001                	nop
20000310:	0467c703          	lbu	a4,70(a5)
20000314:	00176713          	ori	a4,a4,1
20000318:	04e78323          	sb	a4,70(a5)
2000031c:	04078023          	sb	zero,64(a5)
20000320:	40b2                	lw	ra,12(sp)
20000322:	0141                	addi	sp,sp,16
20000324:	8082                	ret

20000326 <HardFault_Handler>:
20000326:	4681                	li	a3,0
20000328:	4601                	li	a2,0
2000032a:	4581                	li	a1,0
2000032c:	4511                	li	a0,4
2000032e:	2215                	jal	20000452 <FLASH_EEPROM_CMD>
20000330:	400017b7          	lui	a5,0x40001
20000334:	05700713          	li	a4,87
20000338:	04e78023          	sb	a4,64(a5) # 40001040 <_eusrstack+0x1fff9040>
2000033c:	fa800713          	li	a4,-88
20000340:	04e78023          	sb	a4,64(a5)
20000344:	0001                	nop
20000346:	0001                	nop
20000348:	577d                	li	a4,-1
2000034a:	02e79623          	sh	a4,44(a5)
2000034e:	0467c703          	lbu	a4,70(a5)
20000352:	00176713          	ori	a4,a4,1
20000356:	04e78323          	sb	a4,70(a5)
2000035a:	04078023          	sb	zero,64(a5)
2000035e:	a001                	j	2000035e <HardFault_Handler+0x38>

20000360 <mDelayuS>:
20000360:	47bd                	li	a5,15
20000362:	02f50533          	mul	a0,a0,a5
20000366:	0001                	nop
20000368:	157d                	addi	a0,a0,-1
2000036a:	fd75                	bnez	a0,20000366 <mDelayuS+0x6>
2000036c:	8082                	ret

2000036e <mDelaymS>:
2000036e:	1141                	addi	sp,sp,-16
20000370:	c422                	sw	s0,8(sp)
20000372:	c226                	sw	s1,4(sp)
20000374:	c606                	sw	ra,12(sp)
20000376:	84aa                	mv	s1,a0
20000378:	4401                	li	s0,0
2000037a:	00941763          	bne	s0,s1,20000388 <mDelaymS+0x1a>
2000037e:	40b2                	lw	ra,12(sp)
20000380:	4422                	lw	s0,8(sp)
20000382:	4492                	lw	s1,4(sp)
20000384:	0141                	addi	sp,sp,16
20000386:	8082                	ret
20000388:	0405                	addi	s0,s0,1
2000038a:	3e800513          	li	a0,1000
2000038e:	0442                	slli	s0,s0,0x10
20000390:	3fc1                	jal	20000360 <mDelayuS>
20000392:	8041                	srli	s0,s0,0x10
20000394:	b7dd                	j	2000037a <mDelaymS+0xc>

20000396 <FLASH_ROM_BEG>:
20000396:	80040323          	sb	zero,-2042(s0)
2000039a:	4715                	li	a4,5
2000039c:	80e40323          	sb	a4,-2042(s0)
200003a0:	0001                	nop
200003a2:	80a40223          	sb	a0,-2044(s0)
200003a6:	8082                	ret

200003a8 <FLASH_ROM_END>:
200003a8:	80640783          	lb	a5,-2042(s0)
200003ac:	fe07cee3          	bltz	a5,200003a8 <FLASH_ROM_END>
200003b0:	80040323          	sb	zero,-2042(s0)
200003b4:	8082                	ret

200003b6 <FLASH_ROM_IN>:
200003b6:	80640783          	lb	a5,-2042(s0)
200003ba:	fe07cee3          	bltz	a5,200003b6 <FLASH_ROM_IN>
200003be:	80444503          	lbu	a0,-2044(s0)
200003c2:	8082                	ret

200003c4 <FLASH_ROM_OUT>:
200003c4:	80640783          	lb	a5,-2042(s0)
200003c8:	fe07cee3          	bltz	a5,200003c4 <FLASH_ROM_OUT>
200003cc:	80a40223          	sb	a0,-2044(s0)
200003d0:	8082                	ret

200003d2 <FLASH_ROM_ADDR>:
200003d2:	1141                	addi	sp,sp,-16
200003d4:	c426                	sw	s1,8(sp)
200003d6:	c24a                	sw	s2,4(sp)
200003d8:	c04e                	sw	s3,0(sp)
200003da:	c606                	sw	ra,12(sp)
200003dc:	0bf57713          	andi	a4,a0,191
200003e0:	47ad                	li	a5,11
200003e2:	89aa                	mv	s3,a0
200003e4:	892e                	mv	s2,a1
200003e6:	4495                	li	s1,5
200003e8:	00f70663          	beq	a4,a5,200003f4 <FLASH_ROM_ADDR+0x22>
200003ec:	4519                	li	a0,6
200003ee:	3765                	jal	20000396 <FLASH_ROM_BEG>
200003f0:	3f65                	jal	200003a8 <FLASH_ROM_END>
200003f2:	448d                	li	s1,3
200003f4:	854e                	mv	a0,s3
200003f6:	3745                	jal	20000396 <FLASH_ROM_BEG>
200003f8:	59fd                	li	s3,-1
200003fa:	14fd                	addi	s1,s1,-1
200003fc:	01349863          	bne	s1,s3,2000040c <FLASH_ROM_ADDR+0x3a>
20000400:	40b2                	lw	ra,12(sp)
20000402:	44a2                	lw	s1,8(sp)
20000404:	4912                	lw	s2,4(sp)
20000406:	4982                	lw	s3,0(sp)
20000408:	0141                	addi	sp,sp,16
2000040a:	8082                	ret
2000040c:	01095513          	srli	a0,s2,0x10
20000410:	0ff57513          	andi	a0,a0,255
20000414:	3f45                	jal	200003c4 <FLASH_ROM_OUT>
20000416:	0922                	slli	s2,s2,0x8
20000418:	b7cd                	j	200003fa <FLASH_ROM_ADDR+0x28>

2000041a <FLASH_ROM_WAIT>:
2000041a:	1101                	addi	sp,sp,-32
2000041c:	cc26                	sw	s1,24(sp)
2000041e:	ce06                	sw	ra,28(sp)
20000420:	000804b7          	lui	s1,0x80
20000424:	3751                	jal	200003a8 <FLASH_ROM_END>
20000426:	4515                	li	a0,5
20000428:	37bd                	jal	20000396 <FLASH_ROM_BEG>
2000042a:	3771                	jal	200003b6 <FLASH_ROM_IN>
2000042c:	3769                	jal	200003b6 <FLASH_ROM_IN>
2000042e:	c62a                	sw	a0,12(sp)
20000430:	3fa5                	jal	200003a8 <FLASH_ROM_END>
20000432:	4532                	lw	a0,12(sp)
20000434:	00157793          	andi	a5,a0,1
20000438:	eb89                	bnez	a5,2000044a <FLASH_ROM_WAIT+0x30>
2000043a:	00156513          	ori	a0,a0,1
2000043e:	0ff57513          	andi	a0,a0,255
20000442:	40f2                	lw	ra,28(sp)
20000444:	44e2                	lw	s1,24(sp)
20000446:	6105                	addi	sp,sp,32
20000448:	8082                	ret
2000044a:	14fd                	addi	s1,s1,-1
2000044c:	fce9                	bnez	s1,20000426 <FLASH_ROM_WAIT+0xc>
2000044e:	4501                	li	a0,0
20000450:	bfcd                	j	20000442 <FLASH_ROM_WAIT+0x28>

20000452 <FLASH_EEPROM_CMD>:
20000452:	7139                	addi	sp,sp,-64
20000454:	dc26                	sw	s1,56(sp)
20000456:	da4a                	sw	s2,52(sp)
20000458:	d84e                	sw	s3,48(sp)
2000045a:	d652                	sw	s4,44(sp)
2000045c:	d456                	sw	s5,40(sp)
2000045e:	d25a                	sw	s6,36(sp)
20000460:	d05e                	sw	s7,32(sp)
20000462:	de06                	sw	ra,60(sp)
20000464:	ce62                	sw	s8,28(sp)
20000466:	cc66                	sw	s9,24(sp)
20000468:	e000e7b7          	lui	a5,0xe000e
2000046c:	577d                	li	a4,-1
2000046e:	0007aa83          	lw	s5,0(a5) # e000e000 <_eusrstack+0xc0006000>
20000472:	c622                	sw	s0,12(sp)
20000474:	0047aa03          	lw	s4,4(a5)
20000478:	18e7a023          	sw	a4,384(a5)
2000047c:	18e7a223          	sw	a4,388(a5)
20000480:	400017b7          	lui	a5,0x40001
20000484:	05700713          	li	a4,87
20000488:	04e78023          	sb	a4,64(a5) # 40001040 <_eusrstack+0x1fff9040>
2000048c:	fa800713          	li	a4,-88
20000490:	04e78023          	sb	a4,64(a5)
20000494:	0447c783          	lbu	a5,68(a5)
20000498:	ff750b93          	addi	s7,a0,-9
2000049c:	84b6                	mv	s1,a3
2000049e:	07e2                	slli	a5,a5,0x18
200004a0:	0ffbfb93          	andi	s7,s7,255
200004a4:	4685                	li	a3,1
200004a6:	89aa                	mv	s3,a0
200004a8:	8b2e                	mv	s6,a1
200004aa:	8932                	mv	s2,a2
200004ac:	40002437          	lui	s0,0x40002
200004b0:	87e1                	srai	a5,a5,0x18
200004b2:	5701                	li	a4,-32
200004b4:	0176fa63          	bgeu	a3,s7,200004c8 <FLASH_EEPROM_CMD+0x76>
200004b8:	00d50863          	beq	a0,a3,200004c8 <FLASH_EEPROM_CMD+0x76>
200004bc:	4689                	li	a3,2
200004be:	02000713          	li	a4,32
200004c2:	00d51363          	bne	a0,a3,200004c8 <FLASH_EEPROM_CMD+0x76>
200004c6:	5701                	li	a4,-32
200004c8:	8fd9                	or	a5,a5,a4
200004ca:	0ff7f793          	andi	a5,a5,255
200004ce:	40001cb7          	lui	s9,0x40001
200004d2:	04fc8223          	sb	a5,68(s9) # 40001044 <_eusrstack+0x1fff9044>
200004d6:	4711                	li	a4,4
200004d8:	80e40323          	sb	a4,-2042(s0) # 40001806 <_eusrstack+0x1fff9806>
200004dc:	0ff00513          	li	a0,255
200004e0:	3d5d                	jal	20000396 <FLASH_ROM_BEG>
200004e2:	4c09                	li	s8,2
200004e4:	35d1                	jal	200003a8 <FLASH_ROM_END>
200004e6:	117c6d63          	bltu	s8,s7,20000600 <FLASH_EEPROM_CMD+0x1ae>
200004ea:	000705b7          	lui	a1,0x70
200004ee:	95da                	add	a1,a1,s6
200004f0:	00078737          	lui	a4,0x78
200004f4:	5579                	li	a0,-2
200004f6:	04e5f263          	bgeu	a1,a4,2000053a <FLASH_EEPROM_CMD+0xe8>
200004fa:	009587b3          	add	a5,a1,s1
200004fe:	02f76e63          	bltu	a4,a5,2000053a <FLASH_EEPROM_CMD+0xe8>
20000502:	00080b37          	lui	s6,0x80
20000506:	47a9                	li	a5,10
20000508:	0165eb33          	or	s6,a1,s6
2000050c:	06f99963          	bne	s3,a5,2000057e <FLASH_EEPROM_CMD+0x12c>
20000510:	e489                	bnez	s1,2000051a <FLASH_EEPROM_CMD+0xc8>
20000512:	4481                	li	s1,0
20000514:	3d51                	jal	200003a8 <FLASH_ROM_END>
20000516:	8526                	mv	a0,s1
20000518:	a00d                	j	2000053a <FLASH_EEPROM_CMD+0xe8>
2000051a:	85da                	mv	a1,s6
2000051c:	4509                	li	a0,2
2000051e:	3d55                	jal	200003d2 <FLASH_ROM_ADDR>
20000520:	0905                	addi	s2,s2,1
20000522:	fff94503          	lbu	a0,-1(s2)
20000526:	14fd                	addi	s1,s1,-1
20000528:	0b05                	addi	s6,s6,1
2000052a:	3d69                	jal	200003c4 <FLASH_ROM_OUT>
2000052c:	c481                	beqz	s1,20000534 <FLASH_EEPROM_CMD+0xe2>
2000052e:	0ffb7793          	andi	a5,s6,255
20000532:	f7fd                	bnez	a5,20000520 <FLASH_EEPROM_CMD+0xce>
20000534:	35dd                	jal	2000041a <FLASH_ROM_WAIT>
20000536:	fd69                	bnez	a0,20000510 <FLASH_EEPROM_CMD+0xbe>
20000538:	557d                	li	a0,-1
2000053a:	400017b7          	lui	a5,0x40001
2000053e:	05700713          	li	a4,87
20000542:	04e78023          	sb	a4,64(a5) # 40001040 <_eusrstack+0x1fff9040>
20000546:	fa800713          	li	a4,-88
2000054a:	04e78023          	sb	a4,64(a5)
2000054e:	0447c703          	lbu	a4,68(a5)
20000552:	8b41                	andi	a4,a4,16
20000554:	04e78223          	sb	a4,68(a5)
20000558:	50f2                	lw	ra,60(sp)
2000055a:	e000e7b7          	lui	a5,0xe000e
2000055e:	1157a023          	sw	s5,256(a5) # e000e100 <_eusrstack+0xc0006100>
20000562:	1147a223          	sw	s4,260(a5)
20000566:	54e2                	lw	s1,56(sp)
20000568:	4432                	lw	s0,12(sp)
2000056a:	5952                	lw	s2,52(sp)
2000056c:	59c2                	lw	s3,48(sp)
2000056e:	5a32                	lw	s4,44(sp)
20000570:	5aa2                	lw	s5,40(sp)
20000572:	5b12                	lw	s6,36(sp)
20000574:	5b82                	lw	s7,32(sp)
20000576:	4c72                	lw	s8,28(sp)
20000578:	4ce2                	lw	s9,24(sp)
2000057a:	6121                	addi	sp,sp,64
2000057c:	8082                	ret
2000057e:	47a5                	li	a5,9
20000580:	06f99563          	bne	s3,a5,200005ea <FLASH_EEPROM_CMD+0x198>
20000584:	6985                	lui	s3,0x1
20000586:	0ff00913          	li	s2,255
2000058a:	009906b3          	add	a3,s2,s1
2000058e:	012b74b3          	and	s1,s6,s2
20000592:	94b6                	add	s1,s1,a3
20000594:	fff94913          	not	s2,s2
20000598:	009974b3          	and	s1,s2,s1
2000059c:	6b85                	lui	s7,0x1
2000059e:	01697933          	and	s2,s2,s6
200005a2:	6b41                	lui	s6,0x10
200005a4:	fff98793          	addi	a5,s3,-1 # fff <setcapchannel+0x37>
200005a8:	0127f7b3          	and	a5,a5,s2
200005ac:	e399                	bnez	a5,200005b2 <FLASH_EEPROM_CMD+0x160>
200005ae:	0134fc63          	bgeu	s1,s3,200005c6 <FLASH_EEPROM_CMD+0x174>
200005b2:	0049d993          	srli	s3,s3,0x4
200005b6:	47c1                	li	a5,16
200005b8:	ff37e6e3          	bltu	a5,s3,200005a4 <FLASH_EEPROM_CMD+0x152>
200005bc:	bf99                	j	20000512 <FLASH_EEPROM_CMD+0xc0>
200005be:	6905                	lui	s2,0x1
200005c0:	69c1                	lui	s3,0x10
200005c2:	197d                	addi	s2,s2,-1
200005c4:	b7d9                	j	2000058a <FLASH_EEPROM_CMD+0x138>
200005c6:	0d800513          	li	a0,216
200005ca:	01698863          	beq	s3,s6,200005da <FLASH_EEPROM_CMD+0x188>
200005ce:	02000513          	li	a0,32
200005d2:	01798463          	beq	s3,s7,200005da <FLASH_EEPROM_CMD+0x188>
200005d6:	08100513          	li	a0,129
200005da:	85ca                	mv	a1,s2
200005dc:	3bdd                	jal	200003d2 <FLASH_ROM_ADDR>
200005de:	3d35                	jal	2000041a <FLASH_ROM_WAIT>
200005e0:	dd21                	beqz	a0,20000538 <FLASH_EEPROM_CMD+0xe6>
200005e2:	994e                	add	s2,s2,s3
200005e4:	413484b3          	sub	s1,s1,s3
200005e8:	b7d9                	j	200005ae <FLASH_EEPROM_CMD+0x15c>
200005ea:	85da                	mv	a1,s6
200005ec:	452d                	li	a0,11
200005ee:	33d5                	jal	200003d2 <FLASH_ROM_ADDR>
200005f0:	94ca                	add	s1,s1,s2
200005f2:	f29900e3          	beq	s2,s1,20000512 <FLASH_EEPROM_CMD+0xc0>
200005f6:	0905                	addi	s2,s2,1
200005f8:	3b7d                	jal	200003b6 <FLASH_ROM_IN>
200005fa:	fea90fa3          	sb	a0,-1(s2) # fff <setcapchannel+0x37>
200005fe:	bfd5                	j	200005f2 <FLASH_EEPROM_CMD+0x1a0>
20000600:	fff98793          	addi	a5,s3,-1 # ffff <_data_lma+0x61fb>
20000604:	0ff7f793          	andi	a5,a5,255
20000608:	0cfc6163          	bltu	s8,a5,200006ca <.loop402+0x7a>
2000060c:	041cc783          	lbu	a5,65(s9)
20000610:	08300713          	li	a4,131
20000614:	04f71f63          	bne	a4,a5,20000672 <.loop402+0x22>
20000618:	00080737          	lui	a4,0x80
2000061c:	04eb6b63          	bltu	s6,a4,20000672 <.loop402+0x22>
20000620:	009b07b3          	add	a5,s6,s1
20000624:	001006b7          	lui	a3,0x100
20000628:	04d7f563          	bgeu	a5,a3,20000672 <.loop402+0x22>
2000062c:	00eb4b33          	xor	s6,s6,a4
20000630:	4789                	li	a5,2
20000632:	06f99363          	bne	s3,a5,20000698 <.loop402+0x48>
20000636:	8089                	srli	s1,s1,0x2
20000638:	49d5                	li	s3,21
2000063a:	ec048ce3          	beqz	s1,20000512 <FLASH_EEPROM_CMD+0xc0>
2000063e:	85da                	mv	a1,s6
20000640:	4509                	li	a0,2
20000642:	3b41                	jal	200003d2 <FLASH_ROM_ADDR>
20000644:	0911                	addi	s2,s2,4
20000646:	ffc92703          	lw	a4,-4(s2)
2000064a:	4791                	li	a5,4
2000064c:	80e42023          	sw	a4,-2048(s0)

20000650 <.loop402>:
20000650:	80640703          	lb	a4,-2042(s0)
20000654:	fe074ee3          	bltz	a4,20000650 <.loop402>
20000658:	81340323          	sb	s3,-2042(s0)
2000065c:	17fd                	addi	a5,a5,-1
2000065e:	fbed                	bnez	a5,20000650 <.loop402>
20000660:	14fd                	addi	s1,s1,-1
20000662:	0b11                	addi	s6,s6,4
20000664:	c481                	beqz	s1,2000066c <.loop402+0x1c>
20000666:	0ffb7793          	andi	a5,s6,255
2000066a:	ffe9                	bnez	a5,20000644 <FLASH_EEPROM_CMD+0x1f2>
2000066c:	337d                	jal	2000041a <FLASH_ROM_WAIT>
2000066e:	f571                	bnez	a0,2000063a <FLASH_EEPROM_CMD+0x1e8>
20000670:	b5e1                	j	20000538 <FLASH_EEPROM_CMD+0xe6>
20000672:	400017b7          	lui	a5,0x40001
20000676:	0457c703          	lbu	a4,69(a5) # 40001045 <_eusrstack+0x1fff9045>
2000067a:	000807b7          	lui	a5,0x80
2000067e:	02077713          	andi	a4,a4,32
20000682:	e319                	bnez	a4,20000688 <.loop402+0x38>
20000684:	000787b7          	lui	a5,0x78
20000688:	5579                	li	a0,-2
2000068a:	eafb78e3          	bgeu	s6,a5,2000053a <FLASH_EEPROM_CMD+0xe8>
2000068e:	009b0733          	add	a4,s6,s1
20000692:	f8e7ffe3          	bgeu	a5,a4,20000630 <FLASH_EEPROM_CMD+0x1de>
20000696:	b555                	j	2000053a <FLASH_EEPROM_CMD+0xe8>
20000698:	4785                	li	a5,1
2000069a:	f2f982e3          	beq	s3,a5,200005be <FLASH_EEPROM_CMD+0x16c>
2000069e:	85da                	mv	a1,s6
200006a0:	452d                	li	a0,11
200006a2:	3b05                	jal	200003d2 <FLASH_ROM_ADDR>
200006a4:	fff48993          	addi	s3,s1,-1 # 7ffff <_data_lma+0x761fb>
200006a8:	e60485e3          	beqz	s1,20000512 <FLASH_EEPROM_CMD+0xc0>
200006ac:	3329                	jal	200003b6 <FLASH_ROM_IN>
200006ae:	0039f793          	andi	a5,s3,3
200006b2:	eb91                	bnez	a5,200006c6 <.loop402+0x76>
200006b4:	80042683          	lw	a3,-2048(s0)
200006b8:	00092703          	lw	a4,0(s2)
200006bc:	00490793          	addi	a5,s2,4
200006c0:	e4e69ae3          	bne	a3,a4,20000514 <FLASH_EEPROM_CMD+0xc2>
200006c4:	893e                	mv	s2,a5
200006c6:	84ce                	mv	s1,s3
200006c8:	bff1                	j	200006a4 <.loop402+0x54>
200006ca:	47b5                	li	a5,13
200006cc:	00f99663          	bne	s3,a5,200006d8 <.loop402+0x88>
200006d0:	0b900513          	li	a0,185
200006d4:	31c9                	jal	20000396 <FLASH_ROM_BEG>
200006d6:	bd35                	j	20000512 <FLASH_EEPROM_CMD+0xc0>
200006d8:	47b1                	li	a5,12
200006da:	0ab00513          	li	a0,171
200006de:	fef98be3          	beq	s3,a5,200006d4 <.loop402+0x84>
200006e2:	4799                	li	a5,6
200006e4:	04f99163          	bne	s3,a5,20000726 <.loop402+0xd6>
200006e8:	000805b7          	lui	a1,0x80
200006ec:	00bb65b3          	or	a1,s6,a1
200006f0:	452d                	li	a0,11
200006f2:	31c5                	jal	200003d2 <FLASH_ROM_ADDR>
200006f4:	4481                	li	s1,0
200006f6:	4b8d                	li	s7,3
200006f8:	49a1                	li	s3,8
200006fa:	3975                	jal	200003b6 <FLASH_ROM_IN>
200006fc:	01749663          	bne	s1,s7,20000708 <.loop402+0xb8>
20000700:	80042783          	lw	a5,-2048(s0)
20000704:	00f92023          	sw	a5,0(s2)
20000708:	0485                	addi	s1,s1,1
2000070a:	ff3498e3          	bne	s1,s3,200006fa <.loop402+0xaa>
2000070e:	80042783          	lw	a5,-2048(s0)
20000712:	012b1713          	slli	a4,s6,0x12
20000716:	00075563          	bgez	a4,20000720 <.loop402+0xd0>
2000071a:	00f91223          	sh	a5,4(s2)
2000071e:	bbd5                	j	20000512 <FLASH_EEPROM_CMD+0xc0>
20000720:	00f92223          	sw	a5,4(s2)
20000724:	b3fd                	j	20000512 <FLASH_EEPROM_CMD+0xc0>
20000726:	479d                	li	a5,7
20000728:	02f99963          	bne	s3,a5,2000075a <.loop402+0x10a>
2000072c:	4581                	li	a1,0
2000072e:	04b00513          	li	a0,75
20000732:	3145                	jal	200003d2 <FLASH_ROM_ADDR>
20000734:	44bd                	li	s1,15
20000736:	00092023          	sw	zero,0(s2)
2000073a:	00092223          	sw	zero,4(s2)
2000073e:	59fd                	li	s3,-1
20000740:	399d                	jal	200003b6 <FLASH_ROM_IN>
20000742:	0074f793          	andi	a5,s1,7
20000746:	97ca                	add	a5,a5,s2
20000748:	0007c703          	lbu	a4,0(a5) # 78000 <_data_lma+0x6e1fc>
2000074c:	14fd                	addi	s1,s1,-1
2000074e:	8d39                	xor	a0,a0,a4
20000750:	00a78023          	sb	a0,0(a5)
20000754:	ff3496e3          	bne	s1,s3,20000740 <.loop402+0xf0>
20000758:	bb6d                	j	20000512 <FLASH_EEPROM_CMD+0xc0>
2000075a:	47a1                	li	a5,8
2000075c:	04f99263          	bne	s3,a5,200007a0 <.loop402+0x150>
20000760:	396d                	jal	2000041a <FLASH_ROM_WAIT>
20000762:	4481                	li	s1,0
20000764:	000b0d63          	beqz	s6,2000077e <.loop402+0x12e>
20000768:	478d                	li	a5,3
2000076a:	03c00493          	li	s1,60
2000076e:	00fb0863          	beq	s6,a5,2000077e <.loop402+0x12e>
20000772:	05000493          	li	s1,80
20000776:	018b0463          	beq	s6,s8,2000077e <.loop402+0x12e>
2000077a:	04400493          	li	s1,68
2000077e:	07c57513          	andi	a0,a0,124
20000782:	d89508e3          	beq	a0,s1,20000512 <FLASH_EEPROM_CMD+0xc0>
20000786:	4519                	li	a0,6
20000788:	3139                	jal	20000396 <FLASH_ROM_BEG>
2000078a:	3939                	jal	200003a8 <FLASH_ROM_END>
2000078c:	4505                	li	a0,1
2000078e:	3121                	jal	20000396 <FLASH_ROM_BEG>
20000790:	8526                	mv	a0,s1
20000792:	390d                	jal	200003c4 <FLASH_ROM_OUT>
20000794:	4509                	li	a0,2
20000796:	313d                	jal	200003c4 <FLASH_ROM_OUT>
20000798:	3149                	jal	2000041a <FLASH_ROM_WAIT>
2000079a:	d6051ce3          	bnez	a0,20000512 <FLASH_EEPROM_CMD+0xc0>
2000079e:	bb69                	j	20000538 <FLASH_EEPROM_CMD+0xe6>
200007a0:	4791                	li	a5,4
200007a2:	00f99963          	bne	s3,a5,200007b4 <.loop402+0x164>
200007a6:	06600513          	li	a0,102
200007aa:	36f5                	jal	20000396 <FLASH_ROM_BEG>
200007ac:	3ef5                	jal	200003a8 <FLASH_ROM_END>
200007ae:	09900513          	li	a0,153
200007b2:	b70d                	j	200006d4 <.loop402+0x84>
200007b4:	d4098fe3          	beqz	s3,20000512 <FLASH_EEPROM_CMD+0xc0>
200007b8:	54f1                	li	s1,-4
200007ba:	bba9                	j	20000514 <FLASH_EEPROM_CMD+0xc2>

Disassembly of section .text:

000007c0 <handle_reset>:
     7c0:	20001197          	auipc	gp,0x20001
     7c4:	a1018193          	addi	gp,gp,-1520 # 200011d0 <__global_pointer$>
     7c8:	20008117          	auipc	sp,0x20008
     7cc:	83810113          	addi	sp,sp,-1992 # 20008000 <_eusrstack>
     7d0:	00400513          	li	a0,4
     7d4:	20000597          	auipc	a1,0x20000
     7d8:	82c58593          	addi	a1,a1,-2004 # 20000000 <_highcode_vma_start>
     7dc:	20000617          	auipc	a2,0x20000
     7e0:	fe060613          	addi	a2,a2,-32 # 200007bc <_highcode_vma_end>
     7e4:	00c5fa63          	bgeu	a1,a2,7f8 <handle_reset+0x38>
     7e8:	00052283          	lw	t0,0(a0)
     7ec:	0055a023          	sw	t0,0(a1)
     7f0:	0511                	addi	a0,a0,4
     7f2:	0591                	addi	a1,a1,4
     7f4:	fec5eae3          	bltu	a1,a2,7e8 <handle_reset+0x28>
     7f8:	00009517          	auipc	a0,0x9
     7fc:	60c50513          	addi	a0,a0,1548 # 9e04 <_data_lma>
     800:	20000597          	auipc	a1,0x20000
     804:	00058593          	mv	a1,a1
     808:	80818613          	addi	a2,gp,-2040 # 200009d8 <_edata>
     80c:	00c5fa63          	bgeu	a1,a2,820 <handle_reset+0x60>
     810:	00052283          	lw	t0,0(a0)
     814:	0055a023          	sw	t0,0(a1) # 20000800 <_data_vma>
     818:	0511                	addi	a0,a0,4
     81a:	0591                	addi	a1,a1,4
     81c:	fec5eae3          	bltu	a1,a2,810 <handle_reset+0x50>
     820:	80818513          	addi	a0,gp,-2040 # 200009d8 <_edata>
     824:	8a418593          	addi	a1,gp,-1884 # 20000a74 <_ebss>
     828:	00b57763          	bgeu	a0,a1,836 <handle_reset+0x76>
     82c:	00052023          	sw	zero,0(a0)
     830:	0511                	addi	a0,a0,4
     832:	feb56de3          	bltu	a0,a1,82c <handle_reset+0x6c>
     836:	42fd                	li	t0,31
     838:	bc029073          	csrw	0xbc0,t0
     83c:	428d                	li	t0,3
     83e:	80429073          	csrw	0x804,t0
     842:	08800293          	li	t0,136
     846:	3002a073          	csrs	mstatus,t0
     84a:	1ffff297          	auipc	t0,0x1ffff
     84e:	7b628293          	addi	t0,t0,1974 # 20000000 <_highcode_vma_start>
     852:	0032e293          	ori	t0,t0,3
     856:	30529073          	csrw	mtvec,t0
     85a:	00000297          	auipc	t0,0x0
     85e:	0b828293          	addi	t0,t0,184 # 912 <main>
     862:	34129073          	csrw	mepc,t0
     866:	30200073          	mret

0000086a <memset>:
     86a:	433d                	li	t1,15
     86c:	872a                	mv	a4,a0
     86e:	02c37363          	bgeu	t1,a2,894 <memset+0x2a>
     872:	00f77793          	andi	a5,a4,15
     876:	efbd                	bnez	a5,8f4 <memset+0x8a>
     878:	e5ad                	bnez	a1,8e2 <memset+0x78>
     87a:	ff067693          	andi	a3,a2,-16
     87e:	8a3d                	andi	a2,a2,15
     880:	96ba                	add	a3,a3,a4
     882:	c30c                	sw	a1,0(a4)
     884:	c34c                	sw	a1,4(a4)
     886:	c70c                	sw	a1,8(a4)
     888:	c74c                	sw	a1,12(a4)
     88a:	0741                	addi	a4,a4,16
     88c:	fed76be3          	bltu	a4,a3,882 <memset+0x18>
     890:	e211                	bnez	a2,894 <memset+0x2a>
     892:	8082                	ret
     894:	40c306b3          	sub	a3,t1,a2
     898:	068a                	slli	a3,a3,0x2
     89a:	00000297          	auipc	t0,0x0
     89e:	9696                	add	a3,a3,t0
     8a0:	00a68067          	jr	10(a3) # 10000a <_data_lma+0xf6206>
     8a4:	00b70723          	sb	a1,14(a4) # 8000e <_data_lma+0x7620a>
     8a8:	00b706a3          	sb	a1,13(a4)
     8ac:	00b70623          	sb	a1,12(a4)
     8b0:	00b705a3          	sb	a1,11(a4)
     8b4:	00b70523          	sb	a1,10(a4)
     8b8:	00b704a3          	sb	a1,9(a4)
     8bc:	00b70423          	sb	a1,8(a4)
     8c0:	00b703a3          	sb	a1,7(a4)
     8c4:	00b70323          	sb	a1,6(a4)
     8c8:	00b702a3          	sb	a1,5(a4)
     8cc:	00b70223          	sb	a1,4(a4)
     8d0:	00b701a3          	sb	a1,3(a4)
     8d4:	00b70123          	sb	a1,2(a4)
     8d8:	00b700a3          	sb	a1,1(a4)
     8dc:	00b70023          	sb	a1,0(a4)
     8e0:	8082                	ret
     8e2:	0ff5f593          	andi	a1,a1,255
     8e6:	00859693          	slli	a3,a1,0x8
     8ea:	8dd5                	or	a1,a1,a3
     8ec:	01059693          	slli	a3,a1,0x10
     8f0:	8dd5                	or	a1,a1,a3
     8f2:	b761                	j	87a <memset+0x10>
     8f4:	00279693          	slli	a3,a5,0x2
     8f8:	00000297          	auipc	t0,0x0
     8fc:	9696                	add	a3,a3,t0
     8fe:	8286                	mv	t0,ra
     900:	fa8680e7          	jalr	-88(a3)
     904:	8096                	mv	ra,t0
     906:	17c1                	addi	a5,a5,-16
     908:	8f1d                	sub	a4,a4,a5
     90a:	963e                	add	a2,a2,a5
     90c:	f8c374e3          	bgeu	t1,a2,894 <memset+0x2a>
     910:	b7a5                	j	878 <memset+0xe>

00000912 <main>:
     912:	1101                	addi	sp,sp,-32
     914:	04800513          	li	a0,72
     918:	ce06                	sw	ra,28(sp)
     91a:	c602                	sw	zero,12(sp)
     91c:	20000097          	auipc	ra,0x20000
     920:	874080e7          	jalr	-1932(ra) # 20000190 <SetSysClock>
     924:	40001737          	lui	a4,0x40001
     928:	0a872783          	lw	a5,168(a4) # 400010a8 <_eusrstack+0x1fff90a8>
     92c:	4585                	li	a1,1
     92e:	10000513          	li	a0,256
     932:	2007e793          	ori	a5,a5,512
     936:	0af72423          	sw	a5,168(a4)
     93a:	2f1000ef          	jal	ra,142a <GPIOA_ModeCfg>
     93e:	458d                	li	a1,3
     940:	20000513          	li	a0,512
     944:	2e7000ef          	jal	ra,142a <GPIOA_ModeCfg>
     948:	437000ef          	jal	ra,157e <UART1_DefInit>
     94c:	22b9                	jal	a9a <slave_init>
     94e:	29c5                	jal	e3e <read_command>
     950:	4515                	li	a0,5
     952:	2cb000ef          	jal	ra,141c <mdc02_channel>
     956:	00009797          	auipc	a5,0x9
     95a:	e0e78793          	addi	a5,a5,-498 # 9764 <_sbrk+0x20>
     95e:	438c                	lw	a1,0(a5)
     960:	00000513          	li	a0,0
     964:	231000ef          	jal	ra,1394 <mdc02_range>
     968:	149000ef          	jal	ra,12b0 <read_cap>
     96c:	0001                	nop
     96e:	bfed                	j	968 <main+0x56>

00000970 <ow_delay_us>:
     970:	1141                	addi	sp,sp,-16
     972:	c606                	sw	ra,12(sp)
     974:	c422                	sw	s0,8(sp)
     976:	8001a423          	sw	zero,-2040(gp) # 200009d8 <_edata>
     97a:	842a                	mv	s0,a0
     97c:	355000ef          	jal	ra,14d0 <GetSysClock>
     980:	000f47b7          	lui	a5,0xf4
     984:	24078793          	addi	a5,a5,576 # f4240 <_data_lma+0xea43c>
     988:	02f55533          	divu	a0,a0,a5
     98c:	02850533          	mul	a0,a0,s0
     990:	3ab000ef          	jal	ra,153a <TMR0_TimerInit>
     994:	80818713          	addi	a4,gp,-2040 # 200009d8 <_edata>
     998:	431c                	lw	a5,0(a4)
     99a:	dffd                	beqz	a5,998 <ow_delay_us+0x28>
     99c:	40002737          	lui	a4,0x40002
     9a0:	00074783          	lbu	a5,0(a4) # 40002000 <_eusrstack+0x1fffa000>
     9a4:	4501                	li	a0,0
     9a6:	0fb7f793          	andi	a5,a5,251
     9aa:	00f70023          	sb	a5,0(a4)
     9ae:	40b2                	lw	ra,12(sp)
     9b0:	4422                	lw	s0,8(sp)
     9b2:	0141                	addi	sp,sp,16
     9b4:	8082                	ret

000009b6 <check_ack>:
     9b6:	1141                	addi	sp,sp,-16
     9b8:	c422                	sw	s0,8(sp)
     9ba:	c226                	sw	s1,4(sp)
     9bc:	c606                	sw	ra,12(sp)
     9be:	c04a                	sw	s2,0(sp)
     9c0:	03c00413          	li	s0,60
     9c4:	400014b7          	lui	s1,0x40001
     9c8:	0a44a783          	lw	a5,164(s1) # 400010a4 <_eusrstack+0x1fff90a4>
     9cc:	8b89                	andi	a5,a5,2
     9ce:	e785                	bnez	a5,9f6 <check_ack+0x40>
     9d0:	4401                	li	s0,0
     9d2:	400014b7          	lui	s1,0x40001
     9d6:	0f000913          	li	s2,240
     9da:	0a44a783          	lw	a5,164(s1) # 400010a4 <_eusrstack+0x1fff90a4>
     9de:	8b89                	andi	a5,a5,2
     9e0:	cf85                	beqz	a5,a18 <check_ack+0x62>
     9e2:	03b00793          	li	a5,59
     9e6:	4501                	li	a0,0
     9e8:	0287c263          	blt	a5,s0,a0c <check_ack+0x56>
     9ec:	00009517          	auipc	a0,0x9
     9f0:	e1050513          	addi	a0,a0,-496 # 97fc <COS_Factor+0x78>
     9f4:	a809                	j	a06 <check_ack+0x50>
     9f6:	4505                	li	a0,1
     9f8:	147d                	addi	s0,s0,-1
     9fa:	3f9d                	jal	970 <ow_delay_us>
     9fc:	f471                	bnez	s0,9c8 <check_ack+0x12>
     9fe:	00009517          	auipc	a0,0x9
     a02:	dc250513          	addi	a0,a0,-574 # 97c0 <COS_Factor+0x3c>
     a06:	34c010ef          	jal	ra,1d52 <puts>
     a0a:	4505                	li	a0,1
     a0c:	40b2                	lw	ra,12(sp)
     a0e:	4422                	lw	s0,8(sp)
     a10:	4492                	lw	s1,4(sp)
     a12:	4902                	lw	s2,0(sp)
     a14:	0141                	addi	sp,sp,16
     a16:	8082                	ret
     a18:	4529                	li	a0,10
     a1a:	0429                	addi	s0,s0,10
     a1c:	3f91                	jal	970 <ow_delay_us>
     a1e:	fb241ee3          	bne	s0,s2,9da <check_ack+0x24>
     a22:	00009517          	auipc	a0,0x9
     a26:	dba50513          	addi	a0,a0,-582 # 97dc <COS_Factor+0x58>
     a2a:	bff1                	j	a06 <check_ack+0x50>

00000a2c <onewire_reset>:
     a2c:	1141                	addi	sp,sp,-16
     a2e:	458d                	li	a1,3
     a30:	4509                	li	a0,2
     a32:	c606                	sw	ra,12(sp)
     a34:	c422                	sw	s0,8(sp)
     a36:	1f5000ef          	jal	ra,142a <GPIOA_ModeCfg>
     a3a:	40001437          	lui	s0,0x40001
     a3e:	0ac42783          	lw	a5,172(s0) # 400010ac <_eusrstack+0x1fff90ac>
     a42:	1f400513          	li	a0,500
     a46:	0027e793          	ori	a5,a5,2
     a4a:	0af42623          	sw	a5,172(s0)
     a4e:	370d                	jal	970 <ow_delay_us>
     a50:	0a842783          	lw	a5,168(s0)
     a54:	40b2                	lw	ra,12(sp)
     a56:	4585                	li	a1,1
     a58:	0027e793          	ori	a5,a5,2
     a5c:	0af42423          	sw	a5,168(s0)
     a60:	4422                	lw	s0,8(sp)
     a62:	4509                	li	a0,2
     a64:	0141                	addi	sp,sp,16
     a66:	1c50006f          	j	142a <GPIOA_ModeCfg>

00000a6a <onewire_resetcheck>:
     a6a:	1141                	addi	sp,sp,-16
     a6c:	c606                	sw	ra,12(sp)
     a6e:	c422                	sw	s0,8(sp)
     a70:	3f75                	jal	a2c <onewire_reset>
     a72:	3791                	jal	9b6 <check_ack>
     a74:	0ff57793          	andi	a5,a0,255
     a78:	842a                	mv	s0,a0
     a7a:	c799                	beqz	a5,a88 <onewire_resetcheck+0x1e>
     a7c:	00009517          	auipc	a0,0x9
     a80:	dec50513          	addi	a0,a0,-532 # 9868 <COS_Factor+0xe4>
     a84:	2ce010ef          	jal	ra,1d52 <puts>
     a88:	0f000513          	li	a0,240
     a8c:	35d5                	jal	970 <ow_delay_us>
     a8e:	0ff47513          	andi	a0,s0,255
     a92:	40b2                	lw	ra,12(sp)
     a94:	4422                	lw	s0,8(sp)
     a96:	0141                	addi	sp,sp,16
     a98:	8082                	ret

00000a9a <slave_init>:
     a9a:	1141                	addi	sp,sp,-16
     a9c:	c606                	sw	ra,12(sp)
     a9e:	40002737          	lui	a4,0x40002
     aa2:	00274783          	lbu	a5,2(a4) # 40002002 <_eusrstack+0x1fffa002>
     aa6:	06400513          	li	a0,100
     aaa:	0017e793          	ori	a5,a5,1
     aae:	00f70123          	sb	a5,2(a4)
     ab2:	e000e7b7          	lui	a5,0xe000e
     ab6:	6741                	lui	a4,0x10
     ab8:	10e7a023          	sw	a4,256(a5) # e000e100 <_eusrstack+0xc0006100>
     abc:	3d55                	jal	970 <ow_delay_us>
     abe:	458d                	li	a1,3
     ac0:	4509                	li	a0,2
     ac2:	169000ef          	jal	ra,142a <GPIOA_ModeCfg>
     ac6:	40001737          	lui	a4,0x40001
     aca:	0a872783          	lw	a5,168(a4) # 400010a8 <_eusrstack+0x1fff90a8>
     ace:	40b2                	lw	ra,12(sp)
     ad0:	0027e793          	ori	a5,a5,2
     ad4:	0af72423          	sw	a5,168(a4)
     ad8:	0141                	addi	sp,sp,16
     ada:	bf41                	j	a6a <onewire_resetcheck>

00000adc <onewire_writebit>:
     adc:	1141                	addi	sp,sp,-16
     ade:	c226                	sw	s1,4(sp)
     ae0:	458d                	li	a1,3
     ae2:	84aa                	mv	s1,a0
     ae4:	4509                	li	a0,2
     ae6:	c422                	sw	s0,8(sp)
     ae8:	c606                	sw	ra,12(sp)
     aea:	40001437          	lui	s0,0x40001
     aee:	13d000ef          	jal	ra,142a <GPIOA_ModeCfg>
     af2:	0ac42783          	lw	a5,172(s0) # 400010ac <_eusrstack+0x1fff90ac>
     af6:	03c00513          	li	a0,60
     afa:	0027e793          	ori	a5,a5,2
     afe:	0af42623          	sw	a5,172(s0)
     b02:	c899                	beqz	s1,b18 <onewire_writebit+0x3c>
     b04:	453d                	li	a0,15
     b06:	35ad                	jal	970 <ow_delay_us>
     b08:	0a842783          	lw	a5,168(s0)
     b0c:	03200513          	li	a0,50
     b10:	0027e793          	ori	a5,a5,2
     b14:	0af42423          	sw	a5,168(s0)
     b18:	3da1                	jal	970 <ow_delay_us>
     b1a:	40001737          	lui	a4,0x40001
     b1e:	0a872783          	lw	a5,168(a4) # 400010a8 <_eusrstack+0x1fff90a8>
     b22:	4422                	lw	s0,8(sp)
     b24:	40b2                	lw	ra,12(sp)
     b26:	4492                	lw	s1,4(sp)
     b28:	0027e793          	ori	a5,a5,2
     b2c:	0af72423          	sw	a5,168(a4)
     b30:	4509                	li	a0,2
     b32:	0141                	addi	sp,sp,16
     b34:	bd35                	j	970 <ow_delay_us>

00000b36 <onewire_writebyte>:
     b36:	1141                	addi	sp,sp,-16
     b38:	c422                	sw	s0,8(sp)
     b3a:	c226                	sw	s1,4(sp)
     b3c:	c606                	sw	ra,12(sp)
     b3e:	84aa                	mv	s1,a0
     b40:	4421                	li	s0,8
     b42:	147d                	addi	s0,s0,-1
     b44:	0014f513          	andi	a0,s1,1
     b48:	0ff47413          	andi	s0,s0,255
     b4c:	3f41                	jal	adc <onewire_writebit>
     b4e:	8485                	srai	s1,s1,0x1
     b50:	f86d                	bnez	s0,b42 <onewire_writebyte+0xc>
     b52:	40b2                	lw	ra,12(sp)
     b54:	4422                	lw	s0,8(sp)
     b56:	4492                	lw	s1,4(sp)
     b58:	0141                	addi	sp,sp,16
     b5a:	8082                	ret

00000b5c <onewire_readbit>:
     b5c:	1141                	addi	sp,sp,-16
     b5e:	458d                	li	a1,3
     b60:	4509                	li	a0,2
     b62:	c606                	sw	ra,12(sp)
     b64:	c422                	sw	s0,8(sp)
     b66:	c226                	sw	s1,4(sp)
     b68:	0c3000ef          	jal	ra,142a <GPIOA_ModeCfg>
     b6c:	400014b7          	lui	s1,0x40001
     b70:	0ac4a783          	lw	a5,172(s1) # 400010ac <_eusrstack+0x1fff90ac>
     b74:	4509                	li	a0,2
     b76:	0027e793          	ori	a5,a5,2
     b7a:	0af4a623          	sw	a5,172(s1)
     b7e:	3bcd                	jal	970 <ow_delay_us>
     b80:	0a84a783          	lw	a5,168(s1)
     b84:	4585                	li	a1,1
     b86:	4509                	li	a0,2
     b88:	0027e793          	ori	a5,a5,2
     b8c:	0af4a423          	sw	a5,168(s1)
     b90:	09b000ef          	jal	ra,142a <GPIOA_ModeCfg>
     b94:	4515                	li	a0,5
     b96:	3be9                	jal	970 <ow_delay_us>
     b98:	0a44a403          	lw	s0,164(s1)
     b9c:	8809                	andi	s0,s0,2
     b9e:	e809                	bnez	s0,bb0 <onewire_readbit+0x54>
     ba0:	4511                	li	a0,4
     ba2:	33f9                	jal	970 <ow_delay_us>
     ba4:	0a44a783          	lw	a5,164(s1)
     ba8:	8b89                	andi	a5,a5,2
     baa:	e781                	bnez	a5,bb2 <onewire_readbit+0x56>
     bac:	547d                	li	s0,-1
     bae:	a029                	j	bb8 <onewire_readbit+0x5c>
     bb0:	4405                	li	s0,1
     bb2:	03c00513          	li	a0,60
     bb6:	3b6d                	jal	970 <ow_delay_us>
     bb8:	8522                	mv	a0,s0
     bba:	40b2                	lw	ra,12(sp)
     bbc:	4422                	lw	s0,8(sp)
     bbe:	4492                	lw	s1,4(sp)
     bc0:	0141                	addi	sp,sp,16
     bc2:	8082                	ret

00000bc4 <onewire_read>:
     bc4:	1141                	addi	sp,sp,-16
     bc6:	c422                	sw	s0,8(sp)
     bc8:	c226                	sw	s1,4(sp)
     bca:	c606                	sw	ra,12(sp)
     bcc:	44a1                	li	s1,8
     bce:	4401                	li	s0,0
     bd0:	8005                	srli	s0,s0,0x1
     bd2:	3769                	jal	b5c <onewire_readbit>
     bd4:	c509                	beqz	a0,bde <onewire_read+0x1a>
     bd6:	f8046413          	ori	s0,s0,-128
     bda:	0ff47413          	andi	s0,s0,255
     bde:	14fd                	addi	s1,s1,-1
     be0:	0ff4f493          	andi	s1,s1,255
     be4:	f4f5                	bnez	s1,bd0 <onewire_read+0xc>
     be6:	8522                	mv	a0,s0
     be8:	40b2                	lw	ra,12(sp)
     bea:	4422                	lw	s0,8(sp)
     bec:	4492                	lw	s1,4(sp)
     bee:	0141                	addi	sp,sp,16
     bf0:	8082                	ret

00000bf2 <cfbcfgtocaprange>:
     bf2:	1101                	addi	sp,sp,-32
     bf4:	00009797          	auipc	a5,0x9
     bf8:	bbc78793          	addi	a5,a5,-1092 # 97b0 <COS_Factor+0x2c>
     bfc:	ca26                	sw	s1,20(sp)
     bfe:	84aa                	mv	s1,a0
     c00:	4388                	lw	a0,0(a5)
     c02:	cc22                	sw	s0,24(sp)
     c04:	c84a                	sw	s2,16(sp)
     c06:	c64e                	sw	s3,12(sp)
     c08:	ce06                	sw	ra,28(sp)
     c0a:	4405                	li	s0,1
     c0c:	00009997          	auipc	s3,0x9
     c10:	b5c98993          	addi	s3,s3,-1188 # 9768 <CFB>
     c14:	491d                	li	s2,7
     c16:	0014f793          	andi	a5,s1,1
     c1a:	c799                	beqz	a5,c28 <cfbcfgtocaprange+0x36>
     c1c:	00241793          	slli	a5,s0,0x2
     c20:	97ce                	add	a5,a5,s3
     c22:	438c                	lw	a1,0(a5)
     c24:	466030ef          	jal	ra,408a <__addsf3>
     c28:	0405                	addi	s0,s0,1
     c2a:	8085                	srli	s1,s1,0x1
     c2c:	ff2415e3          	bne	s0,s2,c16 <cfbcfgtocaprange+0x24>
     c30:	6ef030ef          	jal	ra,4b1e <__extendsfdf2>
     c34:	00009797          	auipc	a5,0x9
     c38:	b8478793          	addi	a5,a5,-1148 # 97b8 <COS_Factor+0x34>
     c3c:	4390                	lw	a2,0(a5)
     c3e:	43d4                	lw	a3,4(a5)
     c40:	570020ef          	jal	ra,31b0 <__muldf3>
     c44:	787030ef          	jal	ra,4bca <__truncdfsf2>
     c48:	40f2                	lw	ra,28(sp)
     c4a:	4462                	lw	s0,24(sp)
     c4c:	44d2                	lw	s1,20(sp)
     c4e:	4942                	lw	s2,16(sp)
     c50:	49b2                	lw	s3,12(sp)
     c52:	6105                	addi	sp,sp,32
     c54:	8082                	ret

00000c56 <coscfgtocapoffset>:
     c56:	1101                	addi	sp,sp,-32
     c58:	cc22                	sw	s0,24(sp)
     c5a:	ca26                	sw	s1,20(sp)
     c5c:	c84a                	sw	s2,16(sp)
     c5e:	c64e                	sw	s3,12(sp)
     c60:	84aa                	mv	s1,a0
     c62:	ce06                	sw	ra,28(sp)
     c64:	4401                	li	s0,0
     c66:	00000513          	li	a0,0
     c6a:	00009997          	auipc	s3,0x9
     c6e:	b1a98993          	addi	s3,s3,-1254 # 9784 <COS_Factor>
     c72:	4921                	li	s2,8
     c74:	0014f793          	andi	a5,s1,1
     c78:	c799                	beqz	a5,c86 <coscfgtocapoffset+0x30>
     c7a:	00241793          	slli	a5,s0,0x2
     c7e:	97ce                	add	a5,a5,s3
     c80:	438c                	lw	a1,0(a5)
     c82:	408030ef          	jal	ra,408a <__addsf3>
     c86:	0405                	addi	s0,s0,1
     c88:	8085                	srli	s1,s1,0x1
     c8a:	ff2415e3          	bne	s0,s2,c74 <coscfgtocapoffset+0x1e>
     c8e:	40f2                	lw	ra,28(sp)
     c90:	4462                	lw	s0,24(sp)
     c92:	44d2                	lw	s1,20(sp)
     c94:	4942                	lw	s2,16(sp)
     c96:	49b2                	lw	s3,12(sp)
     c98:	6105                	addi	sp,sp,32
     c9a:	8082                	ret

00000c9c <captocoscfg>:
     c9c:	1101                	addi	sp,sp,-32
     c9e:	cc22                	sw	s0,24(sp)
     ca0:	ca26                	sw	s1,20(sp)
     ca2:	c84a                	sw	s2,16(sp)
     ca4:	c64e                	sw	s3,12(sp)
     ca6:	c256                	sw	s5,4(sp)
     ca8:	c05a                	sw	s6,0(sp)
     caa:	ce06                	sw	ra,28(sp)
     cac:	c452                	sw	s4,8(sp)
     cae:	89aa                	mv	s3,a0
     cb0:	00009917          	auipc	s2,0x9
     cb4:	ad490913          	addi	s2,s2,-1324 # 9784 <COS_Factor>
     cb8:	4401                	li	s0,0
     cba:	449d                	li	s1,7
     cbc:	4b05                	li	s6,1
     cbe:	5afd                	li	s5,-1
     cc0:	01c92a03          	lw	s4,28(s2)
     cc4:	85ce                	mv	a1,s3
     cc6:	8552                	mv	a0,s4
     cc8:	7b2030ef          	jal	ra,447a <__lesf2>
     ccc:	00a04c63          	bgtz	a0,ce4 <captocoscfg+0x48>
     cd0:	009b17b3          	sll	a5,s6,s1
     cd4:	854e                	mv	a0,s3
     cd6:	85d2                	mv	a1,s4
     cd8:	8c5d                	or	s0,s0,a5
     cda:	2bd030ef          	jal	ra,4796 <__subsf3>
     cde:	0ff47413          	andi	s0,s0,255
     ce2:	89aa                	mv	s3,a0
     ce4:	14fd                	addi	s1,s1,-1
     ce6:	1971                	addi	s2,s2,-4
     ce8:	fd549ce3          	bne	s1,s5,cc0 <captocoscfg+0x24>
     cec:	8522                	mv	a0,s0
     cee:	40f2                	lw	ra,28(sp)
     cf0:	4462                	lw	s0,24(sp)
     cf2:	44d2                	lw	s1,20(sp)
     cf4:	4942                	lw	s2,16(sp)
     cf6:	49b2                	lw	s3,12(sp)
     cf8:	4a22                	lw	s4,8(sp)
     cfa:	4a92                	lw	s5,4(sp)
     cfc:	4b02                	lw	s6,0(sp)
     cfe:	6105                	addi	sp,sp,32
     d00:	8082                	ret

00000d02 <caprangetocfbcfg>:
     d02:	1101                	addi	sp,sp,-32
     d04:	ce06                	sw	ra,28(sp)
     d06:	cc22                	sw	s0,24(sp)
     d08:	ca26                	sw	s1,20(sp)
     d0a:	c84a                	sw	s2,16(sp)
     d0c:	c64e                	sw	s3,12(sp)
     d0e:	c256                	sw	s5,4(sp)
     d10:	c05a                	sw	s6,0(sp)
     d12:	c452                	sw	s4,8(sp)
     d14:	60b030ef          	jal	ra,4b1e <__extendsfdf2>
     d18:	00009797          	auipc	a5,0x9
     d1c:	a9078793          	addi	a5,a5,-1392 # 97a8 <COS_Factor+0x24>
     d20:	4390                	lw	a2,0(a5)
     d22:	43d4                	lw	a3,4(a5)
     d24:	00009917          	auipc	s2,0x9
     d28:	a4490913          	addi	s2,s2,-1468 # 9768 <CFB>
     d2c:	4495                	li	s1,5
     d2e:	482020ef          	jal	ra,31b0 <__muldf3>
     d32:	699030ef          	jal	ra,4bca <__truncdfsf2>
     d36:	00009797          	auipc	a5,0x9
     d3a:	a7a78793          	addi	a5,a5,-1414 # 97b0 <COS_Factor+0x2c>
     d3e:	438c                	lw	a1,0(a5)
     d40:	4401                	li	s0,0
     d42:	4b05                	li	s6,1
     d44:	253030ef          	jal	ra,4796 <__subsf3>
     d48:	89aa                	mv	s3,a0
     d4a:	5afd                	li	s5,-1
     d4c:	01892a03          	lw	s4,24(s2)
     d50:	85ce                	mv	a1,s3
     d52:	8552                	mv	a0,s4
     d54:	726030ef          	jal	ra,447a <__lesf2>
     d58:	00a04c63          	bgtz	a0,d70 <caprangetocfbcfg+0x6e>
     d5c:	854e                	mv	a0,s3
     d5e:	85d2                	mv	a1,s4
     d60:	237030ef          	jal	ra,4796 <__subsf3>
     d64:	009b17b3          	sll	a5,s6,s1
     d68:	8c5d                	or	s0,s0,a5
     d6a:	89aa                	mv	s3,a0
     d6c:	0ff47413          	andi	s0,s0,255
     d70:	14fd                	addi	s1,s1,-1
     d72:	1971                	addi	s2,s2,-4
     d74:	fd549ce3          	bne	s1,s5,d4c <caprangetocfbcfg+0x4a>
     d78:	8522                	mv	a0,s0
     d7a:	40f2                	lw	ra,28(sp)
     d7c:	4462                	lw	s0,24(sp)
     d7e:	44d2                	lw	s1,20(sp)
     d80:	4942                	lw	s2,16(sp)
     d82:	49b2                	lw	s3,12(sp)
     d84:	4a22                	lw	s4,8(sp)
     d86:	4a92                	lw	s5,4(sp)
     d88:	4b02                	lw	s6,0(sp)
     d8a:	6105                	addi	sp,sp,32
     d8c:	8082                	ret

00000d8e <mdc02_outputtocap>:
     d8e:	1101                	addi	sp,sp,-32
     d90:	ce06                	sw	ra,28(sp)
     d92:	cc22                	sw	s0,24(sp)
     d94:	ca26                	sw	s1,20(sp)
     d96:	c84a                	sw	s2,16(sp)
     d98:	c64e                	sw	s3,12(sp)
     d9a:	892e                	mv	s2,a1
     d9c:	89b2                	mv	s3,a2
     d9e:	008030ef          	jal	ra,3da6 <__floatsidf>
     da2:	00009797          	auipc	a5,0x9
     da6:	aae78793          	addi	a5,a5,-1362 # 9850 <COS_Factor+0xcc>
     daa:	4390                	lw	a2,0(a5)
     dac:	43d4                	lw	a3,4(a5)
     dae:	64f010ef          	jal	ra,2bfc <__divdf3>
     db2:	00009797          	auipc	a5,0x9
     db6:	aa678793          	addi	a5,a5,-1370 # 9858 <COS_Factor+0xd4>
     dba:	4390                	lw	a2,0(a5)
     dbc:	43d4                	lw	a3,4(a5)
     dbe:	0ab020ef          	jal	ra,3668 <__subdf3>
     dc2:	862a                	mv	a2,a0
     dc4:	86ae                	mv	a3,a1
     dc6:	706010ef          	jal	ra,24cc <__adddf3>
     dca:	842a                	mv	s0,a0
     dcc:	854e                	mv	a0,s3
     dce:	84ae                	mv	s1,a1
     dd0:	54f030ef          	jal	ra,4b1e <__extendsfdf2>
     dd4:	862a                	mv	a2,a0
     dd6:	86ae                	mv	a3,a1
     dd8:	8522                	mv	a0,s0
     dda:	85a6                	mv	a1,s1
     ddc:	3d4020ef          	jal	ra,31b0 <__muldf3>
     de0:	842a                	mv	s0,a0
     de2:	854a                	mv	a0,s2
     de4:	84ae                	mv	s1,a1
     de6:	539030ef          	jal	ra,4b1e <__extendsfdf2>
     dea:	862a                	mv	a2,a0
     dec:	86ae                	mv	a3,a1
     dee:	8522                	mv	a0,s0
     df0:	85a6                	mv	a1,s1
     df2:	6da010ef          	jal	ra,24cc <__adddf3>
     df6:	5d5030ef          	jal	ra,4bca <__truncdfsf2>
     dfa:	40f2                	lw	ra,28(sp)
     dfc:	4462                	lw	s0,24(sp)
     dfe:	44d2                	lw	s1,20(sp)
     e00:	4942                	lw	s2,16(sp)
     e02:	49b2                	lw	s3,12(sp)
     e04:	6105                	addi	sp,sp,32
     e06:	8082                	ret

00000e08 <onewire_crc8>:
     e08:	4681                	li	a3,0
     e0a:	95aa                	add	a1,a1,a0
     e0c:	4781                	li	a5,0
     e0e:	00b51463          	bne	a0,a1,e16 <onewire_crc8+0xe>
     e12:	853e                	mv	a0,a5
     e14:	8082                	ret
     e16:	0505                	addi	a0,a0,1
     e18:	fff54703          	lbu	a4,-1(a0)
     e1c:	8fb9                	xor	a5,a5,a4
     e1e:	4721                	li	a4,8
     e20:	00d7c633          	xor	a2,a5,a3
     e24:	8a05                	andi	a2,a2,1
     e26:	8385                	srli	a5,a5,0x1
     e28:	c609                	beqz	a2,e32 <onewire_crc8+0x2a>
     e2a:	f8c7c793          	xori	a5,a5,-116
     e2e:	0ff7f793          	andi	a5,a5,255
     e32:	177d                	addi	a4,a4,-1
     e34:	0ff77713          	andi	a4,a4,255
     e38:	8285                	srli	a3,a3,0x1
     e3a:	f37d                	bnez	a4,e20 <onewire_crc8+0x18>
     e3c:	bfc9                	j	e0e <onewire_crc8+0x6>

00000e3e <read_command>:
     e3e:	1141                	addi	sp,sp,-16
     e40:	05500513          	li	a0,85
     e44:	c606                	sw	ra,12(sp)
     e46:	39c5                	jal	b36 <onewire_writebyte>
     e48:	02800513          	li	a0,40
     e4c:	31ed                	jal	b36 <onewire_writebyte>
     e4e:	f9500513          	li	a0,-107
     e52:	31d5                	jal	b36 <onewire_writebyte>
     e54:	4505                	li	a0,1
     e56:	31c5                	jal	b36 <onewire_writebyte>
     e58:	07600513          	li	a0,118
     e5c:	39e9                	jal	b36 <onewire_writebyte>
     e5e:	04400513          	li	a0,68
     e62:	39d1                	jal	b36 <onewire_writebyte>
     e64:	5555                	li	a0,-11
     e66:	39c1                	jal	b36 <onewire_writebyte>
     e68:	4501                	li	a0,0
     e6a:	31f1                	jal	b36 <onewire_writebyte>
     e6c:	40b2                	lw	ra,12(sp)
     e6e:	4501                	li	a0,0
     e70:	0141                	addi	sp,sp,16
     e72:	b1d1                	j	b36 <onewire_writebyte>

00000e74 <mdc02_writeparameters_skiprom>:
     e74:	1141                	addi	sp,sp,-16
     e76:	c422                	sw	s0,8(sp)
     e78:	c606                	sw	ra,12(sp)
     e7a:	c226                	sw	s1,4(sp)
     e7c:	842a                	mv	s0,a0
     e7e:	36f5                	jal	a6a <onewire_resetcheck>
     e80:	e505                	bnez	a0,ea8 <mdc02_writeparameters_skiprom+0x34>
     e82:	3f75                	jal	e3e <read_command>
     e84:	fab00513          	li	a0,-85
     e88:	317d                	jal	b36 <onewire_writebyte>
     e8a:	00f40493          	addi	s1,s0,15
     e8e:	00849863          	bne	s1,s0,e9e <mdc02_writeparameters_skiprom+0x2a>
     e92:	4505                	li	a0,1
     e94:	40b2                	lw	ra,12(sp)
     e96:	4422                	lw	s0,8(sp)
     e98:	4492                	lw	s1,4(sp)
     e9a:	0141                	addi	sp,sp,16
     e9c:	8082                	ret
     e9e:	0405                	addi	s0,s0,1
     ea0:	fff40503          	lb	a0,-1(s0)
     ea4:	3949                	jal	b36 <onewire_writebyte>
     ea6:	b7e5                	j	e8e <mdc02_writeparameters_skiprom+0x1a>
     ea8:	4501                	li	a0,0
     eaa:	b7ed                	j	e94 <mdc02_writeparameters_skiprom+0x20>

00000eac <mdc02_readparameters_skiprom>:
     eac:	1141                	addi	sp,sp,-16
     eae:	c422                	sw	s0,8(sp)
     eb0:	c606                	sw	ra,12(sp)
     eb2:	c226                	sw	s1,4(sp)
     eb4:	842a                	mv	s0,a0
     eb6:	3e55                	jal	a6a <onewire_resetcheck>
     eb8:	e505                	bnez	a0,ee0 <mdc02_readparameters_skiprom+0x34>
     eba:	3751                	jal	e3e <read_command>
     ebc:	f8b00513          	li	a0,-117
     ec0:	399d                	jal	b36 <onewire_writebyte>
     ec2:	00f40493          	addi	s1,s0,15
     ec6:	00849863          	bne	s1,s0,ed6 <mdc02_readparameters_skiprom+0x2a>
     eca:	4505                	li	a0,1
     ecc:	40b2                	lw	ra,12(sp)
     ece:	4422                	lw	s0,8(sp)
     ed0:	4492                	lw	s1,4(sp)
     ed2:	0141                	addi	sp,sp,16
     ed4:	8082                	ret
     ed6:	0405                	addi	s0,s0,1
     ed8:	31f5                	jal	bc4 <onewire_read>
     eda:	fea40fa3          	sb	a0,-1(s0)
     ede:	b7e5                	j	ec6 <mdc02_readparameters_skiprom+0x1a>
     ee0:	4501                	li	a0,0
     ee2:	b7ed                	j	ecc <mdc02_readparameters_skiprom+0x20>

00000ee4 <readcfbconfig>:
     ee4:	1101                	addi	sp,sp,-32
     ee6:	ca26                	sw	s1,20(sp)
     ee8:	84aa                	mv	s1,a0
     eea:	850a                	mv	a0,sp
     eec:	cc22                	sw	s0,24(sp)
     eee:	ce06                	sw	ra,28(sp)
     ef0:	c84a                	sw	s2,16(sp)
     ef2:	3f6d                	jal	eac <mdc02_readparameters_skiprom>
     ef4:	842a                	mv	s0,a0
     ef6:	cd11                	beqz	a0,f12 <readcfbconfig+0x2e>
     ef8:	00e14903          	lbu	s2,14(sp)
     efc:	45b9                	li	a1,14
     efe:	850a                	mv	a0,sp
     f00:	3721                	jal	e08 <onewire_crc8>
     f02:	00a91f63          	bne	s2,a0,f20 <readcfbconfig+0x3c>
     f06:	00914783          	lbu	a5,9(sp)
     f0a:	03f7f793          	andi	a5,a5,63
     f0e:	00f48023          	sb	a5,0(s1)
     f12:	8522                	mv	a0,s0
     f14:	40f2                	lw	ra,28(sp)
     f16:	4462                	lw	s0,24(sp)
     f18:	44d2                	lw	s1,20(sp)
     f1a:	4942                	lw	s2,16(sp)
     f1c:	6105                	addi	sp,sp,32
     f1e:	8082                	ret
     f20:	4401                	li	s0,0
     f22:	bfc5                	j	f12 <readcfbconfig+0x2e>

00000f24 <getcfg_caprange>:
     f24:	1101                	addi	sp,sp,-32
     f26:	cc22                	sw	s0,24(sp)
     f28:	842a                	mv	s0,a0
     f2a:	00f10513          	addi	a0,sp,15
     f2e:	ce06                	sw	ra,28(sp)
     f30:	3f55                	jal	ee4 <readcfbconfig>
     f32:	00f14503          	lbu	a0,15(sp)
     f36:	3975                	jal	bf2 <cfbcfgtocaprange>
     f38:	c008                	sw	a0,0(s0)
     f3a:	40f2                	lw	ra,28(sp)
     f3c:	4462                	lw	s0,24(sp)
     f3e:	6105                	addi	sp,sp,32
     f40:	8082                	ret

00000f42 <readcosconfig>:
     f42:	1101                	addi	sp,sp,-32
     f44:	ca26                	sw	s1,20(sp)
     f46:	84aa                	mv	s1,a0
     f48:	850a                	mv	a0,sp
     f4a:	cc22                	sw	s0,24(sp)
     f4c:	ce06                	sw	ra,28(sp)
     f4e:	c84a                	sw	s2,16(sp)
     f50:	3fb1                	jal	eac <mdc02_readparameters_skiprom>
     f52:	842a                	mv	s0,a0
     f54:	c51d                	beqz	a0,f82 <readcosconfig+0x40>
     f56:	00e14903          	lbu	s2,14(sp)
     f5a:	45b9                	li	a1,14
     f5c:	850a                	mv	a0,sp
     f5e:	356d                	jal	e08 <onewire_crc8>
     f60:	02a91863          	bne	s2,a0,f90 <readcosconfig+0x4e>
     f64:	00914703          	lbu	a4,9(sp)
     f68:	478d                	li	a5,3
     f6a:	8319                	srli	a4,a4,0x6
     f6c:	40e78733          	sub	a4,a5,a4
     f70:	0ff00793          	li	a5,255
     f74:	40e7d7b3          	sra	a5,a5,a4
     f78:	00414703          	lbu	a4,4(sp)
     f7c:	8ff9                	and	a5,a5,a4
     f7e:	00f48023          	sb	a5,0(s1)
     f82:	8522                	mv	a0,s0
     f84:	40f2                	lw	ra,28(sp)
     f86:	4462                	lw	s0,24(sp)
     f88:	44d2                	lw	s1,20(sp)
     f8a:	4942                	lw	s2,16(sp)
     f8c:	6105                	addi	sp,sp,32
     f8e:	8082                	ret
     f90:	4401                	li	s0,0
     f92:	bfc5                	j	f82 <readcosconfig+0x40>

00000f94 <getcfg_capoffset>:
     f94:	1101                	addi	sp,sp,-32
     f96:	cc22                	sw	s0,24(sp)
     f98:	842a                	mv	s0,a0
     f9a:	00f10513          	addi	a0,sp,15
     f9e:	ce06                	sw	ra,28(sp)
     fa0:	374d                	jal	f42 <readcosconfig>
     fa2:	00f14503          	lbu	a0,15(sp)
     fa6:	3945                	jal	c56 <coscfgtocapoffset>
     fa8:	c008                	sw	a0,0(s0)
     faa:	40f2                	lw	ra,28(sp)
     fac:	4462                	lw	s0,24(sp)
     fae:	6105                	addi	sp,sp,32
     fb0:	8082                	ret

00000fb2 <readcapconfigure>:
     fb2:	1101                	addi	sp,sp,-32
     fb4:	ce06                	sw	ra,28(sp)
     fb6:	c62e                	sw	a1,12(sp)
     fb8:	3ff1                	jal	f94 <getcfg_capoffset>
     fba:	45b2                	lw	a1,12(sp)
     fbc:	852e                	mv	a0,a1
     fbe:	379d                	jal	f24 <getcfg_caprange>
     fc0:	40f2                	lw	ra,28(sp)
     fc2:	4505                	li	a0,1
     fc4:	6105                	addi	sp,sp,32
     fc6:	8082                	ret

00000fc8 <setcapchannel>:
     fc8:	1101                	addi	sp,sp,-32
     fca:	ca26                	sw	s1,20(sp)
     fcc:	84aa                	mv	s1,a0
     fce:	850a                	mv	a0,sp
     fd0:	cc22                	sw	s0,24(sp)
     fd2:	ce06                	sw	ra,28(sp)
     fd4:	c84a                	sw	s2,16(sp)
     fd6:	3dd9                	jal	eac <mdc02_readparameters_skiprom>
     fd8:	842a                	mv	s0,a0
     fda:	c10d                	beqz	a0,ffc <setcapchannel+0x34>
     fdc:	00e14903          	lbu	s2,14(sp)
     fe0:	45b9                	li	a1,14
     fe2:	850a                	mv	a0,sp
     fe4:	3515                	jal	e08 <onewire_crc8>
     fe6:	02a91263          	bne	s2,a0,100a <setcapchannel+0x42>
     fea:	00314503          	lbu	a0,3(sp)
     fee:	889d                	andi	s1,s1,7
     ff0:	9961                	andi	a0,a0,-8
     ff2:	8d45                	or	a0,a0,s1
     ff4:	00a101a3          	sb	a0,3(sp)
     ff8:	850a                	mv	a0,sp
     ffa:	3dad                	jal	e74 <mdc02_writeparameters_skiprom>
     ffc:	8522                	mv	a0,s0
     ffe:	40f2                	lw	ra,28(sp)
    1000:	4462                	lw	s0,24(sp)
    1002:	44d2                	lw	s1,20(sp)
    1004:	4942                	lw	s2,16(sp)
    1006:	6105                	addi	sp,sp,32
    1008:	8082                	ret
    100a:	4401                	li	s0,0
    100c:	bfc5                	j	ffc <setcapchannel+0x34>

0000100e <writecosconfig>:
    100e:	7179                	addi	sp,sp,-48
    1010:	d04a                	sw	s2,32(sp)
    1012:	892a                	mv	s2,a0
    1014:	850a                	mv	a0,sp
    1016:	d422                	sw	s0,40(sp)
    1018:	d226                	sw	s1,36(sp)
    101a:	d606                	sw	ra,44(sp)
    101c:	ce4e                	sw	s3,28(sp)
    101e:	84ae                	mv	s1,a1
    1020:	3571                	jal	eac <mdc02_readparameters_skiprom>
    1022:	842a                	mv	s0,a0
    1024:	c11d                	beqz	a0,104a <writecosconfig+0x3c>
    1026:	00e14983          	lbu	s3,14(sp)
    102a:	45b9                	li	a1,14
    102c:	850a                	mv	a0,sp
    102e:	3be9                	jal	e08 <onewire_crc8>
    1030:	02a99563          	bne	s3,a0,105a <writecosconfig+0x4c>
    1034:	00914583          	lbu	a1,9(sp)
    1038:	850a                	mv	a0,sp
    103a:	01210223          	sb	s2,4(sp)
    103e:	03f5f593          	andi	a1,a1,63
    1042:	8dc5                	or	a1,a1,s1
    1044:	00b104a3          	sb	a1,9(sp)
    1048:	3535                	jal	e74 <mdc02_writeparameters_skiprom>
    104a:	8522                	mv	a0,s0
    104c:	50b2                	lw	ra,44(sp)
    104e:	5422                	lw	s0,40(sp)
    1050:	5492                	lw	s1,36(sp)
    1052:	5902                	lw	s2,32(sp)
    1054:	49f2                	lw	s3,28(sp)
    1056:	6145                	addi	sp,sp,48
    1058:	8082                	ret
    105a:	4401                	li	s0,0
    105c:	b7fd                	j	104a <writecosconfig+0x3c>

0000105e <mdc02_capconfigureoffset>:
    105e:	00008797          	auipc	a5,0x8
    1062:	7ba78793          	addi	a5,a5,1978 # 9818 <COS_Factor+0x94>
    1066:	438c                	lw	a1,0(a5)
    1068:	1141                	addi	sp,sp,-16
    106a:	c606                	sw	ra,12(sp)
    106c:	01e030ef          	jal	ra,408a <__addsf3>
    1070:	3135                	jal	c9c <captocoscfg>
    1072:	fe057793          	andi	a5,a0,-32
    1076:	4581                	li	a1,0
    1078:	cf89                	beqz	a5,1092 <mdc02_capconfigureoffset+0x34>
    107a:	fc057793          	andi	a5,a0,-64
    107e:	04000593          	li	a1,64
    1082:	cb81                	beqz	a5,1092 <mdc02_capconfigureoffset+0x34>
    1084:	f8057793          	andi	a5,a0,-128
    1088:	0c000593          	li	a1,192
    108c:	e399                	bnez	a5,1092 <mdc02_capconfigureoffset+0x34>
    108e:	08000593          	li	a1,128
    1092:	3fb5                	jal	100e <writecosconfig>
    1094:	40b2                	lw	ra,12(sp)
    1096:	4505                	li	a0,1
    1098:	0141                	addi	sp,sp,16
    109a:	8082                	ret

0000109c <writecfbconfig>:
    109c:	1101                	addi	sp,sp,-32
    109e:	ca26                	sw	s1,20(sp)
    10a0:	84aa                	mv	s1,a0
    10a2:	850a                	mv	a0,sp
    10a4:	cc22                	sw	s0,24(sp)
    10a6:	ce06                	sw	ra,28(sp)
    10a8:	c84a                	sw	s2,16(sp)
    10aa:	3509                	jal	eac <mdc02_readparameters_skiprom>
    10ac:	842a                	mv	s0,a0
    10ae:	c10d                	beqz	a0,10d0 <writecfbconfig+0x34>
    10b0:	00e14903          	lbu	s2,14(sp)
    10b4:	45b9                	li	a1,14
    10b6:	850a                	mv	a0,sp
    10b8:	3b81                	jal	e08 <onewire_crc8>
    10ba:	02a91263          	bne	s2,a0,10de <writecfbconfig+0x42>
    10be:	00914783          	lbu	a5,9(sp)
    10c2:	850a                	mv	a0,sp
    10c4:	fc07f793          	andi	a5,a5,-64
    10c8:	8cdd                	or	s1,s1,a5
    10ca:	009104a3          	sb	s1,9(sp)
    10ce:	335d                	jal	e74 <mdc02_writeparameters_skiprom>
    10d0:	8522                	mv	a0,s0
    10d2:	40f2                	lw	ra,28(sp)
    10d4:	4462                	lw	s0,24(sp)
    10d6:	44d2                	lw	s1,20(sp)
    10d8:	4942                	lw	s2,16(sp)
    10da:	6105                	addi	sp,sp,32
    10dc:	8082                	ret
    10de:	4401                	li	s0,0
    10e0:	bfc5                	j	10d0 <writecfbconfig+0x34>

000010e2 <mdc02_capconfigurefs>:
    10e2:	1141                	addi	sp,sp,-16
    10e4:	c606                	sw	ra,12(sp)
    10e6:	239030ef          	jal	ra,4b1e <__extendsfdf2>
    10ea:	00008797          	auipc	a5,0x8
    10ee:	72678793          	addi	a5,a5,1830 # 9810 <COS_Factor+0x8c>
    10f2:	4390                	lw	a2,0(a5)
    10f4:	43d4                	lw	a3,4(a5)
    10f6:	3d6010ef          	jal	ra,24cc <__adddf3>
    10fa:	2d1030ef          	jal	ra,4bca <__truncdfsf2>
    10fe:	3111                	jal	d02 <caprangetocfbcfg>
    1100:	3f71                	jal	109c <writecfbconfig>
    1102:	40b2                	lw	ra,12(sp)
    1104:	4505                	li	a0,1
    1106:	0141                	addi	sp,sp,16
    1108:	8082                	ret

0000110a <mdc02_capconfigurerange>:
    110a:	1141                	addi	sp,sp,-16
    110c:	c606                	sw	ra,12(sp)
    110e:	c422                	sw	s0,8(sp)
    1110:	c226                	sw	s1,4(sp)
    1112:	c04a                	sw	s2,0(sp)
    1114:	84ae                	mv	s1,a1
    1116:	892a                	mv	s2,a0
    1118:	00008417          	auipc	s0,0x8
    111c:	70440413          	addi	s0,s0,1796 # 981c <COS_Factor+0x98>
    1120:	76b020ef          	jal	ra,408a <__addsf3>
    1124:	400c                	lw	a1,0(s0)
    1126:	3e0030ef          	jal	ra,4506 <__mulsf3>
    112a:	3f15                	jal	105e <mdc02_capconfigureoffset>
    112c:	85ca                	mv	a1,s2
    112e:	8526                	mv	a0,s1
    1130:	666030ef          	jal	ra,4796 <__subsf3>
    1134:	400c                	lw	a1,0(s0)
    1136:	3d0030ef          	jal	ra,4506 <__mulsf3>
    113a:	3765                	jal	10e2 <mdc02_capconfigurefs>
    113c:	40b2                	lw	ra,12(sp)
    113e:	4422                	lw	s0,8(sp)
    1140:	4492                	lw	s1,4(sp)
    1142:	4902                	lw	s2,0(sp)
    1144:	4505                	li	a0,1
    1146:	0141                	addi	sp,sp,16
    1148:	8082                	ret

0000114a <convertcap>:
    114a:	1141                	addi	sp,sp,-16
    114c:	c606                	sw	ra,12(sp)
    114e:	91dff0ef          	jal	ra,a6a <onewire_resetcheck>
    1152:	4781                	li	a5,0
    1154:	e519                	bnez	a0,1162 <convertcap+0x18>
    1156:	31e5                	jal	e3e <read_command>
    1158:	06600513          	li	a0,102
    115c:	9dbff0ef          	jal	ra,b36 <onewire_writebyte>
    1160:	4785                	li	a5,1
    1162:	40b2                	lw	ra,12(sp)
    1164:	853e                	mv	a0,a5
    1166:	0141                	addi	sp,sp,16
    1168:	8082                	ret

0000116a <mdc02_readscratchpad_skiprom>:
    116a:	1141                	addi	sp,sp,-16
    116c:	c422                	sw	s0,8(sp)
    116e:	c606                	sw	ra,12(sp)
    1170:	c226                	sw	s1,4(sp)
    1172:	842a                	mv	s0,a0
    1174:	8f7ff0ef          	jal	ra,a6a <onewire_resetcheck>
    1178:	e515                	bnez	a0,11a4 <mdc02_readscratchpad_skiprom+0x3a>
    117a:	31d1                	jal	e3e <read_command>
    117c:	fbe00513          	li	a0,-66
    1180:	9b7ff0ef          	jal	ra,b36 <onewire_writebyte>
    1184:	00940493          	addi	s1,s0,9
    1188:	00849863          	bne	s1,s0,1198 <mdc02_readscratchpad_skiprom+0x2e>
    118c:	4505                	li	a0,1
    118e:	40b2                	lw	ra,12(sp)
    1190:	4422                	lw	s0,8(sp)
    1192:	4492                	lw	s1,4(sp)
    1194:	0141                	addi	sp,sp,16
    1196:	8082                	ret
    1198:	0405                	addi	s0,s0,1
    119a:	a2bff0ef          	jal	ra,bc4 <onewire_read>
    119e:	fea40fa3          	sb	a0,-1(s0)
    11a2:	b7dd                	j	1188 <mdc02_readscratchpad_skiprom+0x1e>
    11a4:	4501                	li	a0,0
    11a6:	b7e5                	j	118e <mdc02_readscratchpad_skiprom+0x24>

000011a8 <readstatusconfig>:
    11a8:	7179                	addi	sp,sp,-48
    11aa:	d04a                	sw	s2,32(sp)
    11ac:	892a                	mv	s2,a0
    11ae:	0048                	addi	a0,sp,4
    11b0:	d422                	sw	s0,40(sp)
    11b2:	d226                	sw	s1,36(sp)
    11b4:	d606                	sw	ra,44(sp)
    11b6:	ce4e                	sw	s3,28(sp)
    11b8:	84ae                	mv	s1,a1
    11ba:	3f45                	jal	116a <mdc02_readscratchpad_skiprom>
    11bc:	842a                	mv	s0,a0
    11be:	c105                	beqz	a0,11de <readstatusconfig+0x36>
    11c0:	00c14983          	lbu	s3,12(sp)
    11c4:	45a1                	li	a1,8
    11c6:	0048                	addi	a0,sp,4
    11c8:	3181                	jal	e08 <onewire_crc8>
    11ca:	02a99263          	bne	s3,a0,11ee <readstatusconfig+0x46>
    11ce:	00b14783          	lbu	a5,11(sp)
    11d2:	00f90023          	sb	a5,0(s2)
    11d6:	00a14783          	lbu	a5,10(sp)
    11da:	00f48023          	sb	a5,0(s1)
    11de:	8522                	mv	a0,s0
    11e0:	50b2                	lw	ra,44(sp)
    11e2:	5422                	lw	s0,40(sp)
    11e4:	5492                	lw	s1,36(sp)
    11e6:	5902                	lw	s2,32(sp)
    11e8:	49f2                	lw	s3,28(sp)
    11ea:	6145                	addi	sp,sp,48
    11ec:	8082                	ret
    11ee:	4401                	li	s0,0
    11f0:	b7fd                	j	11de <readstatusconfig+0x36>

000011f2 <readtempcap1>:
    11f2:	7179                	addi	sp,sp,-48
    11f4:	d04a                	sw	s2,32(sp)
    11f6:	892a                	mv	s2,a0
    11f8:	0048                	addi	a0,sp,4
    11fa:	d422                	sw	s0,40(sp)
    11fc:	d226                	sw	s1,36(sp)
    11fe:	d606                	sw	ra,44(sp)
    1200:	ce4e                	sw	s3,28(sp)
    1202:	84ae                	mv	s1,a1
    1204:	379d                	jal	116a <mdc02_readscratchpad_skiprom>
    1206:	842a                	mv	s0,a0
    1208:	c905                	beqz	a0,1238 <readtempcap1+0x46>
    120a:	00c14983          	lbu	s3,12(sp)
    120e:	45a1                	li	a1,8
    1210:	0048                	addi	a0,sp,4
    1212:	3edd                	jal	e08 <onewire_crc8>
    1214:	02a99a63          	bne	s3,a0,1248 <readtempcap1+0x56>
    1218:	00514783          	lbu	a5,5(sp)
    121c:	00414703          	lbu	a4,4(sp)
    1220:	07a2                	slli	a5,a5,0x8
    1222:	8fd9                	or	a5,a5,a4
    1224:	00f91023          	sh	a5,0(s2)
    1228:	00714783          	lbu	a5,7(sp)
    122c:	00614703          	lbu	a4,6(sp)
    1230:	07a2                	slli	a5,a5,0x8
    1232:	8fd9                	or	a5,a5,a4
    1234:	00f49023          	sh	a5,0(s1)
    1238:	8522                	mv	a0,s0
    123a:	50b2                	lw	ra,44(sp)
    123c:	5422                	lw	s0,40(sp)
    123e:	5492                	lw	s1,36(sp)
    1240:	5902                	lw	s2,32(sp)
    1242:	49f2                	lw	s3,28(sp)
    1244:	6145                	addi	sp,sp,48
    1246:	8082                	ret
    1248:	4401                	li	s0,0
    124a:	b7fd                	j	1238 <readtempcap1+0x46>

0000124c <mdc02_readc2c3c4_skiprom>:
    124c:	1141                	addi	sp,sp,-16
    124e:	c422                	sw	s0,8(sp)
    1250:	c606                	sw	ra,12(sp)
    1252:	c226                	sw	s1,4(sp)
    1254:	842a                	mv	s0,a0
    1256:	815ff0ef          	jal	ra,a6a <onewire_resetcheck>
    125a:	e515                	bnez	a0,1286 <mdc02_readc2c3c4_skiprom+0x3a>
    125c:	36cd                	jal	e3e <read_command>
    125e:	fdc00513          	li	a0,-36
    1262:	8d5ff0ef          	jal	ra,b36 <onewire_writebyte>
    1266:	00640493          	addi	s1,s0,6
    126a:	00849863          	bne	s1,s0,127a <mdc02_readc2c3c4_skiprom+0x2e>
    126e:	4505                	li	a0,1
    1270:	40b2                	lw	ra,12(sp)
    1272:	4422                	lw	s0,8(sp)
    1274:	4492                	lw	s1,4(sp)
    1276:	0141                	addi	sp,sp,16
    1278:	8082                	ret
    127a:	0405                	addi	s0,s0,1
    127c:	949ff0ef          	jal	ra,bc4 <onewire_read>
    1280:	fea40fa3          	sb	a0,-1(s0)
    1284:	b7dd                	j	126a <mdc02_readc2c3c4_skiprom+0x1e>
    1286:	4501                	li	a0,0
    1288:	b7e5                	j	1270 <mdc02_readc2c3c4_skiprom+0x24>

0000128a <readcapc2c3c4>:
    128a:	1101                	addi	sp,sp,-32
    128c:	cc22                	sw	s0,24(sp)
    128e:	842a                	mv	s0,a0
    1290:	0028                	addi	a0,sp,8
    1292:	ce06                	sw	ra,28(sp)
    1294:	3f65                	jal	124c <mdc02_readc2c3c4_skiprom>
    1296:	c909                	beqz	a0,12a8 <readcapc2c3c4+0x1e>
    1298:	00914783          	lbu	a5,9(sp)
    129c:	00814703          	lbu	a4,8(sp)
    12a0:	07a2                	slli	a5,a5,0x8
    12a2:	8fd9                	or	a5,a5,a4
    12a4:	00f41023          	sh	a5,0(s0)
    12a8:	40f2                	lw	ra,28(sp)
    12aa:	4462                	lw	s0,24(sp)
    12ac:	6105                	addi	sp,sp,32
    12ae:	8082                	ret

000012b0 <read_cap>:
    12b0:	7139                	addi	sp,sp,-64
    12b2:	4515                	li	a0,5
    12b4:	de06                	sw	ra,60(sp)
    12b6:	dc22                	sw	s0,56(sp)
    12b8:	da26                	sw	s1,52(sp)
    12ba:	d84a                	sw	s2,48(sp)
    12bc:	3331                	jal	fc8 <setcapchannel>
    12be:	02710593          	addi	a1,sp,39
    12c2:	02610513          	addi	a0,sp,38
    12c6:	35cd                	jal	11a8 <readstatusconfig>
    12c8:	3549                	jal	114a <convertcap>
    12ca:	e115                	bnez	a0,12ee <read_cap+0x3e>
    12cc:	00008517          	auipc	a0,0x8
    12d0:	5a450513          	addi	a0,a0,1444 # 9870 <COS_Factor+0xec>
    12d4:	27f000ef          	jal	ra,1d52 <puts>
    12d8:	3de00513          	li	a0,990
    12dc:	e94ff0ef          	jal	ra,970 <ow_delay_us>
    12e0:	50f2                	lw	ra,60(sp)
    12e2:	5462                	lw	s0,56(sp)
    12e4:	54d2                	lw	s1,52(sp)
    12e6:	5942                	lw	s2,48(sp)
    12e8:	4505                	li	a0,1
    12ea:	6121                	addi	sp,sp,64
    12ec:	8082                	ret
    12ee:	453d                	li	a0,15
    12f0:	e80ff0ef          	jal	ra,970 <ow_delay_us>
    12f4:	89018593          	addi	a1,gp,-1904 # 20000a60 <CapCfg_range>
    12f8:	88018513          	addi	a0,gp,-1920 # 20000a50 <CapCfg_offset>
    12fc:	395d                	jal	fb2 <readcapconfigure>
    12fe:	02710593          	addi	a1,sp,39
    1302:	02610513          	addi	a0,sp,38
    1306:	354d                	jal	11a8 <readstatusconfig>
    1308:	02e10593          	addi	a1,sp,46
    130c:	1068                	addi	a0,sp,44
    130e:	35d5                	jal	11f2 <readtempcap1>
    1310:	1028                	addi	a0,sp,40
    1312:	3fa5                	jal	128a <readcapc2c3c4>
    1314:	e519                	bnez	a0,1322 <read_cap+0x72>
    1316:	00008517          	auipc	a0,0x8
    131a:	56650513          	addi	a0,a0,1382 # 987c <COS_Factor+0xf8>
    131e:	213000ef          	jal	ra,1d30 <printf>
    1322:	88018793          	addi	a5,gp,-1920 # 20000a50 <CapCfg_offset>
    1326:	4380                	lw	s0,0(a5)
    1328:	89018793          	addi	a5,gp,-1904 # 20000a60 <CapCfg_range>
    132c:	4384                	lw	s1,0(a5)
    132e:	02e15503          	lhu	a0,46(sp)
    1332:	85a2                	mv	a1,s0
    1334:	8626                	mv	a2,s1
    1336:	a59ff0ef          	jal	ra,d8e <mdc02_outputtocap>
    133a:	892a                	mv	s2,a0
    133c:	02815503          	lhu	a0,40(sp)
    1340:	8626                	mv	a2,s1
    1342:	85a2                	mv	a1,s0
    1344:	a4bff0ef          	jal	ra,d8e <mdc02_outputtocap>
    1348:	842a                	mv	s0,a0
    134a:	00008517          	auipc	a0,0x8
    134e:	52e50513          	addi	a0,a0,1326 # 9878 <COS_Factor+0xf4>
    1352:	201000ef          	jal	ra,1d52 <puts>
    1356:	8522                	mv	a0,s0
    1358:	7c6030ef          	jal	ra,4b1e <__extendsfdf2>
    135c:	02815703          	lhu	a4,40(sp)
    1360:	cc2a                	sw	a0,24(sp)
    1362:	854a                	mv	a0,s2
    1364:	ca3a                	sw	a4,20(sp)
    1366:	ce2e                	sw	a1,28(sp)
    1368:	7b6030ef          	jal	ra,4b1e <__extendsfdf2>
    136c:	02714783          	lbu	a5,39(sp)
    1370:	86ae                	mv	a3,a1
    1372:	4862                	lw	a6,24(sp)
    1374:	c23e                	sw	a5,4(sp)
    1376:	02614783          	lbu	a5,38(sp)
    137a:	48f2                	lw	a7,28(sp)
    137c:	4752                	lw	a4,20(sp)
    137e:	02e15583          	lhu	a1,46(sp)
    1382:	862a                	mv	a2,a0
    1384:	c03e                	sw	a5,0(sp)
    1386:	00008517          	auipc	a0,0x8
    138a:	50650513          	addi	a0,a0,1286 # 988c <COS_Factor+0x108>
    138e:	1a3000ef          	jal	ra,1d30 <printf>
    1392:	b799                	j	12d8 <read_cap+0x28>

00001394 <mdc02_range>:
    1394:	1141                	addi	sp,sp,-16
    1396:	00008797          	auipc	a5,0x8
    139a:	4ca78793          	addi	a5,a5,1226 # 9860 <COS_Factor+0xdc>
    139e:	c226                	sw	s1,4(sp)
    13a0:	84ae                	mv	s1,a1
    13a2:	438c                	lw	a1,0(a5)
    13a4:	c422                	sw	s0,8(sp)
    13a6:	842a                	mv	s0,a0
    13a8:	8526                	mv	a0,s1
    13aa:	c606                	sw	ra,12(sp)
    13ac:	0ce030ef          	jal	ra,447a <__lesf2>
    13b0:	02a04c63          	bgtz	a0,13e8 <mdc02_range+0x54>
    13b4:	85a2                	mv	a1,s0
    13b6:	8526                	mv	a0,s1
    13b8:	03c030ef          	jal	ra,43f4 <__gesf2>
    13bc:	02a05663          	blez	a0,13e8 <mdc02_range+0x54>
    13c0:	00000593          	li	a1,0
    13c4:	8522                	mv	a0,s0
    13c6:	02e030ef          	jal	ra,43f4 <__gesf2>
    13ca:	00054f63          	bltz	a0,13e8 <mdc02_range+0x54>
    13ce:	85a2                	mv	a1,s0
    13d0:	8526                	mv	a0,s1
    13d2:	3c4030ef          	jal	ra,4796 <__subsf3>
    13d6:	00008797          	auipc	a5,0x8
    13da:	48e78793          	addi	a5,a5,1166 # 9864 <COS_Factor+0xe0>
    13de:	438c                	lw	a1,0(a5)
    13e0:	09a030ef          	jal	ra,447a <__lesf2>
    13e4:	02a05263          	blez	a0,1408 <mdc02_range+0x74>
    13e8:	00008597          	auipc	a1,0x8
    13ec:	44458593          	addi	a1,a1,1092 # 982c <COS_Factor+0xa8>
    13f0:	00008517          	auipc	a0,0x8
    13f4:	45850513          	addi	a0,a0,1112 # 9848 <COS_Factor+0xc4>
    13f8:	139000ef          	jal	ra,1d30 <printf>
    13fc:	4501                	li	a0,0
    13fe:	40b2                	lw	ra,12(sp)
    1400:	4422                	lw	s0,8(sp)
    1402:	4492                	lw	s1,4(sp)
    1404:	0141                	addi	sp,sp,16
    1406:	8082                	ret
    1408:	85a6                	mv	a1,s1
    140a:	8522                	mv	a0,s0
    140c:	39fd                	jal	110a <mdc02_capconfigurerange>
    140e:	89018593          	addi	a1,gp,-1904 # 20000a60 <CapCfg_range>
    1412:	88018513          	addi	a0,gp,-1920 # 20000a50 <CapCfg_offset>
    1416:	3e71                	jal	fb2 <readcapconfigure>
    1418:	4505                	li	a0,1
    141a:	b7d5                	j	13fe <mdc02_range+0x6a>

0000141c <mdc02_channel>:
    141c:	1141                	addi	sp,sp,-16
    141e:	c606                	sw	ra,12(sp)
    1420:	3665                	jal	fc8 <setcapchannel>
    1422:	40b2                	lw	ra,12(sp)
    1424:	4505                	li	a0,1
    1426:	0141                	addi	sp,sp,16
    1428:	8082                	ret

0000142a <GPIOA_ModeCfg>:
    142a:	4791                	li	a5,4
    142c:	02b7ee63          	bltu	a5,a1,1468 <GPIOA_ModeCfg+0x3e>
    1430:	00008717          	auipc	a4,0x8
    1434:	49070713          	addi	a4,a4,1168 # 98c0 <COS_Factor+0x13c>
    1438:	058a                	slli	a1,a1,0x2
    143a:	95ba                	add	a1,a1,a4
    143c:	419c                	lw	a5,0(a1)
    143e:	97ba                	add	a5,a5,a4
    1440:	8782                	jr	a5
    1442:	400017b7          	lui	a5,0x40001
    1446:	0b47a703          	lw	a4,180(a5) # 400010b4 <_eusrstack+0x1fff90b4>
    144a:	fff54513          	not	a0,a0
    144e:	8f69                	and	a4,a4,a0
    1450:	0ae7aa23          	sw	a4,180(a5)
    1454:	0b07a703          	lw	a4,176(a5)
    1458:	8f69                	and	a4,a4,a0
    145a:	0ae7a823          	sw	a4,176(a5)
    145e:	0a07a703          	lw	a4,160(a5)
    1462:	8d79                	and	a0,a0,a4
    1464:	0aa7a023          	sw	a0,160(a5)
    1468:	8082                	ret
    146a:	400017b7          	lui	a5,0x40001
    146e:	0b47a683          	lw	a3,180(a5) # 400010b4 <_eusrstack+0x1fff90b4>
    1472:	fff54713          	not	a4,a0
    1476:	8ef9                	and	a3,a3,a4
    1478:	0ad7aa23          	sw	a3,180(a5)
    147c:	0b07a683          	lw	a3,176(a5)
    1480:	8d55                	or	a0,a0,a3
    1482:	0aa7a823          	sw	a0,176(a5)
    1486:	0a07a683          	lw	a3,160(a5)
    148a:	8f75                	and	a4,a4,a3
    148c:	0ae7a023          	sw	a4,160(a5)
    1490:	8082                	ret
    1492:	400017b7          	lui	a5,0x40001
    1496:	0b47a703          	lw	a4,180(a5) # 400010b4 <_eusrstack+0x1fff90b4>
    149a:	8f49                	or	a4,a4,a0
    149c:	0ae7aa23          	sw	a4,180(a5)
    14a0:	0b07a703          	lw	a4,176(a5)
    14a4:	fff54513          	not	a0,a0
    14a8:	bf45                	j	1458 <GPIOA_ModeCfg+0x2e>
    14aa:	400017b7          	lui	a5,0x40001
    14ae:	0b47a683          	lw	a3,180(a5) # 400010b4 <_eusrstack+0x1fff90b4>
    14b2:	fff54713          	not	a4,a0
    14b6:	8f75                	and	a4,a4,a3
    14b8:	0ae7aa23          	sw	a4,180(a5)
    14bc:	0a07a703          	lw	a4,160(a5)
    14c0:	8d59                	or	a0,a0,a4
    14c2:	b74d                	j	1464 <GPIOA_ModeCfg+0x3a>
    14c4:	400017b7          	lui	a5,0x40001
    14c8:	0b47a703          	lw	a4,180(a5) # 400010b4 <_eusrstack+0x1fff90b4>
    14cc:	8f49                	or	a4,a4,a0
    14ce:	b7ed                	j	14b8 <GPIOA_ModeCfg+0x8e>

000014d0 <GetSysClock>:
    14d0:	400017b7          	lui	a5,0x40001
    14d4:	0087d503          	lhu	a0,8(a5) # 40001008 <_eusrstack+0x1fff9008>
    14d8:	0542                	slli	a0,a0,0x10
    14da:	8141                	srli	a0,a0,0x10
    14dc:	04057793          	andi	a5,a0,64
    14e0:	eb91                	bnez	a5,14f4 <GetSysClock+0x24>
    14e2:	01f57793          	andi	a5,a0,31
    14e6:	01e85537          	lui	a0,0x1e85
    14ea:	80050513          	addi	a0,a0,-2048 # 1e84800 <_data_lma+0x1e7a9fc>
    14ee:	02f54533          	div	a0,a0,a5
    14f2:	8082                	ret
    14f4:	0c057793          	andi	a5,a0,192
    14f8:	04000713          	li	a4,64
    14fc:	00e79763          	bne	a5,a4,150a <GetSysClock+0x3a>
    1500:	01f57793          	andi	a5,a0,31
    1504:	1c9c4537          	lui	a0,0x1c9c4
    1508:	b7cd                	j	14ea <GetSysClock+0x1a>
    150a:	6521                	lui	a0,0x8
    150c:	d0050513          	addi	a0,a0,-768 # 7d00 <__gethex+0x438>
    1510:	8082                	ret

00001512 <_write>:
    1512:	4781                	li	a5,0
    1514:	40003737          	lui	a4,0x40003
    1518:	46a1                	li	a3,8
    151a:	00c7c463          	blt	a5,a2,1522 <_write+0x10>
    151e:	8532                	mv	a0,a2
    1520:	8082                	ret
    1522:	40b74503          	lbu	a0,1035(a4) # 4000340b <_eusrstack+0x1fffb40b>
    1526:	fea68ee3          	beq	a3,a0,1522 <_write+0x10>
    152a:	00f58533          	add	a0,a1,a5
    152e:	00054503          	lbu	a0,0(a0)
    1532:	0785                	addi	a5,a5,1
    1534:	40a70423          	sb	a0,1032(a4)
    1538:	b7cd                	j	151a <_write+0x8>

0000153a <TMR0_TimerInit>:
    153a:	400027b7          	lui	a5,0x40002
    153e:	c7c8                	sw	a0,12(a5)
    1540:	4709                	li	a4,2
    1542:	00e78023          	sb	a4,0(a5) # 40002000 <_eusrstack+0x1fffa000>
    1546:	4711                	li	a4,4
    1548:	00e78023          	sb	a4,0(a5)
    154c:	8082                	ret

0000154e <UART1_BaudRateCfg>:
    154e:	1141                	addi	sp,sp,-16
    1550:	c422                	sw	s0,8(sp)
    1552:	c606                	sw	ra,12(sp)
    1554:	842a                	mv	s0,a0
    1556:	3fad                	jal	14d0 <GetSysClock>
    1558:	4729                	li	a4,10
    155a:	02e507b3          	mul	a5,a0,a4
    155e:	40b2                	lw	ra,12(sp)
    1560:	838d                	srli	a5,a5,0x3
    1562:	0287d7b3          	divu	a5,a5,s0
    1566:	4422                	lw	s0,8(sp)
    1568:	0795                	addi	a5,a5,5
    156a:	02e7d7b3          	divu	a5,a5,a4
    156e:	40003737          	lui	a4,0x40003
    1572:	07c2                	slli	a5,a5,0x10
    1574:	83c1                	srli	a5,a5,0x10
    1576:	40f71623          	sh	a5,1036(a4) # 4000340c <_eusrstack+0x1fffb40c>
    157a:	0141                	addi	sp,sp,16
    157c:	8082                	ret

0000157e <UART1_DefInit>:
    157e:	6571                	lui	a0,0x1c
    1580:	1141                	addi	sp,sp,-16
    1582:	20050513          	addi	a0,a0,512 # 1c200 <_data_lma+0x123fc>
    1586:	c606                	sw	ra,12(sp)
    1588:	37d9                	jal	154e <UART1_BaudRateCfg>
    158a:	400037b7          	lui	a5,0x40003
    158e:	f8700713          	li	a4,-121
    1592:	40e78123          	sb	a4,1026(a5) # 40003402 <_eusrstack+0x1fffb402>
    1596:	470d                	li	a4,3
    1598:	40e781a3          	sb	a4,1027(a5)
    159c:	04000713          	li	a4,64
    15a0:	40e780a3          	sb	a4,1025(a5)
    15a4:	4705                	li	a4,1
    15a6:	40e78723          	sb	a4,1038(a5)
    15aa:	40b2                	lw	ra,12(sp)
    15ac:	0141                	addi	sp,sp,16
    15ae:	8082                	ret

000015b0 <UART1_SendString>:
    15b0:	400037b7          	lui	a5,0x40003
    15b4:	4721                	li	a4,8
    15b6:	400036b7          	lui	a3,0x40003
    15ba:	e191                	bnez	a1,15be <UART1_SendString+0xe>
    15bc:	8082                	ret
    15be:	40b7c603          	lbu	a2,1035(a5) # 4000340b <_eusrstack+0x1fffb40b>
    15c2:	fec70ce3          	beq	a4,a2,15ba <UART1_SendString+0xa>
    15c6:	0505                	addi	a0,a0,1
    15c8:	fff54603          	lbu	a2,-1(a0)
    15cc:	15fd                	addi	a1,a1,-1
    15ce:	05c2                	slli	a1,a1,0x10
    15d0:	40c68423          	sb	a2,1032(a3) # 40003408 <_eusrstack+0x1fffb408>
    15d4:	81c1                	srli	a1,a1,0x10
    15d6:	b7d5                	j	15ba <UART1_SendString+0xa>

000015d8 <UART1_RecvString>:
    15d8:	4781                	li	a5,0
    15da:	400036b7          	lui	a3,0x40003
    15de:	40a6c703          	lbu	a4,1034(a3) # 4000340a <_eusrstack+0x1fffb40a>
    15e2:	01079613          	slli	a2,a5,0x10
    15e6:	8241                	srli	a2,a2,0x10
    15e8:	0ff77713          	andi	a4,a4,255
    15ec:	e319                	bnez	a4,15f2 <UART1_RecvString+0x1a>
    15ee:	8532                	mv	a0,a2
    15f0:	8082                	ret
    15f2:	4086c603          	lbu	a2,1032(a3)
    15f6:	00f50733          	add	a4,a0,a5
    15fa:	0785                	addi	a5,a5,1
    15fc:	00c70023          	sb	a2,0(a4)
    1600:	bff9                	j	15de <UART1_RecvString+0x6>

00001602 <printchar>:
    1602:	1101                	addi	sp,sp,-32
    1604:	ce06                	sw	ra,28(sp)
    1606:	c62e                	sw	a1,12(sp)
    1608:	cd15                	beqz	a0,1644 <printchar+0x42>
    160a:	4118                	lw	a4,0(a0)
    160c:	87aa                	mv	a5,a0
    160e:	c305                	beqz	a4,162e <printchar+0x2c>
    1610:	4158                	lw	a4,4(a0)
    1612:	557d                	li	a0,-1
    1614:	cb11                	beqz	a4,1628 <printchar+0x26>
    1616:	4685                	li	a3,1
    1618:	00d71b63          	bne	a4,a3,162e <printchar+0x2c>
    161c:	4798                	lw	a4,8(a5)
    161e:	00070023          	sb	zero,0(a4)
    1622:	0007a223          	sw	zero,4(a5)
    1626:	4505                	li	a0,1
    1628:	40f2                	lw	ra,28(sp)
    162a:	6105                	addi	sp,sp,32
    162c:	8082                	ret
    162e:	4798                	lw	a4,8(a5)
    1630:	46b2                	lw	a3,12(sp)
    1632:	00d70023          	sb	a3,0(a4)
    1636:	4798                	lw	a4,8(a5)
    1638:	0705                	addi	a4,a4,1
    163a:	c798                	sw	a4,8(a5)
    163c:	43d8                	lw	a4,4(a5)
    163e:	177d                	addi	a4,a4,-1
    1640:	c3d8                	sw	a4,4(a5)
    1642:	b7d5                	j	1626 <printchar+0x24>
    1644:	4605                	li	a2,1
    1646:	006c                	addi	a1,sp,12
    1648:	35e9                	jal	1512 <_write>
    164a:	bff1                	j	1626 <printchar+0x24>

0000164c <prints>:
    164c:	7179                	addi	sp,sp,-48
    164e:	d422                	sw	s0,40(sp)
    1650:	d226                	sw	s1,36(sp)
    1652:	ce4e                	sw	s3,28(sp)
    1654:	cc52                	sw	s4,24(sp)
    1656:	ca56                	sw	s5,20(sp)
    1658:	d606                	sw	ra,44(sp)
    165a:	d04a                	sw	s2,32(sp)
    165c:	c85a                	sw	s6,16(sp)
    165e:	8a2a                	mv	s4,a0
    1660:	8aae                	mv	s5,a1
    1662:	8432                	mv	s0,a2
    1664:	4481                	li	s1,0
    1666:	02000993          	li	s3,32
    166a:	02064463          	bltz	a2,1692 <prints+0x46>
    166e:	009a87b3          	add	a5,s5,s1
    1672:	00078783          	lb	a5,0(a5)
    1676:	e39d                	bnez	a5,169c <prints+0x50>
    1678:	0284d663          	bge	s1,s0,16a4 <prints+0x58>
    167c:	02e4d263          	bge	s1,a4,16a0 <prints+0x54>
    1680:	8c19                	sub	s0,s0,a4
    1682:	0026f793          	andi	a5,a3,2
    1686:	02000993          	li	s3,32
    168a:	c781                	beqz	a5,1692 <prints+0x46>
    168c:	e319                	bnez	a4,1692 <prints+0x46>
    168e:	03000993          	li	s3,48
    1692:	8a85                	andi	a3,a3,1
    1694:	4901                	li	s2,0
    1696:	e69d                	bnez	a3,16c4 <prints+0x78>
    1698:	8922                	mv	s2,s0
    169a:	a829                	j	16b4 <prints+0x68>
    169c:	0485                	addi	s1,s1,1
    169e:	bfc1                	j	166e <prints+0x22>
    16a0:	8c05                	sub	s0,s0,s1
    16a2:	b7c5                	j	1682 <prints+0x36>
    16a4:	4401                	li	s0,0
    16a6:	bff1                	j	1682 <prints+0x36>
    16a8:	85ce                	mv	a1,s3
    16aa:	8552                	mv	a0,s4
    16ac:	c63a                	sw	a4,12(sp)
    16ae:	3f91                	jal	1602 <printchar>
    16b0:	4732                	lw	a4,12(sp)
    16b2:	197d                	addi	s2,s2,-1
    16b4:	ff204ae3          	bgtz	s2,16a8 <prints+0x5c>
    16b8:	8922                	mv	s2,s0
    16ba:	00045363          	bgez	s0,16c0 <prints+0x74>
    16be:	4901                	li	s2,0
    16c0:	41240433          	sub	s0,s0,s2
    16c4:	02e4cb63          	blt	s1,a4,16fa <prints+0xae>
    16c8:	84ca                	mv	s1,s2
    16ca:	412487b3          	sub	a5,s1,s2
    16ce:	97d6                	add	a5,a5,s5
    16d0:	00078583          	lb	a1,0(a5)
    16d4:	ed9d                	bnez	a1,1712 <prints+0xc6>
    16d6:	8922                	mv	s2,s0
    16d8:	05204163          	bgtz	s2,171a <prints+0xce>
    16dc:	00045363          	bgez	s0,16e2 <prints+0x96>
    16e0:	4401                	li	s0,0
    16e2:	00940533          	add	a0,s0,s1
    16e6:	50b2                	lw	ra,44(sp)
    16e8:	5422                	lw	s0,40(sp)
    16ea:	5492                	lw	s1,36(sp)
    16ec:	5902                	lw	s2,32(sp)
    16ee:	49f2                	lw	s3,28(sp)
    16f0:	4a62                	lw	s4,24(sp)
    16f2:	4ad2                	lw	s5,20(sp)
    16f4:	4b42                	lw	s6,16(sp)
    16f6:	6145                	addi	sp,sp,48
    16f8:	8082                	ret
    16fa:	409704b3          	sub	s1,a4,s1
    16fe:	8b26                	mv	s6,s1
    1700:	03000593          	li	a1,48
    1704:	8552                	mv	a0,s4
    1706:	1b7d                	addi	s6,s6,-1
    1708:	3ded                	jal	1602 <printchar>
    170a:	fe0b1be3          	bnez	s6,1700 <prints+0xb4>
    170e:	9926                	add	s2,s2,s1
    1710:	bf65                	j	16c8 <prints+0x7c>
    1712:	8552                	mv	a0,s4
    1714:	35fd                	jal	1602 <printchar>
    1716:	0485                	addi	s1,s1,1
    1718:	bf4d                	j	16ca <prints+0x7e>
    171a:	85ce                	mv	a1,s3
    171c:	8552                	mv	a0,s4
    171e:	35d5                	jal	1602 <printchar>
    1720:	197d                	addi	s2,s2,-1
    1722:	bf5d                	j	16d8 <prints+0x8c>

00001724 <printInt>:
    1724:	715d                	addi	sp,sp,-80
    1726:	c2a6                	sw	s1,68(sp)
    1728:	dc52                	sw	s4,56(sp)
    172a:	c686                	sw	ra,76(sp)
    172c:	c4a2                	sw	s0,72(sp)
    172e:	c0ca                	sw	s2,64(sp)
    1730:	de4e                	sw	s3,60(sp)
    1732:	da56                	sw	s5,52(sp)
    1734:	84ba                	mv	s1,a4
    1736:	8a3e                	mv	s4,a5
    1738:	e19d                	bnez	a1,175e <printInt+0x3a>
    173a:	03000793          	li	a5,48
    173e:	4701                	li	a4,0
    1740:	86d2                	mv	a3,s4
    1742:	8626                	mv	a2,s1
    1744:	082c                	addi	a1,sp,24
    1746:	00f11c23          	sh	a5,24(sp)
    174a:	3709                	jal	164c <prints>
    174c:	40b6                	lw	ra,76(sp)
    174e:	4426                	lw	s0,72(sp)
    1750:	4496                	lw	s1,68(sp)
    1752:	4906                	lw	s2,64(sp)
    1754:	59f2                	lw	s3,60(sp)
    1756:	5a62                	lw	s4,56(sp)
    1758:	5ad2                	lw	s5,52(sp)
    175a:	6161                	addi	sp,sp,80
    175c:	8082                	ret
    175e:	892a                	mv	s2,a0
    1760:	8436                	mv	s0,a3
    1762:	8ac6                	mv	s5,a7
    1764:	ca91                	beqz	a3,1778 <printInt+0x54>
    1766:	47a9                	li	a5,10
    1768:	4401                	li	s0,0
    176a:	00f61763          	bne	a2,a5,1778 <printInt+0x54>
    176e:	0005d563          	bgez	a1,1778 <printInt+0x54>
    1772:	40b005b3          	neg	a1,a1
    1776:	4405                	li	s0,1
    1778:	020107a3          	sb	zero,47(sp)
    177c:	02f10793          	addi	a5,sp,47
    1780:	46a5                	li	a3,9
    1782:	fc680513          	addi	a0,a6,-58
    1786:	02c5f733          	remu	a4,a1,a2
    178a:	00e6d363          	bge	a3,a4,1790 <printInt+0x6c>
    178e:	972a                	add	a4,a4,a0
    1790:	03070713          	addi	a4,a4,48
    1794:	fee78fa3          	sb	a4,-1(a5)
    1798:	fff78993          	addi	s3,a5,-1
    179c:	02c5d733          	divu	a4,a1,a2
    17a0:	04c5f763          	bgeu	a1,a2,17ee <printInt+0xca>
    17a4:	cc01                	beqz	s0,17bc <printInt+0x98>
    17a6:	c4b9                	beqz	s1,17f4 <printInt+0xd0>
    17a8:	002a7713          	andi	a4,s4,2
    17ac:	c721                	beqz	a4,17f4 <printInt+0xd0>
    17ae:	02d00593          	li	a1,45
    17b2:	854a                	mv	a0,s2
    17b4:	c642                	sw	a6,12(sp)
    17b6:	35b1                	jal	1602 <printchar>
    17b8:	4832                	lw	a6,12(sp)
    17ba:	14fd                	addi	s1,s1,-1
    17bc:	004a7793          	andi	a5,s4,4
    17c0:	cf99                	beqz	a5,17de <printInt+0xba>
    17c2:	06100793          	li	a5,97
    17c6:	03000593          	li	a1,48
    17ca:	854a                	mv	a0,s2
    17cc:	02f81c63          	bne	a6,a5,1804 <printInt+0xe0>
    17d0:	3d0d                	jal	1602 <printchar>
    17d2:	07800593          	li	a1,120
    17d6:	854a                	mv	a0,s2
    17d8:	352d                	jal	1602 <printchar>
    17da:	0409                	addi	s0,s0,2
    17dc:	14f9                	addi	s1,s1,-2
    17de:	8756                	mv	a4,s5
    17e0:	86d2                	mv	a3,s4
    17e2:	8626                	mv	a2,s1
    17e4:	85ce                	mv	a1,s3
    17e6:	854a                	mv	a0,s2
    17e8:	3595                	jal	164c <prints>
    17ea:	9522                	add	a0,a0,s0
    17ec:	b785                	j	174c <printInt+0x28>
    17ee:	85ba                	mv	a1,a4
    17f0:	87ce                	mv	a5,s3
    17f2:	bf51                	j	1786 <printInt+0x62>
    17f4:	02d00713          	li	a4,45
    17f8:	fee98fa3          	sb	a4,-1(s3)
    17fc:	4401                	li	s0,0
    17fe:	ffe78993          	addi	s3,a5,-2
    1802:	bf6d                	j	17bc <printInt+0x98>
    1804:	3bfd                	jal	1602 <printchar>
    1806:	05800593          	li	a1,88
    180a:	b7f1                	j	17d6 <printInt+0xb2>

0000180c <printLongLongInt>:
    180c:	711d                	addi	sp,sp,-96
    180e:	c6ce                	sw	s3,76(sp)
    1810:	c0da                	sw	s6,64(sp)
    1812:	89be                	mv	s3,a5
    1814:	ce86                	sw	ra,92(sp)
    1816:	cca2                	sw	s0,88(sp)
    1818:	caa6                	sw	s1,84(sp)
    181a:	c8ca                	sw	s2,80(sp)
    181c:	c4d2                	sw	s4,72(sp)
    181e:	c2d6                	sw	s5,68(sp)
    1820:	de5e                	sw	s7,60(sp)
    1822:	dc62                	sw	s8,56(sp)
    1824:	da66                	sw	s9,52(sp)
    1826:	d86a                	sw	s10,48(sp)
    1828:	d66e                	sw	s11,44(sp)
    182a:	00c5e7b3          	or	a5,a1,a2
    182e:	8b42                	mv	s6,a6
    1830:	eb8d                	bnez	a5,1862 <printLongLongInt+0x56>
    1832:	03000793          	li	a5,48
    1836:	4701                	li	a4,0
    1838:	86c2                	mv	a3,a6
    183a:	864e                	mv	a2,s3
    183c:	002c                	addi	a1,sp,8
    183e:	00f11423          	sh	a5,8(sp)
    1842:	3529                	jal	164c <prints>
    1844:	40f6                	lw	ra,92(sp)
    1846:	4466                	lw	s0,88(sp)
    1848:	44d6                	lw	s1,84(sp)
    184a:	4946                	lw	s2,80(sp)
    184c:	49b6                	lw	s3,76(sp)
    184e:	4a26                	lw	s4,72(sp)
    1850:	4a96                	lw	s5,68(sp)
    1852:	4b06                	lw	s6,64(sp)
    1854:	5bf2                	lw	s7,60(sp)
    1856:	5c62                	lw	s8,56(sp)
    1858:	5cd2                	lw	s9,52(sp)
    185a:	5d42                	lw	s10,48(sp)
    185c:	5db2                	lw	s11,44(sp)
    185e:	6125                	addi	sp,sp,96
    1860:	8082                	ret
    1862:	8aaa                	mv	s5,a0
    1864:	8a36                	mv	s4,a3
    1866:	893a                	mv	s2,a4
    1868:	84ae                	mv	s1,a1
    186a:	8432                	mv	s0,a2
    186c:	cf19                	beqz	a4,188a <printLongLongInt+0x7e>
    186e:	47a9                	li	a5,10
    1870:	4901                	li	s2,0
    1872:	00f69c63          	bne	a3,a5,188a <printLongLongInt+0x7e>
    1876:	00065a63          	bgez	a2,188a <printLongLongInt+0x7e>
    187a:	40b004b3          	neg	s1,a1
    187e:	009037b3          	snez	a5,s1
    1882:	40c00433          	neg	s0,a2
    1886:	8c1d                	sub	s0,s0,a5
    1888:	4905                	li	s2,1
    188a:	00010fa3          	sb	zero,31(sp)
    188e:	01f10d13          	addi	s10,sp,31
    1892:	41fa5d93          	srai	s11,s4,0x1f
    1896:	4ca5                	li	s9,9
    1898:	fc688c13          	addi	s8,a7,-58
    189c:	8652                	mv	a2,s4
    189e:	86ee                	mv	a3,s11
    18a0:	8526                	mv	a0,s1
    18a2:	85a2                	mv	a1,s0
    18a4:	09b000ef          	jal	ra,213e <__umoddi3>
    18a8:	00acd363          	bge	s9,a0,18ae <printLongLongInt+0xa2>
    18ac:	9562                	add	a0,a0,s8
    18ae:	03050513          	addi	a0,a0,48
    18b2:	fead0fa3          	sb	a0,-1(s10)
    18b6:	8652                	mv	a2,s4
    18b8:	86ee                	mv	a3,s11
    18ba:	8526                	mv	a0,s1
    18bc:	85a2                	mv	a1,s0
    18be:	fffd0b93          	addi	s7,s10,-1
    18c2:	21d5                	jal	1da6 <__udivdi3>
    18c4:	01b46663          	bltu	s0,s11,18d0 <printLongLongInt+0xc4>
    18c8:	028d9863          	bne	s11,s0,18f8 <printLongLongInt+0xec>
    18cc:	0344f663          	bgeu	s1,s4,18f8 <printLongLongInt+0xec>
    18d0:	00090c63          	beqz	s2,18e8 <printLongLongInt+0xdc>
    18d4:	02098663          	beqz	s3,1900 <printLongLongInt+0xf4>
    18d8:	002b7793          	andi	a5,s6,2
    18dc:	c395                	beqz	a5,1900 <printLongLongInt+0xf4>
    18de:	02d00593          	li	a1,45
    18e2:	8556                	mv	a0,s5
    18e4:	3b39                	jal	1602 <printchar>
    18e6:	19fd                	addi	s3,s3,-1
    18e8:	4701                	li	a4,0
    18ea:	86da                	mv	a3,s6
    18ec:	864e                	mv	a2,s3
    18ee:	85de                	mv	a1,s7
    18f0:	8556                	mv	a0,s5
    18f2:	3ba9                	jal	164c <prints>
    18f4:	954a                	add	a0,a0,s2
    18f6:	b7b9                	j	1844 <printLongLongInt+0x38>
    18f8:	84aa                	mv	s1,a0
    18fa:	842e                	mv	s0,a1
    18fc:	8d5e                	mv	s10,s7
    18fe:	bf79                	j	189c <printLongLongInt+0x90>
    1900:	02d00793          	li	a5,45
    1904:	fefb8fa3          	sb	a5,-1(s7) # fff <setcapchannel+0x37>
    1908:	4901                	li	s2,0
    190a:	ffed0b93          	addi	s7,s10,-2
    190e:	bfe9                	j	18e8 <printLongLongInt+0xdc>

00001910 <printDouble>:
    1910:	7139                	addi	sp,sp,-64
    1912:	da26                	sw	s1,52(sp)
    1914:	d05a                	sw	s6,32(sp)
    1916:	84aa                	mv	s1,a0
    1918:	8b2e                	mv	s6,a1
    191a:	852e                	mv	a0,a1
    191c:	85b2                	mv	a1,a2
    191e:	de06                	sw	ra,60(sp)
    1920:	dc22                	sw	s0,56(sp)
    1922:	d84a                	sw	s2,48(sp)
    1924:	d64e                	sw	s3,44(sp)
    1926:	d452                	sw	s4,40(sp)
    1928:	d256                	sw	s5,36(sp)
    192a:	ce5e                	sw	s7,28(sp)
    192c:	cc62                	sw	s8,24(sp)
    192e:	ca66                	sw	s9,20(sp)
    1930:	c86a                	sw	s10,16(sp)
    1932:	8bb2                	mv	s7,a2
    1934:	8936                	mv	s2,a3
    1936:	c63a                	sw	a4,12(sp)
    1938:	89be                	mv	s3,a5
    193a:	c442                	sw	a6,8(sp)
    193c:	8a46                	mv	s4,a7
    193e:	4da020ef          	jal	ra,3e18 <__fixdfdi>
    1942:	4732                	lw	a4,12(sp)
    1944:	4822                	lw	a6,8(sp)
    1946:	8cae                	mv	s9,a1
    1948:	87ba                	mv	a5,a4
    194a:	85aa                	mv	a1,a0
    194c:	4705                	li	a4,1
    194e:	88d2                	mv	a7,s4
    1950:	86ca                	mv	a3,s2
    1952:	8666                	mv	a2,s9
    1954:	8c2a                	mv	s8,a0
    1956:	8526                	mv	a0,s1
    1958:	3d55                	jal	180c <printLongLongInt>
    195a:	8d2a                	mv	s10,a0
    195c:	02e00593          	li	a1,46
    1960:	8526                	mv	a0,s1
    1962:	3145                	jal	1602 <printchar>
    1964:	0d05                	addi	s10,s10,1
    1966:	4781                	li	a5,0
    1968:	4a85                	li	s5,1
    196a:	4401                	li	s0,0
    196c:	4729                	li	a4,10
    196e:	0737cc63          	blt	a5,s3,19e6 <printDouble+0xd6>
    1972:	8562                	mv	a0,s8
    1974:	85e6                	mv	a1,s9
    1976:	55e020ef          	jal	ra,3ed4 <__floatdidf>
    197a:	862a                	mv	a2,a0
    197c:	86ae                	mv	a3,a1
    197e:	855a                	mv	a0,s6
    1980:	85de                	mv	a1,s7
    1982:	4e7010ef          	jal	ra,3668 <__subdf3>
    1986:	8b2a                	mv	s6,a0
    1988:	8bae                	mv	s7,a1
    198a:	8556                	mv	a0,s5
    198c:	85a2                	mv	a1,s0
    198e:	546020ef          	jal	ra,3ed4 <__floatdidf>
    1992:	862a                	mv	a2,a0
    1994:	86ae                	mv	a3,a1
    1996:	855a                	mv	a0,s6
    1998:	85de                	mv	a1,s7
    199a:	017010ef          	jal	ra,31b0 <__muldf3>
    199e:	47a020ef          	jal	ra,3e18 <__fixdfdi>
    19a2:	41f5d613          	srai	a2,a1,0x1f
    19a6:	8d31                	xor	a0,a0,a2
    19a8:	00b647b3          	xor	a5,a2,a1
    19ac:	40c505b3          	sub	a1,a0,a2
    19b0:	00b53533          	sltu	a0,a0,a1
    19b4:	40c78633          	sub	a2,a5,a2
    19b8:	88d2                	mv	a7,s4
    19ba:	87ce                	mv	a5,s3
    19bc:	86ca                	mv	a3,s2
    19be:	8e09                	sub	a2,a2,a0
    19c0:	4809                	li	a6,2
    19c2:	8526                	mv	a0,s1
    19c4:	4705                	li	a4,1
    19c6:	3599                	jal	180c <printLongLongInt>
    19c8:	50f2                	lw	ra,60(sp)
    19ca:	5462                	lw	s0,56(sp)
    19cc:	956a                	add	a0,a0,s10
    19ce:	54d2                	lw	s1,52(sp)
    19d0:	5942                	lw	s2,48(sp)
    19d2:	59b2                	lw	s3,44(sp)
    19d4:	5a22                	lw	s4,40(sp)
    19d6:	5a92                	lw	s5,36(sp)
    19d8:	5b02                	lw	s6,32(sp)
    19da:	4bf2                	lw	s7,28(sp)
    19dc:	4c62                	lw	s8,24(sp)
    19de:	4cd2                	lw	s9,20(sp)
    19e0:	4d42                	lw	s10,16(sp)
    19e2:	6121                	addi	sp,sp,64
    19e4:	8082                	ret
    19e6:	028706b3          	mul	a3,a4,s0
    19ea:	0785                	addi	a5,a5,1
    19ec:	03573433          	mulhu	s0,a4,s5
    19f0:	03570ab3          	mul	s5,a4,s5
    19f4:	9436                	add	s0,s0,a3
    19f6:	bfa5                	j	196e <printDouble+0x5e>

000019f8 <print>:
    19f8:	7139                	addi	sp,sp,-64
    19fa:	d05a                	sw	s6,32(sp)
    19fc:	0000ab37          	lui	s6,0xa
    1a00:	dc22                	sw	s0,56(sp)
    1a02:	da26                	sw	s1,52(sp)
    1a04:	d84a                	sw	s2,48(sp)
    1a06:	d64e                	sw	s3,44(sp)
    1a08:	d452                	sw	s4,40(sp)
    1a0a:	d256                	sw	s5,36(sp)
    1a0c:	ce5e                	sw	s7,28(sp)
    1a0e:	cc62                	sw	s8,24(sp)
    1a10:	de06                	sw	ra,60(sp)
    1a12:	ca66                	sw	s9,20(sp)
    1a14:	89aa                	mv	s3,a0
    1a16:	892e                	mv	s2,a1
    1a18:	8432                	mv	s0,a2
    1a1a:	4a01                	li	s4,0
    1a1c:	4481                	li	s1,0
    1a1e:	02500b93          	li	s7,37
    1a22:	02b00a93          	li	s5,43
    1a26:	4c29                	li	s8,10
    1a28:	8d4b0b13          	addi	s6,s6,-1836 # 98d4 <COS_Factor+0x150>
    1a2c:	00090583          	lb	a1,0(s2)
    1a30:	e585                	bnez	a1,1a58 <print+0x60>
    1a32:	00098563          	beqz	s3,1a3c <print+0x44>
    1a36:	4581                	li	a1,0
    1a38:	854e                	mv	a0,s3
    1a3a:	36e1                	jal	1602 <printchar>
    1a3c:	50f2                	lw	ra,60(sp)
    1a3e:	5462                	lw	s0,56(sp)
    1a40:	8526                	mv	a0,s1
    1a42:	5942                	lw	s2,48(sp)
    1a44:	54d2                	lw	s1,52(sp)
    1a46:	59b2                	lw	s3,44(sp)
    1a48:	5a22                	lw	s4,40(sp)
    1a4a:	5a92                	lw	s5,36(sp)
    1a4c:	5b02                	lw	s6,32(sp)
    1a4e:	4bf2                	lw	s7,28(sp)
    1a50:	4c62                	lw	s8,24(sp)
    1a52:	4cd2                	lw	s9,20(sp)
    1a54:	6121                	addi	sp,sp,64
    1a56:	8082                	ret
    1a58:	01758763          	beq	a1,s7,1a66 <print+0x6e>
    1a5c:	854e                	mv	a0,s3
    1a5e:	3655                	jal	1602 <printchar>
    1a60:	0485                	addi	s1,s1,1
    1a62:	0905                	addi	s2,s2,1
    1a64:	b7e1                	j	1a2c <print+0x34>
    1a66:	00190783          	lb	a5,1(s2)
    1a6a:	00190c93          	addi	s9,s2,1
    1a6e:	01779963          	bne	a5,s7,1a80 <print+0x88>
    1a72:	02500593          	li	a1,37
    1a76:	854e                	mv	a0,s3
    1a78:	3669                	jal	1602 <printchar>
    1a7a:	0485                	addi	s1,s1,1
    1a7c:	8966                	mv	s2,s9
    1a7e:	b7d5                	j	1a62 <print+0x6a>
    1a80:	dbcd                	beqz	a5,1a32 <print+0x3a>
    1a82:	05578763          	beq	a5,s5,1ad0 <print+0xd8>
    1a86:	00fac863          	blt	s5,a5,1a96 <print+0x9e>
    1a8a:	02300713          	li	a4,35
    1a8e:	04e78463          	beq	a5,a4,1ad6 <print+0xde>
    1a92:	4781                	li	a5,0
    1a94:	a005                	j	1ab4 <print+0xbc>
    1a96:	02d00713          	li	a4,45
    1a9a:	00e78a63          	beq	a5,a4,1aae <print+0xb6>
    1a9e:	03000713          	li	a4,48
    1aa2:	fee798e3          	bne	a5,a4,1a92 <print+0x9a>
    1aa6:	00290c93          	addi	s9,s2,2
    1aaa:	4789                	li	a5,2
    1aac:	a021                	j	1ab4 <print+0xbc>
    1aae:	00290c93          	addi	s9,s2,2
    1ab2:	4785                	li	a5,1
    1ab4:	000c8703          	lb	a4,0(s9)
    1ab8:	05570363          	beq	a4,s5,1afe <print+0x106>
    1abc:	02eac163          	blt	s5,a4,1ade <print+0xe6>
    1ac0:	02300693          	li	a3,35
    1ac4:	02d70b63          	beq	a4,a3,1afa <print+0x102>
    1ac8:	8966                	mv	s2,s9
    1aca:	4601                	li	a2,0
    1acc:	45a5                	li	a1,9
    1ace:	a835                	j	1b0a <print+0x112>
    1ad0:	00290c93          	addi	s9,s2,2
    1ad4:	bf7d                	j	1a92 <print+0x9a>
    1ad6:	00290c93          	addi	s9,s2,2
    1ada:	4791                	li	a5,4
    1adc:	bfe1                	j	1ab4 <print+0xbc>
    1ade:	02d00693          	li	a3,45
    1ae2:	00d70963          	beq	a4,a3,1af4 <print+0xfc>
    1ae6:	03000693          	li	a3,48
    1aea:	fcd71fe3          	bne	a4,a3,1ac8 <print+0xd0>
    1aee:	0027e793          	ori	a5,a5,2
    1af2:	a031                	j	1afe <print+0x106>
    1af4:	0c85                	addi	s9,s9,1
    1af6:	4785                	li	a5,1
    1af8:	bfc1                	j	1ac8 <print+0xd0>
    1afa:	0047e793          	ori	a5,a5,4
    1afe:	0c85                	addi	s9,s9,1
    1b00:	b7e1                	j	1ac8 <print+0xd0>
    1b02:	03860633          	mul	a2,a2,s8
    1b06:	0905                	addi	s2,s2,1
    1b08:	9636                	add	a2,a2,a3
    1b0a:	00090703          	lb	a4,0(s2)
    1b0e:	fd070693          	addi	a3,a4,-48
    1b12:	0ff6f513          	andi	a0,a3,255
    1b16:	fea5f6e3          	bgeu	a1,a0,1b02 <print+0x10a>
    1b1a:	02e00593          	li	a1,46
    1b1e:	4699                	li	a3,6
    1b20:	00b71e63          	bne	a4,a1,1b3c <print+0x144>
    1b24:	0905                	addi	s2,s2,1
    1b26:	4681                	li	a3,0
    1b28:	45a5                	li	a1,9
    1b2a:	00090703          	lb	a4,0(s2)
    1b2e:	fd070713          	addi	a4,a4,-48
    1b32:	0ff77513          	andi	a0,a4,255
    1b36:	02a5f563          	bgeu	a1,a0,1b60 <print+0x168>
    1b3a:	8a36                	mv	s4,a3
    1b3c:	00090703          	lb	a4,0(s2)
    1b40:	06a00593          	li	a1,106
    1b44:	0ab70863          	beq	a4,a1,1bf4 <print+0x1fc>
    1b48:	02e5c163          	blt	a1,a4,1b6a <print+0x172>
    1b4c:	04c00593          	li	a1,76
    1b50:	0ab70263          	beq	a4,a1,1bf4 <print+0x1fc>
    1b54:	06800593          	li	a1,104
    1b58:	08b70763          	beq	a4,a1,1be6 <print+0x1ee>
    1b5c:	4581                	li	a1,0
    1b5e:	a81d                	j	1b94 <print+0x19c>
    1b60:	038686b3          	mul	a3,a3,s8
    1b64:	0905                	addi	s2,s2,1
    1b66:	96ba                	add	a3,a3,a4
    1b68:	b7c9                	j	1b2a <print+0x132>
    1b6a:	07400593          	li	a1,116
    1b6e:	08b70363          	beq	a4,a1,1bf4 <print+0x1fc>
    1b72:	07a00593          	li	a1,122
    1b76:	06b70f63          	beq	a4,a1,1bf4 <print+0x1fc>
    1b7a:	06c00513          	li	a0,108
    1b7e:	4581                	li	a1,0
    1b80:	00a71a63          	bne	a4,a0,1b94 <print+0x19c>
    1b84:	00190503          	lb	a0,1(s2)
    1b88:	458d                	li	a1,3
    1b8a:	00e51463          	bne	a0,a4,1b92 <print+0x19a>
    1b8e:	0905                	addi	s2,s2,1
    1b90:	4591                	li	a1,4
    1b92:	0905                	addi	s2,s2,1
    1b94:	00090703          	lb	a4,0(s2)
    1b98:	06000513          	li	a0,96
    1b9c:	06100813          	li	a6,97
    1ba0:	00e54463          	blt	a0,a4,1ba8 <print+0x1b0>
    1ba4:	04100813          	li	a6,65
    1ba8:	06700513          	li	a0,103
    1bac:	06e54163          	blt	a0,a4,1c0e <print+0x216>
    1bb0:	06500513          	li	a0,101
    1bb4:	14a75d63          	bge	a4,a0,1d0e <print+0x316>
    1bb8:	04700513          	li	a0,71
    1bbc:	02e54e63          	blt	a0,a4,1bf8 <print+0x200>
    1bc0:	04500593          	li	a1,69
    1bc4:	14b75563          	bge	a4,a1,1d0e <print+0x316>
    1bc8:	04300693          	li	a3,67
    1bcc:	e8d71be3          	bne	a4,a3,1a62 <print+0x6a>
    1bd0:	4018                	lw	a4,0(s0)
    1bd2:	00440c93          	addi	s9,s0,4
    1bd6:	000106a3          	sb	zero,13(sp)
    1bda:	00e10623          	sb	a4,12(sp)
    1bde:	86be                	mv	a3,a5
    1be0:	4701                	li	a4,0
    1be2:	006c                	addi	a1,sp,12
    1be4:	a051                	j	1c68 <print+0x270>
    1be6:	00190503          	lb	a0,1(s2)
    1bea:	4581                	li	a1,0
    1bec:	fae514e3          	bne	a0,a4,1b94 <print+0x19c>
    1bf0:	0909                	addi	s2,s2,2
    1bf2:	b74d                	j	1b94 <print+0x19c>
    1bf4:	0905                	addi	s2,s2,1
    1bf6:	b79d                	j	1b5c <print+0x164>
    1bf8:	06300693          	li	a3,99
    1bfc:	fcd70ae3          	beq	a4,a3,1bd0 <print+0x1d8>
    1c00:	06e6ca63          	blt	a3,a4,1c74 <print+0x27c>
    1c04:	05800693          	li	a3,88
    1c08:	02d70363          	beq	a4,a3,1c2e <print+0x236>
    1c0c:	bd99                	j	1a62 <print+0x6a>
    1c0e:	07300693          	li	a3,115
    1c12:	04d70363          	beq	a4,a3,1c58 <print+0x260>
    1c16:	02e6ca63          	blt	a3,a4,1c4a <print+0x252>
    1c1a:	06f00693          	li	a3,111
    1c1e:	0cd70363          	beq	a4,a3,1ce4 <print+0x2ec>
    1c22:	07000693          	li	a3,112
    1c26:	0047e793          	ori	a5,a5,4
    1c2a:	e2d71ce3          	bne	a4,a3,1a62 <print+0x6a>
    1c2e:	4711                	li	a4,4
    1c30:	0ae59363          	bne	a1,a4,1cd6 <print+0x2de>
    1c34:	041d                	addi	s0,s0,7
    1c36:	ff847593          	andi	a1,s0,-8
    1c3a:	88c2                	mv	a7,a6
    1c3c:	00858413          	addi	s0,a1,8
    1c40:	883e                	mv	a6,a5
    1c42:	4701                	li	a4,0
    1c44:	87b2                	mv	a5,a2
    1c46:	46c1                	li	a3,16
    1c48:	a099                	j	1c8e <print+0x296>
    1c4a:	07500693          	li	a3,117
    1c4e:	06d70163          	beq	a4,a3,1cb0 <print+0x2b8>
    1c52:	07800693          	li	a3,120
    1c56:	bf4d                	j	1c08 <print+0x210>
    1c58:	4018                	lw	a4,0(s0)
    1c5a:	00440c93          	addi	s9,s0,4
    1c5e:	85da                	mv	a1,s6
    1c60:	c311                	beqz	a4,1c64 <print+0x26c>
    1c62:	85ba                	mv	a1,a4
    1c64:	8752                	mv	a4,s4
    1c66:	86be                	mv	a3,a5
    1c68:	854e                	mv	a0,s3
    1c6a:	9e3ff0ef          	jal	ra,164c <prints>
    1c6e:	94aa                	add	s1,s1,a0
    1c70:	8466                	mv	s0,s9
    1c72:	bbc5                	j	1a62 <print+0x6a>
    1c74:	4711                	li	a4,4
    1c76:	02e59363          	bne	a1,a4,1c9c <print+0x2a4>
    1c7a:	041d                	addi	s0,s0,7
    1c7c:	ff847593          	andi	a1,s0,-8
    1c80:	88c2                	mv	a7,a6
    1c82:	00858413          	addi	s0,a1,8
    1c86:	883e                	mv	a6,a5
    1c88:	4705                	li	a4,1
    1c8a:	87b2                	mv	a5,a2
    1c8c:	46a9                	li	a3,10
    1c8e:	41d0                	lw	a2,4(a1)
    1c90:	418c                	lw	a1,0(a1)
    1c92:	854e                	mv	a0,s3
    1c94:	b79ff0ef          	jal	ra,180c <printLongLongInt>
    1c98:	94aa                	add	s1,s1,a0
    1c9a:	b3e1                	j	1a62 <print+0x6a>
    1c9c:	400c                	lw	a1,0(s0)
    1c9e:	88d2                	mv	a7,s4
    1ca0:	0411                	addi	s0,s0,4
    1ca2:	8732                	mv	a4,a2
    1ca4:	4685                	li	a3,1
    1ca6:	4629                	li	a2,10
    1ca8:	854e                	mv	a0,s3
    1caa:	a7bff0ef          	jal	ra,1724 <printInt>
    1cae:	b7ed                	j	1c98 <print+0x2a0>
    1cb0:	4711                	li	a4,4
    1cb2:	00e59c63          	bne	a1,a4,1cca <print+0x2d2>
    1cb6:	041d                	addi	s0,s0,7
    1cb8:	ff847593          	andi	a1,s0,-8
    1cbc:	88c2                	mv	a7,a6
    1cbe:	00858413          	addi	s0,a1,8
    1cc2:	883e                	mv	a6,a5
    1cc4:	4701                	li	a4,0
    1cc6:	87b2                	mv	a5,a2
    1cc8:	b7d1                	j	1c8c <print+0x294>
    1cca:	400c                	lw	a1,0(s0)
    1ccc:	88d2                	mv	a7,s4
    1cce:	0411                	addi	s0,s0,4
    1cd0:	8732                	mv	a4,a2
    1cd2:	4681                	li	a3,0
    1cd4:	bfc9                	j	1ca6 <print+0x2ae>
    1cd6:	400c                	lw	a1,0(s0)
    1cd8:	8732                	mv	a4,a2
    1cda:	0411                	addi	s0,s0,4
    1cdc:	88d2                	mv	a7,s4
    1cde:	4681                	li	a3,0
    1ce0:	4641                	li	a2,16
    1ce2:	b7d9                	j	1ca8 <print+0x2b0>
    1ce4:	4711                	li	a4,4
    1ce6:	00e59d63          	bne	a1,a4,1d00 <print+0x308>
    1cea:	041d                	addi	s0,s0,7
    1cec:	ff847593          	andi	a1,s0,-8
    1cf0:	88c2                	mv	a7,a6
    1cf2:	00858413          	addi	s0,a1,8
    1cf6:	883e                	mv	a6,a5
    1cf8:	4701                	li	a4,0
    1cfa:	87b2                	mv	a5,a2
    1cfc:	46a1                	li	a3,8
    1cfe:	bf41                	j	1c8e <print+0x296>
    1d00:	400c                	lw	a1,0(s0)
    1d02:	8732                	mv	a4,a2
    1d04:	0411                	addi	s0,s0,4
    1d06:	88d2                	mv	a7,s4
    1d08:	4681                	li	a3,0
    1d0a:	4621                	li	a2,8
    1d0c:	bf71                	j	1ca8 <print+0x2b0>
    1d0e:	041d                	addi	s0,s0,7
    1d10:	ff847593          	andi	a1,s0,-8
    1d14:	40d60733          	sub	a4,a2,a3
    1d18:	00858413          	addi	s0,a1,8
    1d1c:	41d0                	lw	a2,4(a1)
    1d1e:	418c                	lw	a1,0(a1)
    1d20:	88c2                	mv	a7,a6
    1d22:	177d                	addi	a4,a4,-1
    1d24:	883e                	mv	a6,a5
    1d26:	854e                	mv	a0,s3
    1d28:	87b6                	mv	a5,a3
    1d2a:	46a9                	li	a3,10
    1d2c:	36d5                	jal	1910 <printDouble>
    1d2e:	b7ad                	j	1c98 <print+0x2a0>

00001d30 <printf>:
    1d30:	7139                	addi	sp,sp,-64
    1d32:	d22e                	sw	a1,36(sp)
    1d34:	d432                	sw	a2,40(sp)
    1d36:	85aa                	mv	a1,a0
    1d38:	1050                	addi	a2,sp,36
    1d3a:	4501                	li	a0,0
    1d3c:	ce06                	sw	ra,28(sp)
    1d3e:	d636                	sw	a3,44(sp)
    1d40:	d83a                	sw	a4,48(sp)
    1d42:	da3e                	sw	a5,52(sp)
    1d44:	dc42                	sw	a6,56(sp)
    1d46:	de46                	sw	a7,60(sp)
    1d48:	c632                	sw	a2,12(sp)
    1d4a:	317d                	jal	19f8 <print>
    1d4c:	40f2                	lw	ra,28(sp)
    1d4e:	6121                	addi	sp,sp,64
    1d50:	8082                	ret

00001d52 <puts>:
    1d52:	1101                	addi	sp,sp,-32
    1d54:	cc22                	sw	s0,24(sp)
    1d56:	ca26                	sw	s1,20(sp)
    1d58:	ce06                	sw	ra,28(sp)
    1d5a:	00054783          	lbu	a5,0(a0)
    1d5e:	84aa                	mv	s1,a0
    1d60:	4401                	li	s0,0
    1d62:	00f107a3          	sb	a5,15(sp)
    1d66:	00f10783          	lb	a5,15(sp)
    1d6a:	0405                	addi	s0,s0,1
    1d6c:	e385                	bnez	a5,1d8c <puts+0x3a>
    1d6e:	47a9                	li	a5,10
    1d70:	00f10593          	addi	a1,sp,15
    1d74:	4605                	li	a2,1
    1d76:	4501                	li	a0,0
    1d78:	00f107a3          	sb	a5,15(sp)
    1d7c:	f96ff0ef          	jal	ra,1512 <_write>
    1d80:	8522                	mv	a0,s0
    1d82:	40f2                	lw	ra,28(sp)
    1d84:	4462                	lw	s0,24(sp)
    1d86:	44d2                	lw	s1,20(sp)
    1d88:	6105                	addi	sp,sp,32
    1d8a:	8082                	ret
    1d8c:	4605                	li	a2,1
    1d8e:	00f10593          	addi	a1,sp,15
    1d92:	4501                	li	a0,0
    1d94:	f7eff0ef          	jal	ra,1512 <_write>
    1d98:	008487b3          	add	a5,s1,s0
    1d9c:	0007c783          	lbu	a5,0(a5)
    1da0:	00f107a3          	sb	a5,15(sp)
    1da4:	b7c9                	j	1d66 <puts+0x14>

00001da6 <__udivdi3>:
    1da6:	87b6                	mv	a5,a3
    1da8:	88b2                	mv	a7,a2
    1daa:	832a                	mv	t1,a0
    1dac:	882e                	mv	a6,a1
    1dae:	14069d63          	bnez	a3,1f08 <__udivdi3+0x162>
    1db2:	0ac5f963          	bgeu	a1,a2,1e64 <__udivdi3+0xbe>
    1db6:	6741                	lui	a4,0x10
    1db8:	1ae66e63          	bltu	a2,a4,1f74 <__udivdi3+0x1ce>
    1dbc:	010007b7          	lui	a5,0x1000
    1dc0:	34f66363          	bltu	a2,a5,2106 <__udivdi3+0x360>
    1dc4:	01865693          	srli	a3,a2,0x18
    1dc8:	47e1                	li	a5,24
    1dca:	00008717          	auipc	a4,0x8
    1dce:	bd270713          	addi	a4,a4,-1070 # 999c <__clz_tab>
    1dd2:	9736                	add	a4,a4,a3
    1dd4:	00074703          	lbu	a4,0(a4)
    1dd8:	97ba                	add	a5,a5,a4
    1dda:	02000713          	li	a4,32
    1dde:	8f1d                	sub	a4,a4,a5
    1de0:	cb19                	beqz	a4,1df6 <__udivdi3+0x50>
    1de2:	00e59833          	sll	a6,a1,a4
    1de6:	00f557b3          	srl	a5,a0,a5
    1dea:	00e618b3          	sll	a7,a2,a4
    1dee:	0107e833          	or	a6,a5,a6
    1df2:	00e51333          	sll	t1,a0,a4
    1df6:	0108d613          	srli	a2,a7,0x10
    1dfa:	02c85533          	divu	a0,a6,a2
    1dfe:	01089693          	slli	a3,a7,0x10
    1e02:	82c1                	srli	a3,a3,0x10
    1e04:	01035793          	srli	a5,t1,0x10
    1e08:	02c87733          	remu	a4,a6,a2
    1e0c:	02a685b3          	mul	a1,a3,a0
    1e10:	0742                	slli	a4,a4,0x10
    1e12:	00f76833          	or	a6,a4,a5
    1e16:	00b87a63          	bgeu	a6,a1,1e2a <__udivdi3+0x84>
    1e1a:	9846                	add	a6,a6,a7
    1e1c:	fff50793          	addi	a5,a0,-1
    1e20:	01186463          	bltu	a6,a7,1e28 <__udivdi3+0x82>
    1e24:	30b86763          	bltu	a6,a1,2132 <__udivdi3+0x38c>
    1e28:	853e                	mv	a0,a5
    1e2a:	40b80833          	sub	a6,a6,a1
    1e2e:	02c85733          	divu	a4,a6,a2
    1e32:	0342                	slli	t1,t1,0x10
    1e34:	01035313          	srli	t1,t1,0x10
    1e38:	02c87833          	remu	a6,a6,a2
    1e3c:	02e686b3          	mul	a3,a3,a4
    1e40:	0842                	slli	a6,a6,0x10
    1e42:	00686833          	or	a6,a6,t1
    1e46:	00d87b63          	bgeu	a6,a3,1e5c <__udivdi3+0xb6>
    1e4a:	9846                	add	a6,a6,a7
    1e4c:	fff70793          	addi	a5,a4,-1
    1e50:	01186563          	bltu	a6,a7,1e5a <__udivdi3+0xb4>
    1e54:	1779                	addi	a4,a4,-2
    1e56:	00d86363          	bltu	a6,a3,1e5c <__udivdi3+0xb6>
    1e5a:	873e                	mv	a4,a5
    1e5c:	0542                	slli	a0,a0,0x10
    1e5e:	8d59                	or	a0,a0,a4
    1e60:	4581                	li	a1,0
    1e62:	8082                	ret
    1e64:	e601                	bnez	a2,1e6c <__udivdi3+0xc6>
    1e66:	4705                	li	a4,1
    1e68:	02c758b3          	divu	a7,a4,a2
    1e6c:	6741                	lui	a4,0x10
    1e6e:	0ee8ea63          	bltu	a7,a4,1f62 <__udivdi3+0x1bc>
    1e72:	010007b7          	lui	a5,0x1000
    1e76:	28f8ec63          	bltu	a7,a5,210e <__udivdi3+0x368>
    1e7a:	0188d693          	srli	a3,a7,0x18
    1e7e:	47e1                	li	a5,24
    1e80:	00008717          	auipc	a4,0x8
    1e84:	b1c70713          	addi	a4,a4,-1252 # 999c <__clz_tab>
    1e88:	9736                	add	a4,a4,a3
    1e8a:	00074683          	lbu	a3,0(a4)
    1e8e:	96be                	add	a3,a3,a5
    1e90:	02000793          	li	a5,32
    1e94:	8f95                	sub	a5,a5,a3
    1e96:	ebe5                	bnez	a5,1f86 <__udivdi3+0x1e0>
    1e98:	01089e93          	slli	t4,a7,0x10
    1e9c:	41158733          	sub	a4,a1,a7
    1ea0:	0108df13          	srli	t5,a7,0x10
    1ea4:	010ede93          	srli	t4,t4,0x10
    1ea8:	4585                	li	a1,1
    1eaa:	01035793          	srli	a5,t1,0x10
    1eae:	03e75533          	divu	a0,a4,t5
    1eb2:	03e77733          	remu	a4,a4,t5
    1eb6:	03d506b3          	mul	a3,a0,t4
    1eba:	0742                	slli	a4,a4,0x10
    1ebc:	8fd9                	or	a5,a5,a4
    1ebe:	00d7fa63          	bgeu	a5,a3,1ed2 <__udivdi3+0x12c>
    1ec2:	97c6                	add	a5,a5,a7
    1ec4:	fff50713          	addi	a4,a0,-1
    1ec8:	0117e463          	bltu	a5,a7,1ed0 <__udivdi3+0x12a>
    1ecc:	26d7e663          	bltu	a5,a3,2138 <__udivdi3+0x392>
    1ed0:	853a                	mv	a0,a4
    1ed2:	8f95                	sub	a5,a5,a3
    1ed4:	03e7d733          	divu	a4,a5,t5
    1ed8:	0342                	slli	t1,t1,0x10
    1eda:	01035313          	srli	t1,t1,0x10
    1ede:	03e7f7b3          	remu	a5,a5,t5
    1ee2:	03d70eb3          	mul	t4,a4,t4
    1ee6:	07c2                	slli	a5,a5,0x10
    1ee8:	0067e7b3          	or	a5,a5,t1
    1eec:	01d7fb63          	bgeu	a5,t4,1f02 <__udivdi3+0x15c>
    1ef0:	97c6                	add	a5,a5,a7
    1ef2:	fff70693          	addi	a3,a4,-1
    1ef6:	0117e563          	bltu	a5,a7,1f00 <__udivdi3+0x15a>
    1efa:	1779                	addi	a4,a4,-2
    1efc:	01d7e363          	bltu	a5,t4,1f02 <__udivdi3+0x15c>
    1f00:	8736                	mv	a4,a3
    1f02:	0542                	slli	a0,a0,0x10
    1f04:	8d59                	or	a0,a0,a4
    1f06:	8082                	ret
    1f08:	04d5e263          	bltu	a1,a3,1f4c <__udivdi3+0x1a6>
    1f0c:	67c1                	lui	a5,0x10
    1f0e:	04f6e263          	bltu	a3,a5,1f52 <__udivdi3+0x1ac>
    1f12:	010007b7          	lui	a5,0x1000
    1f16:	1ef6e463          	bltu	a3,a5,20fe <__udivdi3+0x358>
    1f1a:	0186d713          	srli	a4,a3,0x18
    1f1e:	4861                	li	a6,24
    1f20:	00008797          	auipc	a5,0x8
    1f24:	a7c78793          	addi	a5,a5,-1412 # 999c <__clz_tab>
    1f28:	97ba                	add	a5,a5,a4
    1f2a:	0007c703          	lbu	a4,0(a5)
    1f2e:	02000e13          	li	t3,32
    1f32:	9742                	add	a4,a4,a6
    1f34:	40ee0e33          	sub	t3,t3,a4
    1f38:	0c0e1a63          	bnez	t3,200c <__udivdi3+0x266>
    1f3c:	1cb6ed63          	bltu	a3,a1,2116 <__udivdi3+0x370>
    1f40:	00c53533          	sltu	a0,a0,a2
    1f44:	00154513          	xori	a0,a0,1
    1f48:	4581                	li	a1,0
    1f4a:	8082                	ret
    1f4c:	4581                	li	a1,0
    1f4e:	4501                	li	a0,0
    1f50:	8082                	ret
    1f52:	0ff00793          	li	a5,255
    1f56:	1cd7f363          	bgeu	a5,a3,211c <__udivdi3+0x376>
    1f5a:	0086d713          	srli	a4,a3,0x8
    1f5e:	4821                	li	a6,8
    1f60:	b7c1                	j	1f20 <__udivdi3+0x17a>
    1f62:	0ff00713          	li	a4,255
    1f66:	86c6                	mv	a3,a7
    1f68:	f1177ce3          	bgeu	a4,a7,1e80 <__udivdi3+0xda>
    1f6c:	0088d693          	srli	a3,a7,0x8
    1f70:	47a1                	li	a5,8
    1f72:	b739                	j	1e80 <__udivdi3+0xda>
    1f74:	0ff00713          	li	a4,255
    1f78:	86b2                	mv	a3,a2
    1f7a:	e4c778e3          	bgeu	a4,a2,1dca <__udivdi3+0x24>
    1f7e:	00865693          	srli	a3,a2,0x8
    1f82:	47a1                	li	a5,8
    1f84:	b599                	j	1dca <__udivdi3+0x24>
    1f86:	00f898b3          	sll	a7,a7,a5
    1f8a:	00d5d633          	srl	a2,a1,a3
    1f8e:	0108df13          	srli	t5,a7,0x10
    1f92:	03e65e33          	divu	t3,a2,t5
    1f96:	00f59733          	sll	a4,a1,a5
    1f9a:	00d556b3          	srl	a3,a0,a3
    1f9e:	8f55                	or	a4,a4,a3
    1fa0:	01089e93          	slli	t4,a7,0x10
    1fa4:	010ede93          	srli	t4,t4,0x10
    1fa8:	00f51333          	sll	t1,a0,a5
    1fac:	01075593          	srli	a1,a4,0x10
    1fb0:	03e676b3          	remu	a3,a2,t5
    1fb4:	03ce87b3          	mul	a5,t4,t3
    1fb8:	06c2                	slli	a3,a3,0x10
    1fba:	8ecd                	or	a3,a3,a1
    1fbc:	00f6fb63          	bgeu	a3,a5,1fd2 <__udivdi3+0x22c>
    1fc0:	96c6                	add	a3,a3,a7
    1fc2:	fffe0613          	addi	a2,t3,-1
    1fc6:	1716e463          	bltu	a3,a7,212e <__udivdi3+0x388>
    1fca:	16f6f263          	bgeu	a3,a5,212e <__udivdi3+0x388>
    1fce:	1e79                	addi	t3,t3,-2
    1fd0:	96c6                	add	a3,a3,a7
    1fd2:	8e9d                	sub	a3,a3,a5
    1fd4:	03e6d633          	divu	a2,a3,t5
    1fd8:	01071793          	slli	a5,a4,0x10
    1fdc:	83c1                	srli	a5,a5,0x10
    1fde:	03e6f6b3          	remu	a3,a3,t5
    1fe2:	02ce8533          	mul	a0,t4,a2
    1fe6:	01069713          	slli	a4,a3,0x10
    1fea:	8f5d                	or	a4,a4,a5
    1fec:	00a77b63          	bgeu	a4,a0,2002 <__udivdi3+0x25c>
    1ff0:	9746                	add	a4,a4,a7
    1ff2:	fff60793          	addi	a5,a2,-1
    1ff6:	13176863          	bltu	a4,a7,2126 <__udivdi3+0x380>
    1ffa:	12a77663          	bgeu	a4,a0,2126 <__udivdi3+0x380>
    1ffe:	1679                	addi	a2,a2,-2
    2000:	9746                	add	a4,a4,a7
    2002:	010e1593          	slli	a1,t3,0x10
    2006:	8f09                	sub	a4,a4,a0
    2008:	8dd1                	or	a1,a1,a2
    200a:	b545                	j	1eaa <__udivdi3+0x104>
    200c:	00e657b3          	srl	a5,a2,a4
    2010:	01c696b3          	sll	a3,a3,t3
    2014:	8edd                	or	a3,a3,a5
    2016:	00e5d333          	srl	t1,a1,a4
    201a:	0106df13          	srli	t5,a3,0x10
    201e:	03e357b3          	divu	a5,t1,t5
    2022:	01069e93          	slli	t4,a3,0x10
    2026:	010ede93          	srli	t4,t4,0x10
    202a:	01c59833          	sll	a6,a1,t3
    202e:	00e55733          	srl	a4,a0,a4
    2032:	01076833          	or	a6,a4,a6
    2036:	01085893          	srli	a7,a6,0x10
    203a:	01c61633          	sll	a2,a2,t3
    203e:	03e37333          	remu	t1,t1,t5
    2042:	02fe85b3          	mul	a1,t4,a5
    2046:	0342                	slli	t1,t1,0x10
    2048:	011368b3          	or	a7,t1,a7
    204c:	00b8fb63          	bgeu	a7,a1,2062 <__udivdi3+0x2bc>
    2050:	98b6                	add	a7,a7,a3
    2052:	fff78713          	addi	a4,a5,-1
    2056:	0cd8ea63          	bltu	a7,a3,212a <__udivdi3+0x384>
    205a:	0cb8f863          	bgeu	a7,a1,212a <__udivdi3+0x384>
    205e:	17f9                	addi	a5,a5,-2
    2060:	98b6                	add	a7,a7,a3
    2062:	40b888b3          	sub	a7,a7,a1
    2066:	03e8d733          	divu	a4,a7,t5
    206a:	0842                	slli	a6,a6,0x10
    206c:	01085813          	srli	a6,a6,0x10
    2070:	03e8f8b3          	remu	a7,a7,t5
    2074:	02ee8333          	mul	t1,t4,a4
    2078:	08c2                	slli	a7,a7,0x10
    207a:	0108e5b3          	or	a1,a7,a6
    207e:	0065fb63          	bgeu	a1,t1,2094 <__udivdi3+0x2ee>
    2082:	95b6                	add	a1,a1,a3
    2084:	fff70813          	addi	a6,a4,-1
    2088:	08d5ed63          	bltu	a1,a3,2122 <__udivdi3+0x37c>
    208c:	0865fb63          	bgeu	a1,t1,2122 <__udivdi3+0x37c>
    2090:	1779                	addi	a4,a4,-2
    2092:	95b6                	add	a1,a1,a3
    2094:	07c2                	slli	a5,a5,0x10
    2096:	6f41                	lui	t5,0x10
    2098:	8fd9                	or	a5,a5,a4
    209a:	ffff0713          	addi	a4,t5,-1 # ffff <_data_lma+0x61fb>
    209e:	00e7f6b3          	and	a3,a5,a4
    20a2:	0107d893          	srli	a7,a5,0x10
    20a6:	8f71                	and	a4,a4,a2
    20a8:	8241                	srli	a2,a2,0x10
    20aa:	02e68eb3          	mul	t4,a3,a4
    20ae:	406585b3          	sub	a1,a1,t1
    20b2:	02c686b3          	mul	a3,a3,a2
    20b6:	010ed813          	srli	a6,t4,0x10
    20ba:	02e88733          	mul	a4,a7,a4
    20be:	96ba                	add	a3,a3,a4
    20c0:	96c2                	add	a3,a3,a6
    20c2:	02c88633          	mul	a2,a7,a2
    20c6:	00e6f363          	bgeu	a3,a4,20cc <__udivdi3+0x326>
    20ca:	967a                	add	a2,a2,t5
    20cc:	0106d893          	srli	a7,a3,0x10
    20d0:	9646                	add	a2,a2,a7
    20d2:	02c5e263          	bltu	a1,a2,20f6 <__udivdi3+0x350>
    20d6:	00c58563          	beq	a1,a2,20e0 <__udivdi3+0x33a>
    20da:	853e                	mv	a0,a5
    20dc:	4581                	li	a1,0
    20de:	8082                	ret
    20e0:	6741                	lui	a4,0x10
    20e2:	177d                	addi	a4,a4,-1
    20e4:	8ef9                	and	a3,a3,a4
    20e6:	06c2                	slli	a3,a3,0x10
    20e8:	00eefeb3          	and	t4,t4,a4
    20ec:	01c51533          	sll	a0,a0,t3
    20f0:	96f6                	add	a3,a3,t4
    20f2:	fed574e3          	bgeu	a0,a3,20da <__udivdi3+0x334>
    20f6:	fff78513          	addi	a0,a5,-1
    20fa:	4581                	li	a1,0
    20fc:	8082                	ret
    20fe:	0106d713          	srli	a4,a3,0x10
    2102:	4841                	li	a6,16
    2104:	bd31                	j	1f20 <__udivdi3+0x17a>
    2106:	01065693          	srli	a3,a2,0x10
    210a:	47c1                	li	a5,16
    210c:	b97d                	j	1dca <__udivdi3+0x24>
    210e:	0108d693          	srli	a3,a7,0x10
    2112:	47c1                	li	a5,16
    2114:	b3b5                	j	1e80 <__udivdi3+0xda>
    2116:	4581                	li	a1,0
    2118:	4505                	li	a0,1
    211a:	8082                	ret
    211c:	8736                	mv	a4,a3
    211e:	4801                	li	a6,0
    2120:	b501                	j	1f20 <__udivdi3+0x17a>
    2122:	8742                	mv	a4,a6
    2124:	bf85                	j	2094 <__udivdi3+0x2ee>
    2126:	863e                	mv	a2,a5
    2128:	bde9                	j	2002 <__udivdi3+0x25c>
    212a:	87ba                	mv	a5,a4
    212c:	bf1d                	j	2062 <__udivdi3+0x2bc>
    212e:	8e32                	mv	t3,a2
    2130:	b54d                	j	1fd2 <__udivdi3+0x22c>
    2132:	1579                	addi	a0,a0,-2
    2134:	9846                	add	a6,a6,a7
    2136:	b9d5                	j	1e2a <__udivdi3+0x84>
    2138:	1579                	addi	a0,a0,-2
    213a:	97c6                	add	a5,a5,a7
    213c:	bb59                	j	1ed2 <__udivdi3+0x12c>

0000213e <__umoddi3>:
    213e:	87b6                	mv	a5,a3
    2140:	8832                	mv	a6,a2
    2142:	832a                	mv	t1,a0
    2144:	872e                	mv	a4,a1
    2146:	8e2e                	mv	t3,a1
    2148:	14069363          	bnez	a3,228e <__umoddi3+0x150>
    214c:	0ac5f163          	bgeu	a1,a2,21ee <__umoddi3+0xb0>
    2150:	6741                	lui	a4,0x10
    2152:	1ae67863          	bgeu	a2,a4,2302 <__umoddi3+0x1c4>
    2156:	0ff00713          	li	a4,255
    215a:	86b2                	mv	a3,a2
    215c:	00c77563          	bgeu	a4,a2,2166 <__umoddi3+0x28>
    2160:	00865693          	srli	a3,a2,0x8
    2164:	47a1                	li	a5,8
    2166:	00008717          	auipc	a4,0x8
    216a:	83670713          	addi	a4,a4,-1994 # 999c <__clz_tab>
    216e:	9736                	add	a4,a4,a3
    2170:	00074703          	lbu	a4,0(a4)
    2174:	02000893          	li	a7,32
    2178:	97ba                	add	a5,a5,a4
    217a:	40f888b3          	sub	a7,a7,a5
    217e:	00088c63          	beqz	a7,2196 <__umoddi3+0x58>
    2182:	011595b3          	sll	a1,a1,a7
    2186:	00f557b3          	srl	a5,a0,a5
    218a:	01161833          	sll	a6,a2,a7
    218e:	00b7ee33          	or	t3,a5,a1
    2192:	01151333          	sll	t1,a0,a7
    2196:	01085613          	srli	a2,a6,0x10
    219a:	02ce57b3          	divu	a5,t3,a2
    219e:	01081513          	slli	a0,a6,0x10
    21a2:	8141                	srli	a0,a0,0x10
    21a4:	01035693          	srli	a3,t1,0x10
    21a8:	02ce7e33          	remu	t3,t3,a2
    21ac:	02f507b3          	mul	a5,a0,a5
    21b0:	0e42                	slli	t3,t3,0x10
    21b2:	00de6733          	or	a4,t3,a3
    21b6:	00f77863          	bgeu	a4,a5,21c6 <__umoddi3+0x88>
    21ba:	9742                	add	a4,a4,a6
    21bc:	01076563          	bltu	a4,a6,21c6 <__umoddi3+0x88>
    21c0:	00f77363          	bgeu	a4,a5,21c6 <__umoddi3+0x88>
    21c4:	9742                	add	a4,a4,a6
    21c6:	8f1d                	sub	a4,a4,a5
    21c8:	02c756b3          	divu	a3,a4,a2
    21cc:	01031793          	slli	a5,t1,0x10
    21d0:	83c1                	srli	a5,a5,0x10
    21d2:	02c77733          	remu	a4,a4,a2
    21d6:	02d50533          	mul	a0,a0,a3
    21da:	0742                	slli	a4,a4,0x10
    21dc:	8fd9                	or	a5,a5,a4
    21de:	08a7ec63          	bltu	a5,a0,2276 <__umoddi3+0x138>
    21e2:	40a78533          	sub	a0,a5,a0
    21e6:	01155533          	srl	a0,a0,a7
    21ea:	4581                	li	a1,0
    21ec:	8082                	ret
    21ee:	e601                	bnez	a2,21f6 <__umoddi3+0xb8>
    21f0:	4705                	li	a4,1
    21f2:	02c75833          	divu	a6,a4,a2
    21f6:	6741                	lui	a4,0x10
    21f8:	0ee86c63          	bltu	a6,a4,22f0 <__umoddi3+0x1b2>
    21fc:	010007b7          	lui	a5,0x1000
    2200:	2af86563          	bltu	a6,a5,24aa <__umoddi3+0x36c>
    2204:	01885693          	srli	a3,a6,0x18
    2208:	47e1                	li	a5,24
    220a:	00007717          	auipc	a4,0x7
    220e:	79270713          	addi	a4,a4,1938 # 999c <__clz_tab>
    2212:	9736                	add	a4,a4,a3
    2214:	00074703          	lbu	a4,0(a4)
    2218:	02000893          	li	a7,32
    221c:	97ba                	add	a5,a5,a4
    221e:	40f888b3          	sub	a7,a7,a5
    2222:	1e089a63          	bnez	a7,2416 <__umoddi3+0x2d8>
    2226:	01081e13          	slli	t3,a6,0x10
    222a:	410585b3          	sub	a1,a1,a6
    222e:	01085613          	srli	a2,a6,0x10
    2232:	010e5e13          	srli	t3,t3,0x10
    2236:	01035713          	srli	a4,t1,0x10
    223a:	02c5d6b3          	divu	a3,a1,a2
    223e:	02c5f5b3          	remu	a1,a1,a2
    2242:	03c686b3          	mul	a3,a3,t3
    2246:	05c2                	slli	a1,a1,0x10
    2248:	8f4d                	or	a4,a4,a1
    224a:	00d77763          	bgeu	a4,a3,2258 <__umoddi3+0x11a>
    224e:	9742                	add	a4,a4,a6
    2250:	01076463          	bltu	a4,a6,2258 <__umoddi3+0x11a>
    2254:	26d76a63          	bltu	a4,a3,24c8 <__umoddi3+0x38a>
    2258:	8f15                	sub	a4,a4,a3
    225a:	02c75533          	divu	a0,a4,a2
    225e:	0342                	slli	t1,t1,0x10
    2260:	01035313          	srli	t1,t1,0x10
    2264:	02c77733          	remu	a4,a4,a2
    2268:	03c50533          	mul	a0,a0,t3
    226c:	0742                	slli	a4,a4,0x10
    226e:	006767b3          	or	a5,a4,t1
    2272:	00a7f863          	bgeu	a5,a0,2282 <__umoddi3+0x144>
    2276:	97c2                	add	a5,a5,a6
    2278:	0107e563          	bltu	a5,a6,2282 <__umoddi3+0x144>
    227c:	00a7f363          	bgeu	a5,a0,2282 <__umoddi3+0x144>
    2280:	97c2                	add	a5,a5,a6
    2282:	40a78533          	sub	a0,a5,a0
    2286:	01155533          	srl	a0,a0,a7
    228a:	4581                	li	a1,0
    228c:	8082                	ret
    228e:	882a                	mv	a6,a0
    2290:	f4d5eee3          	bltu	a1,a3,21ec <__umoddi3+0xae>
    2294:	67c1                	lui	a5,0x10
    2296:	04f6e563          	bltu	a3,a5,22e0 <__umoddi3+0x1a2>
    229a:	010007b7          	lui	a5,0x1000
    229e:	20f6e263          	bltu	a3,a5,24a2 <__umoddi3+0x364>
    22a2:	0186d313          	srli	t1,a3,0x18
    22a6:	48e1                	li	a7,24
    22a8:	00007797          	auipc	a5,0x7
    22ac:	6f478793          	addi	a5,a5,1780 # 999c <__clz_tab>
    22b0:	979a                	add	a5,a5,t1
    22b2:	0007ce03          	lbu	t3,0(a5)
    22b6:	02000313          	li	t1,32
    22ba:	9e46                	add	t3,t3,a7
    22bc:	41c30333          	sub	t1,t1,t3
    22c0:	04031963          	bnez	t1,2312 <__umoddi3+0x1d4>
    22c4:	00b6e463          	bltu	a3,a1,22cc <__umoddi3+0x18e>
    22c8:	00c56963          	bltu	a0,a2,22da <__umoddi3+0x19c>
    22cc:	40c50833          	sub	a6,a0,a2
    22d0:	8d95                	sub	a1,a1,a3
    22d2:	01053733          	sltu	a4,a0,a6
    22d6:	40e58733          	sub	a4,a1,a4
    22da:	8542                	mv	a0,a6
    22dc:	85ba                	mv	a1,a4
    22de:	8082                	ret
    22e0:	0ff00793          	li	a5,255
    22e4:	1cd7fb63          	bgeu	a5,a3,24ba <__umoddi3+0x37c>
    22e8:	0086d313          	srli	t1,a3,0x8
    22ec:	48a1                	li	a7,8
    22ee:	bf6d                	j	22a8 <__umoddi3+0x16a>
    22f0:	0ff00713          	li	a4,255
    22f4:	86c2                	mv	a3,a6
    22f6:	f1077ae3          	bgeu	a4,a6,220a <__umoddi3+0xcc>
    22fa:	00885693          	srli	a3,a6,0x8
    22fe:	47a1                	li	a5,8
    2300:	b729                	j	220a <__umoddi3+0xcc>
    2302:	010007b7          	lui	a5,0x1000
    2306:	1af66663          	bltu	a2,a5,24b2 <__umoddi3+0x374>
    230a:	01865693          	srli	a3,a2,0x18
    230e:	47e1                	li	a5,24
    2310:	bd99                	j	2166 <__umoddi3+0x28>
    2312:	01c657b3          	srl	a5,a2,t3
    2316:	006696b3          	sll	a3,a3,t1
    231a:	8edd                	or	a3,a3,a5
    231c:	01c5d8b3          	srl	a7,a1,t3
    2320:	0106d713          	srli	a4,a3,0x10
    2324:	02e8deb3          	divu	t4,a7,a4
    2328:	01069f13          	slli	t5,a3,0x10
    232c:	01c557b3          	srl	a5,a0,t3
    2330:	010f5f13          	srli	t5,t5,0x10
    2334:	006595b3          	sll	a1,a1,t1
    2338:	8ddd                	or	a1,a1,a5
    233a:	0105d813          	srli	a6,a1,0x10
    233e:	00661633          	sll	a2,a2,t1
    2342:	00651533          	sll	a0,a0,t1
    2346:	02e8f8b3          	remu	a7,a7,a4
    234a:	03df07b3          	mul	a5,t5,t4
    234e:	08c2                	slli	a7,a7,0x10
    2350:	0108e833          	or	a6,a7,a6
    2354:	00f87b63          	bgeu	a6,a5,236a <__umoddi3+0x22c>
    2358:	9836                	add	a6,a6,a3
    235a:	fffe8893          	addi	a7,t4,-1
    235e:	16d86363          	bltu	a6,a3,24c4 <__umoddi3+0x386>
    2362:	16f87163          	bgeu	a6,a5,24c4 <__umoddi3+0x386>
    2366:	1ef9                	addi	t4,t4,-2
    2368:	9836                	add	a6,a6,a3
    236a:	40f80833          	sub	a6,a6,a5
    236e:	02e857b3          	divu	a5,a6,a4
    2372:	05c2                	slli	a1,a1,0x10
    2374:	81c1                	srli	a1,a1,0x10
    2376:	02e87833          	remu	a6,a6,a4
    237a:	02ff0f33          	mul	t5,t5,a5
    237e:	01081713          	slli	a4,a6,0x10
    2382:	8f4d                	or	a4,a4,a1
    2384:	01e77b63          	bgeu	a4,t5,239a <__umoddi3+0x25c>
    2388:	9736                	add	a4,a4,a3
    238a:	fff78593          	addi	a1,a5,-1 # ffffff <_data_lma+0xff61fb>
    238e:	12d76963          	bltu	a4,a3,24c0 <__umoddi3+0x382>
    2392:	13e77763          	bgeu	a4,t5,24c0 <__umoddi3+0x382>
    2396:	17f9                	addi	a5,a5,-2
    2398:	9736                	add	a4,a4,a3
    239a:	0ec2                	slli	t4,t4,0x10
    239c:	62c1                	lui	t0,0x10
    239e:	00feeeb3          	or	t4,t4,a5
    23a2:	fff28813          	addi	a6,t0,-1 # ffff <_data_lma+0x61fb>
    23a6:	010ef8b3          	and	a7,t4,a6
    23aa:	01065593          	srli	a1,a2,0x10
    23ae:	010ede93          	srli	t4,t4,0x10
    23b2:	01067833          	and	a6,a2,a6
    23b6:	03088fb3          	mul	t6,a7,a6
    23ba:	41e70733          	sub	a4,a4,t5
    23be:	030e8833          	mul	a6,t4,a6
    23c2:	010fd793          	srli	a5,t6,0x10
    23c6:	02b888b3          	mul	a7,a7,a1
    23ca:	98c2                	add	a7,a7,a6
    23cc:	97c6                	add	a5,a5,a7
    23ce:	02be8eb3          	mul	t4,t4,a1
    23d2:	0107f363          	bgeu	a5,a6,23d8 <__umoddi3+0x29a>
    23d6:	9e96                	add	t4,t4,t0
    23d8:	6841                	lui	a6,0x10
    23da:	187d                	addi	a6,a6,-1
    23dc:	0107d593          	srli	a1,a5,0x10
    23e0:	0107f7b3          	and	a5,a5,a6
    23e4:	07c2                	slli	a5,a5,0x10
    23e6:	010fffb3          	and	t6,t6,a6
    23ea:	95f6                	add	a1,a1,t4
    23ec:	97fe                	add	a5,a5,t6
    23ee:	0ab76263          	bltu	a4,a1,2492 <__umoddi3+0x354>
    23f2:	08b70e63          	beq	a4,a1,248e <__umoddi3+0x350>
    23f6:	40f507b3          	sub	a5,a0,a5
    23fa:	00f53533          	sltu	a0,a0,a5
    23fe:	40b705b3          	sub	a1,a4,a1
    2402:	8d89                	sub	a1,a1,a0
    2404:	01c59e33          	sll	t3,a1,t3
    2408:	0067d533          	srl	a0,a5,t1
    240c:	00ae6533          	or	a0,t3,a0
    2410:	0065d5b3          	srl	a1,a1,t1
    2414:	8082                	ret
    2416:	01181833          	sll	a6,a6,a7
    241a:	00f5d733          	srl	a4,a1,a5
    241e:	01085613          	srli	a2,a6,0x10
    2422:	02c756b3          	divu	a3,a4,a2
    2426:	01081e13          	slli	t3,a6,0x10
    242a:	00f557b3          	srl	a5,a0,a5
    242e:	010e5e13          	srli	t3,t3,0x10
    2432:	011595b3          	sll	a1,a1,a7
    2436:	8ddd                	or	a1,a1,a5
    2438:	0105de93          	srli	t4,a1,0x10
    243c:	01151333          	sll	t1,a0,a7
    2440:	02c77733          	remu	a4,a4,a2
    2444:	02de07b3          	mul	a5,t3,a3
    2448:	01071693          	slli	a3,a4,0x10
    244c:	01d6e6b3          	or	a3,a3,t4
    2450:	00f6f863          	bgeu	a3,a5,2460 <__umoddi3+0x322>
    2454:	96c2                	add	a3,a3,a6
    2456:	0106e563          	bltu	a3,a6,2460 <__umoddi3+0x322>
    245a:	00f6f363          	bgeu	a3,a5,2460 <__umoddi3+0x322>
    245e:	96c2                	add	a3,a3,a6
    2460:	8e9d                	sub	a3,a3,a5
    2462:	02c6d733          	divu	a4,a3,a2
    2466:	01059793          	slli	a5,a1,0x10
    246a:	83c1                	srli	a5,a5,0x10
    246c:	02c6f6b3          	remu	a3,a3,a2
    2470:	02ee0733          	mul	a4,t3,a4
    2474:	01069593          	slli	a1,a3,0x10
    2478:	8ddd                	or	a1,a1,a5
    247a:	00e5f863          	bgeu	a1,a4,248a <__umoddi3+0x34c>
    247e:	95c2                	add	a1,a1,a6
    2480:	0105e563          	bltu	a1,a6,248a <__umoddi3+0x34c>
    2484:	00e5f363          	bgeu	a1,a4,248a <__umoddi3+0x34c>
    2488:	95c2                	add	a1,a1,a6
    248a:	8d99                	sub	a1,a1,a4
    248c:	b36d                	j	2236 <__umoddi3+0xf8>
    248e:	f6f574e3          	bgeu	a0,a5,23f6 <__umoddi3+0x2b8>
    2492:	40c78633          	sub	a2,a5,a2
    2496:	00c7b7b3          	sltu	a5,a5,a2
    249a:	97b6                	add	a5,a5,a3
    249c:	8d9d                	sub	a1,a1,a5
    249e:	87b2                	mv	a5,a2
    24a0:	bf99                	j	23f6 <__umoddi3+0x2b8>
    24a2:	0106d313          	srli	t1,a3,0x10
    24a6:	48c1                	li	a7,16
    24a8:	b501                	j	22a8 <__umoddi3+0x16a>
    24aa:	01085693          	srli	a3,a6,0x10
    24ae:	47c1                	li	a5,16
    24b0:	bba9                	j	220a <__umoddi3+0xcc>
    24b2:	01065693          	srli	a3,a2,0x10
    24b6:	47c1                	li	a5,16
    24b8:	b17d                	j	2166 <__umoddi3+0x28>
    24ba:	8336                	mv	t1,a3
    24bc:	4881                	li	a7,0
    24be:	b3ed                	j	22a8 <__umoddi3+0x16a>
    24c0:	87ae                	mv	a5,a1
    24c2:	bde1                	j	239a <__umoddi3+0x25c>
    24c4:	8ec6                	mv	t4,a7
    24c6:	b555                	j	236a <__umoddi3+0x22c>
    24c8:	9742                	add	a4,a4,a6
    24ca:	b379                	j	2258 <__umoddi3+0x11a>

000024cc <__adddf3>:
    24cc:	00100837          	lui	a6,0x100
    24d0:	1101                	addi	sp,sp,-32
    24d2:	187d                	addi	a6,a6,-1
    24d4:	00b87733          	and	a4,a6,a1
    24d8:	ca26                	sw	s1,20(sp)
    24da:	00d87833          	and	a6,a6,a3
    24de:	0145d493          	srli	s1,a1,0x14
    24e2:	0146d313          	srli	t1,a3,0x14
    24e6:	00371e13          	slli	t3,a4,0x3
    24ea:	c64e                	sw	s3,12(sp)
    24ec:	01d55713          	srli	a4,a0,0x1d
    24f0:	080e                	slli	a6,a6,0x3
    24f2:	01d65793          	srli	a5,a2,0x1d
    24f6:	7ff4f493          	andi	s1,s1,2047
    24fa:	7ff37313          	andi	t1,t1,2047
    24fe:	ce06                	sw	ra,28(sp)
    2500:	cc22                	sw	s0,24(sp)
    2502:	c84a                	sw	s2,16(sp)
    2504:	01f5d993          	srli	s3,a1,0x1f
    2508:	01f6de93          	srli	t4,a3,0x1f
    250c:	01c76733          	or	a4,a4,t3
    2510:	00351f13          	slli	t5,a0,0x3
    2514:	0107e833          	or	a6,a5,a6
    2518:	00361f93          	slli	t6,a2,0x3
    251c:	40648e33          	sub	t3,s1,t1
    2520:	19d98063          	beq	s3,t4,26a0 <__adddf3+0x1d4>
    2524:	13c05663          	blez	t3,2650 <__adddf3+0x184>
    2528:	1c030463          	beqz	t1,26f0 <__adddf3+0x224>
    252c:	008006b7          	lui	a3,0x800
    2530:	7ff00793          	li	a5,2047
    2534:	00d86833          	or	a6,a6,a3
    2538:	36f48f63          	beq	s1,a5,28b6 <__adddf3+0x3ea>
    253c:	03800793          	li	a5,56
    2540:	35c7c063          	blt	a5,t3,2880 <__adddf3+0x3b4>
    2544:	47fd                	li	a5,31
    2546:	47c7cd63          	blt	a5,t3,29c0 <__adddf3+0x4f4>
    254a:	02000513          	li	a0,32
    254e:	41c50533          	sub	a0,a0,t3
    2552:	01cfd7b3          	srl	a5,t6,t3
    2556:	00a816b3          	sll	a3,a6,a0
    255a:	00af9933          	sll	s2,t6,a0
    255e:	8edd                	or	a3,a3,a5
    2560:	01203933          	snez	s2,s2
    2564:	01c857b3          	srl	a5,a6,t3
    2568:	0126e933          	or	s2,a3,s2
    256c:	8f1d                	sub	a4,a4,a5
    256e:	412f0933          	sub	s2,t5,s2
    2572:	012f37b3          	sltu	a5,t5,s2
    2576:	40f70633          	sub	a2,a4,a5
    257a:	00861793          	slli	a5,a2,0x8
    257e:	2407d463          	bgez	a5,27c6 <__adddf3+0x2fa>
    2582:	00800737          	lui	a4,0x800
    2586:	177d                	addi	a4,a4,-1
    2588:	00e67433          	and	s0,a2,a4
    258c:	2c040c63          	beqz	s0,2864 <__adddf3+0x398>
    2590:	8522                	mv	a0,s0
    2592:	7a2020ef          	jal	ra,4d34 <__clzsi2>
    2596:	ff850713          	addi	a4,a0,-8
    259a:	02000793          	li	a5,32
    259e:	8f99                	sub	a5,a5,a4
    25a0:	00f957b3          	srl	a5,s2,a5
    25a4:	00e41633          	sll	a2,s0,a4
    25a8:	8fd1                	or	a5,a5,a2
    25aa:	00e91933          	sll	s2,s2,a4
    25ae:	2a974163          	blt	a4,s1,2850 <__adddf3+0x384>
    25b2:	40970533          	sub	a0,a4,s1
    25b6:	00150613          	addi	a2,a0,1
    25ba:	477d                	li	a4,31
    25bc:	38c74d63          	blt	a4,a2,2956 <__adddf3+0x48a>
    25c0:	02000713          	li	a4,32
    25c4:	8f11                	sub	a4,a4,a2
    25c6:	00c956b3          	srl	a3,s2,a2
    25ca:	00e91933          	sll	s2,s2,a4
    25ce:	00e79733          	sll	a4,a5,a4
    25d2:	8f55                	or	a4,a4,a3
    25d4:	01203933          	snez	s2,s2
    25d8:	01276933          	or	s2,a4,s2
    25dc:	00c7d633          	srl	a2,a5,a2
    25e0:	4481                	li	s1,0
    25e2:	00797793          	andi	a5,s2,7
    25e6:	cf81                	beqz	a5,25fe <__adddf3+0x132>
    25e8:	00f97713          	andi	a4,s2,15
    25ec:	4791                	li	a5,4
    25ee:	00f70863          	beq	a4,a5,25fe <__adddf3+0x132>
    25f2:	00490713          	addi	a4,s2,4
    25f6:	01273933          	sltu	s2,a4,s2
    25fa:	964a                	add	a2,a2,s2
    25fc:	893a                	mv	s2,a4
    25fe:	00861793          	slli	a5,a2,0x8
    2602:	1c07d663          	bgez	a5,27ce <__adddf3+0x302>
    2606:	00148513          	addi	a0,s1,1
    260a:	7ff00793          	li	a5,2047
    260e:	85ce                	mv	a1,s3
    2610:	20f50463          	beq	a0,a5,2818 <__adddf3+0x34c>
    2614:	ff8007b7          	lui	a5,0xff800
    2618:	17fd                	addi	a5,a5,-1
    261a:	8ff1                	and	a5,a5,a2
    261c:	01d79893          	slli	a7,a5,0x1d
    2620:	00395913          	srli	s2,s2,0x3
    2624:	07a6                	slli	a5,a5,0x9
    2626:	0128e8b3          	or	a7,a7,s2
    262a:	83b1                	srli	a5,a5,0xc
    262c:	7ff57513          	andi	a0,a0,2047
    2630:	00c79693          	slli	a3,a5,0xc
    2634:	0552                	slli	a0,a0,0x14
    2636:	40f2                	lw	ra,28(sp)
    2638:	4462                	lw	s0,24(sp)
    263a:	82b1                	srli	a3,a3,0xc
    263c:	05fe                	slli	a1,a1,0x1f
    263e:	8ec9                	or	a3,a3,a0
    2640:	8ecd                	or	a3,a3,a1
    2642:	44d2                	lw	s1,20(sp)
    2644:	4942                	lw	s2,16(sp)
    2646:	49b2                	lw	s3,12(sp)
    2648:	8546                	mv	a0,a7
    264a:	85b6                	mv	a1,a3
    264c:	6105                	addi	sp,sp,32
    264e:	8082                	ret
    2650:	0a0e1e63          	bnez	t3,270c <__adddf3+0x240>
    2654:	00148313          	addi	t1,s1,1
    2658:	7fe37313          	andi	t1,t1,2046
    265c:	22031763          	bnez	t1,288a <__adddf3+0x3be>
    2660:	01e767b3          	or	a5,a4,t5
    2664:	01f868b3          	or	a7,a6,t6
    2668:	1a049d63          	bnez	s1,2822 <__adddf3+0x356>
    266c:	40078763          	beqz	a5,2a7a <__adddf3+0x5ae>
    2670:	44088663          	beqz	a7,2abc <__adddf3+0x5f0>
    2674:	41ff0933          	sub	s2,t5,t6
    2678:	410707b3          	sub	a5,a4,a6
    267c:	012f3633          	sltu	a2,t5,s2
    2680:	40c78633          	sub	a2,a5,a2
    2684:	00861793          	slli	a5,a2,0x8
    2688:	4c07d663          	bgez	a5,2b54 <__adddf3+0x688>
    268c:	41ef8933          	sub	s2,t6,t5
    2690:	40e807b3          	sub	a5,a6,a4
    2694:	012fb633          	sltu	a2,t6,s2
    2698:	40c78633          	sub	a2,a5,a2
    269c:	89f6                	mv	s3,t4
    269e:	b791                	j	25e2 <__adddf3+0x116>
    26a0:	0fc05063          	blez	t3,2780 <__adddf3+0x2b4>
    26a4:	0c030063          	beqz	t1,2764 <__adddf3+0x298>
    26a8:	008006b7          	lui	a3,0x800
    26ac:	7ff00793          	li	a5,2047
    26b0:	00d86833          	or	a6,a6,a3
    26b4:	3af48a63          	beq	s1,a5,2a68 <__adddf3+0x59c>
    26b8:	03800793          	li	a5,56
    26bc:	13c7cb63          	blt	a5,t3,27f2 <__adddf3+0x326>
    26c0:	47fd                	li	a5,31
    26c2:	35c7df63          	bge	a5,t3,2a20 <__adddf3+0x554>
    26c6:	fe0e0913          	addi	s2,t3,-32
    26ca:	02000793          	li	a5,32
    26ce:	012856b3          	srl	a3,a6,s2
    26d2:	00fe0a63          	beq	t3,a5,26e6 <__adddf3+0x21a>
    26d6:	04000913          	li	s2,64
    26da:	41c90933          	sub	s2,s2,t3
    26de:	01281933          	sll	s2,a6,s2
    26e2:	012fefb3          	or	t6,t6,s2
    26e6:	01f03933          	snez	s2,t6
    26ea:	00d96933          	or	s2,s2,a3
    26ee:	a231                	j	27fa <__adddf3+0x32e>
    26f0:	01f867b3          	or	a5,a6,t6
    26f4:	1c078a63          	beqz	a5,28c8 <__adddf3+0x3fc>
    26f8:	fffe0793          	addi	a5,t3,-1
    26fc:	38078c63          	beqz	a5,2a94 <__adddf3+0x5c8>
    2700:	7ff00693          	li	a3,2047
    2704:	1ade0963          	beq	t3,a3,28b6 <__adddf3+0x3ea>
    2708:	8e3e                	mv	t3,a5
    270a:	bd0d                	j	253c <__adddf3+0x70>
    270c:	409305b3          	sub	a1,t1,s1
    2710:	22049163          	bnez	s1,2932 <__adddf3+0x466>
    2714:	01e767b3          	or	a5,a4,t5
    2718:	32078763          	beqz	a5,2a46 <__adddf3+0x57a>
    271c:	fff58793          	addi	a5,a1,-1
    2720:	44078163          	beqz	a5,2b62 <__adddf3+0x696>
    2724:	7ff00693          	li	a3,2047
    2728:	20d58c63          	beq	a1,a3,2940 <__adddf3+0x474>
    272c:	85be                	mv	a1,a5
    272e:	03800793          	li	a5,56
    2732:	2ab7cc63          	blt	a5,a1,29ea <__adddf3+0x51e>
    2736:	47fd                	li	a5,31
    2738:	3cb7cf63          	blt	a5,a1,2b16 <__adddf3+0x64a>
    273c:	02000793          	li	a5,32
    2740:	8f8d                	sub	a5,a5,a1
    2742:	00f71933          	sll	s2,a4,a5
    2746:	00bf56b3          	srl	a3,t5,a1
    274a:	00ff17b3          	sll	a5,t5,a5
    274e:	00d96933          	or	s2,s2,a3
    2752:	00f037b3          	snez	a5,a5
    2756:	00b75733          	srl	a4,a4,a1
    275a:	00f96933          	or	s2,s2,a5
    275e:	40e80833          	sub	a6,a6,a4
    2762:	ac41                	j	29f2 <__adddf3+0x526>
    2764:	01f867b3          	or	a5,a6,t6
    2768:	34078063          	beqz	a5,2aa8 <__adddf3+0x5dc>
    276c:	fffe0793          	addi	a5,t3,-1
    2770:	20078a63          	beqz	a5,2984 <__adddf3+0x4b8>
    2774:	7ff00693          	li	a3,2047
    2778:	2ede0863          	beq	t3,a3,2a68 <__adddf3+0x59c>
    277c:	8e3e                	mv	t3,a5
    277e:	bf2d                	j	26b8 <__adddf3+0x1ec>
    2780:	140e1e63          	bnez	t3,28dc <__adddf3+0x410>
    2784:	00148693          	addi	a3,s1,1
    2788:	7fe6f793          	andi	a5,a3,2046
    278c:	34079163          	bnez	a5,2ace <__adddf3+0x602>
    2790:	01e767b3          	or	a5,a4,t5
    2794:	2c049563          	bnez	s1,2a5e <__adddf3+0x592>
    2798:	3e078063          	beqz	a5,2b78 <__adddf3+0x6ac>
    279c:	01f867b3          	or	a5,a6,t6
    27a0:	30078e63          	beqz	a5,2abc <__adddf3+0x5f0>
    27a4:	01ff0933          	add	s2,t5,t6
    27a8:	010707b3          	add	a5,a4,a6
    27ac:	01e93f33          	sltu	t5,s2,t5
    27b0:	01e78633          	add	a2,a5,t5
    27b4:	00861793          	slli	a5,a2,0x8
    27b8:	0007d763          	bgez	a5,27c6 <__adddf3+0x2fa>
    27bc:	ff8007b7          	lui	a5,0xff800
    27c0:	17fd                	addi	a5,a5,-1
    27c2:	8e7d                	and	a2,a2,a5
    27c4:	4485                	li	s1,1
    27c6:	00797793          	andi	a5,s2,7
    27ca:	e0079fe3          	bnez	a5,25e8 <__adddf3+0x11c>
    27ce:	01d61793          	slli	a5,a2,0x1d
    27d2:	00395893          	srli	a7,s2,0x3
    27d6:	00f8e8b3          	or	a7,a7,a5
    27da:	00365793          	srli	a5,a2,0x3
    27de:	7ff00713          	li	a4,2047
    27e2:	04e48d63          	beq	s1,a4,283c <__adddf3+0x370>
    27e6:	07b2                	slli	a5,a5,0xc
    27e8:	83b1                	srli	a5,a5,0xc
    27ea:	7ff4f513          	andi	a0,s1,2047
    27ee:	85ce                	mv	a1,s3
    27f0:	b581                	j	2630 <__adddf3+0x164>
    27f2:	01f86933          	or	s2,a6,t6
    27f6:	01203933          	snez	s2,s2
    27fa:	997a                	add	s2,s2,t5
    27fc:	01e937b3          	sltu	a5,s2,t5
    2800:	00e78633          	add	a2,a5,a4
    2804:	00861793          	slli	a5,a2,0x8
    2808:	fa07dfe3          	bgez	a5,27c6 <__adddf3+0x2fa>
    280c:	0485                	addi	s1,s1,1
    280e:	7ff00793          	li	a5,2047
    2812:	18f49663          	bne	s1,a5,299e <__adddf3+0x4d2>
    2816:	85ce                	mv	a1,s3
    2818:	7ff00513          	li	a0,2047
    281c:	4781                	li	a5,0
    281e:	4881                	li	a7,0
    2820:	bd01                	j	2630 <__adddf3+0x164>
    2822:	ebc1                	bnez	a5,28b2 <__adddf3+0x3e6>
    2824:	3a088463          	beqz	a7,2bcc <__adddf3+0x700>
    2828:	00361693          	slli	a3,a2,0x3
    282c:	01d81793          	slli	a5,a6,0x1d
    2830:	828d                	srli	a3,a3,0x3
    2832:	00d7e8b3          	or	a7,a5,a3
    2836:	89f6                	mv	s3,t4
    2838:	00385793          	srli	a5,a6,0x3
    283c:	00f8e7b3          	or	a5,a7,a5
    2840:	dbf9                	beqz	a5,2816 <__adddf3+0x34a>
    2842:	4581                	li	a1,0
    2844:	7ff00513          	li	a0,2047
    2848:	000807b7          	lui	a5,0x80
    284c:	4881                	li	a7,0
    284e:	b3cd                	j	2630 <__adddf3+0x164>
    2850:	ff800637          	lui	a2,0xff800
    2854:	167d                	addi	a2,a2,-1
    2856:	8e7d                	and	a2,a2,a5
    2858:	00797793          	andi	a5,s2,7
    285c:	8c99                	sub	s1,s1,a4
    285e:	d80795e3          	bnez	a5,25e8 <__adddf3+0x11c>
    2862:	b7b5                	j	27ce <__adddf3+0x302>
    2864:	854a                	mv	a0,s2
    2866:	4ce020ef          	jal	ra,4d34 <__clzsi2>
    286a:	01850713          	addi	a4,a0,24
    286e:	47fd                	li	a5,31
    2870:	d2e7d5e3          	bge	a5,a4,259a <__adddf3+0xce>
    2874:	ff850613          	addi	a2,a0,-8
    2878:	00c917b3          	sll	a5,s2,a2
    287c:	4901                	li	s2,0
    287e:	bb05                	j	25ae <__adddf3+0xe2>
    2880:	01f86933          	or	s2,a6,t6
    2884:	01203933          	snez	s2,s2
    2888:	b1dd                	j	256e <__adddf3+0xa2>
    288a:	41ff0933          	sub	s2,t5,t6
    288e:	41070633          	sub	a2,a4,a6
    2892:	012f3433          	sltu	s0,t5,s2
    2896:	40860433          	sub	s0,a2,s0
    289a:	00841793          	slli	a5,s0,0x8
    289e:	2407cd63          	bltz	a5,2af8 <__adddf3+0x62c>
    28a2:	008968b3          	or	a7,s2,s0
    28a6:	ce0893e3          	bnez	a7,258c <__adddf3+0xc0>
    28aa:	4781                	li	a5,0
    28ac:	4981                	li	s3,0
    28ae:	4481                	li	s1,0
    28b0:	bf1d                	j	27e6 <__adddf3+0x31a>
    28b2:	f80898e3          	bnez	a7,2842 <__adddf3+0x376>
    28b6:	050e                	slli	a0,a0,0x3
    28b8:	01d71793          	slli	a5,a4,0x1d
    28bc:	810d                	srli	a0,a0,0x3
    28be:	00a7e8b3          	or	a7,a5,a0
    28c2:	00375793          	srli	a5,a4,0x3
    28c6:	bf9d                	j	283c <__adddf3+0x370>
    28c8:	050e                	slli	a0,a0,0x3
    28ca:	01d71793          	slli	a5,a4,0x1d
    28ce:	810d                	srli	a0,a0,0x3
    28d0:	00a7e8b3          	or	a7,a5,a0
    28d4:	84f2                	mv	s1,t3
    28d6:	00375793          	srli	a5,a4,0x3
    28da:	b711                	j	27de <__adddf3+0x312>
    28dc:	40930533          	sub	a0,t1,s1
    28e0:	12048263          	beqz	s1,2a04 <__adddf3+0x538>
    28e4:	008006b7          	lui	a3,0x800
    28e8:	7ff00793          	li	a5,2047
    28ec:	8f55                	or	a4,a4,a3
    28ee:	2ef30d63          	beq	t1,a5,2be8 <__adddf3+0x71c>
    28f2:	03800793          	li	a5,56
    28f6:	20a7cb63          	blt	a5,a0,2b0c <__adddf3+0x640>
    28fa:	47fd                	li	a5,31
    28fc:	2aa7c363          	blt	a5,a0,2ba2 <__adddf3+0x6d6>
    2900:	02000793          	li	a5,32
    2904:	8f89                	sub	a5,a5,a0
    2906:	00f71933          	sll	s2,a4,a5
    290a:	00af56b3          	srl	a3,t5,a0
    290e:	00ff17b3          	sll	a5,t5,a5
    2912:	00d96933          	or	s2,s2,a3
    2916:	00f037b3          	snez	a5,a5
    291a:	00a75733          	srl	a4,a4,a0
    291e:	00f96933          	or	s2,s2,a5
    2922:	983a                	add	a6,a6,a4
    2924:	997e                	add	s2,s2,t6
    2926:	01f937b3          	sltu	a5,s2,t6
    292a:	01078633          	add	a2,a5,a6
    292e:	849a                	mv	s1,t1
    2930:	bdd1                	j	2804 <__adddf3+0x338>
    2932:	008006b7          	lui	a3,0x800
    2936:	7ff00793          	li	a5,2047
    293a:	8f55                	or	a4,a4,a3
    293c:	def319e3          	bne	t1,a5,272e <__adddf3+0x262>
    2940:	00361793          	slli	a5,a2,0x3
    2944:	838d                	srli	a5,a5,0x3
    2946:	01d81893          	slli	a7,a6,0x1d
    294a:	0117e8b3          	or	a7,a5,a7
    294e:	89f6                	mv	s3,t4
    2950:	00385793          	srli	a5,a6,0x3
    2954:	b5e5                	j	283c <__adddf3+0x370>
    2956:	fe150713          	addi	a4,a0,-31
    295a:	02000693          	li	a3,32
    295e:	00e7d733          	srl	a4,a5,a4
    2962:	00d60a63          	beq	a2,a3,2976 <__adddf3+0x4aa>
    2966:	04000693          	li	a3,64
    296a:	40c68633          	sub	a2,a3,a2
    296e:	00c79633          	sll	a2,a5,a2
    2972:	00c96933          	or	s2,s2,a2
    2976:	01203933          	snez	s2,s2
    297a:	00e96933          	or	s2,s2,a4
    297e:	4601                	li	a2,0
    2980:	4481                	li	s1,0
    2982:	b591                	j	27c6 <__adddf3+0x2fa>
    2984:	01ff0933          	add	s2,t5,t6
    2988:	010707b3          	add	a5,a4,a6
    298c:	01e93633          	sltu	a2,s2,t5
    2990:	963e                	add	a2,a2,a5
    2992:	00861793          	slli	a5,a2,0x8
    2996:	4485                	li	s1,1
    2998:	e207d7e3          	bgez	a5,27c6 <__adddf3+0x2fa>
    299c:	4489                	li	s1,2
    299e:	ff8007b7          	lui	a5,0xff800
    29a2:	17fd                	addi	a5,a5,-1
    29a4:	8ff1                	and	a5,a5,a2
    29a6:	00195713          	srli	a4,s2,0x1
    29aa:	00197913          	andi	s2,s2,1
    29ae:	01276933          	or	s2,a4,s2
    29b2:	01f79893          	slli	a7,a5,0x1f
    29b6:	0128e933          	or	s2,a7,s2
    29ba:	0017d613          	srli	a2,a5,0x1
    29be:	b115                	j	25e2 <__adddf3+0x116>
    29c0:	fe0e0913          	addi	s2,t3,-32
    29c4:	02000793          	li	a5,32
    29c8:	012856b3          	srl	a3,a6,s2
    29cc:	00fe0a63          	beq	t3,a5,29e0 <__adddf3+0x514>
    29d0:	04000913          	li	s2,64
    29d4:	41c90933          	sub	s2,s2,t3
    29d8:	01281933          	sll	s2,a6,s2
    29dc:	012fefb3          	or	t6,t6,s2
    29e0:	01f03933          	snez	s2,t6
    29e4:	00d96933          	or	s2,s2,a3
    29e8:	b659                	j	256e <__adddf3+0xa2>
    29ea:	01e76933          	or	s2,a4,t5
    29ee:	01203933          	snez	s2,s2
    29f2:	412f8933          	sub	s2,t6,s2
    29f6:	012fb7b3          	sltu	a5,t6,s2
    29fa:	40f80633          	sub	a2,a6,a5
    29fe:	849a                	mv	s1,t1
    2a00:	89f6                	mv	s3,t4
    2a02:	bea5                	j	257a <__adddf3+0xae>
    2a04:	01e767b3          	or	a5,a4,t5
    2a08:	18078263          	beqz	a5,2b8c <__adddf3+0x6c0>
    2a0c:	fff50793          	addi	a5,a0,-1
    2a10:	1c078463          	beqz	a5,2bd8 <__adddf3+0x70c>
    2a14:	7ff00693          	li	a3,2047
    2a18:	12d50463          	beq	a0,a3,2b40 <__adddf3+0x674>
    2a1c:	853e                	mv	a0,a5
    2a1e:	bdd1                	j	28f2 <__adddf3+0x426>
    2a20:	02000793          	li	a5,32
    2a24:	41c787b3          	sub	a5,a5,t3
    2a28:	00f816b3          	sll	a3,a6,a5
    2a2c:	00ff9933          	sll	s2,t6,a5
    2a30:	01cfd633          	srl	a2,t6,t3
    2a34:	8ed1                	or	a3,a3,a2
    2a36:	01203933          	snez	s2,s2
    2a3a:	01c857b3          	srl	a5,a6,t3
    2a3e:	0126e933          	or	s2,a3,s2
    2a42:	973e                	add	a4,a4,a5
    2a44:	bb5d                	j	27fa <__adddf3+0x32e>
    2a46:	00361793          	slli	a5,a2,0x3
    2a4a:	838d                	srli	a5,a5,0x3
    2a4c:	01d81893          	slli	a7,a6,0x1d
    2a50:	0117e8b3          	or	a7,a5,a7
    2a54:	84ae                	mv	s1,a1
    2a56:	00385793          	srli	a5,a6,0x3
    2a5a:	89f6                	mv	s3,t4
    2a5c:	b349                	j	27de <__adddf3+0x312>
    2a5e:	c3ed                	beqz	a5,2b40 <__adddf3+0x674>
    2a60:	01f86933          	or	s2,a6,t6
    2a64:	dc091fe3          	bnez	s2,2842 <__adddf3+0x376>
    2a68:	050e                	slli	a0,a0,0x3
    2a6a:	01d71793          	slli	a5,a4,0x1d
    2a6e:	810d                	srli	a0,a0,0x3
    2a70:	00f568b3          	or	a7,a0,a5
    2a74:	00375793          	srli	a5,a4,0x3
    2a78:	b3d1                	j	283c <__adddf3+0x370>
    2a7a:	0e088163          	beqz	a7,2b5c <__adddf3+0x690>
    2a7e:	00361693          	slli	a3,a2,0x3
    2a82:	01d81793          	slli	a5,a6,0x1d
    2a86:	828d                	srli	a3,a3,0x3
    2a88:	00d7e8b3          	or	a7,a5,a3
    2a8c:	89f6                	mv	s3,t4
    2a8e:	00385793          	srli	a5,a6,0x3
    2a92:	bb91                	j	27e6 <__adddf3+0x31a>
    2a94:	41ff0933          	sub	s2,t5,t6
    2a98:	410707b3          	sub	a5,a4,a6
    2a9c:	012f3f33          	sltu	t5,t5,s2
    2aa0:	41e78633          	sub	a2,a5,t5
    2aa4:	4485                	li	s1,1
    2aa6:	bcd1                	j	257a <__adddf3+0xae>
    2aa8:	050e                	slli	a0,a0,0x3
    2aaa:	01d71793          	slli	a5,a4,0x1d
    2aae:	810d                	srli	a0,a0,0x3
    2ab0:	00f568b3          	or	a7,a0,a5
    2ab4:	84f2                	mv	s1,t3
    2ab6:	00375793          	srli	a5,a4,0x3
    2aba:	b315                	j	27de <__adddf3+0x312>
    2abc:	050e                	slli	a0,a0,0x3
    2abe:	01d71793          	slli	a5,a4,0x1d
    2ac2:	810d                	srli	a0,a0,0x3
    2ac4:	00a7e8b3          	or	a7,a5,a0
    2ac8:	00375793          	srli	a5,a4,0x3
    2acc:	bb29                	j	27e6 <__adddf3+0x31a>
    2ace:	7ff00793          	li	a5,2047
    2ad2:	d4f682e3          	beq	a3,a5,2816 <__adddf3+0x34a>
    2ad6:	01ff0933          	add	s2,t5,t6
    2ada:	01e93633          	sltu	a2,s2,t5
    2ade:	010707b3          	add	a5,a4,a6
    2ae2:	97b2                	add	a5,a5,a2
    2ae4:	01f79893          	slli	a7,a5,0x1f
    2ae8:	00195913          	srli	s2,s2,0x1
    2aec:	0128e933          	or	s2,a7,s2
    2af0:	0017d613          	srli	a2,a5,0x1
    2af4:	84b6                	mv	s1,a3
    2af6:	b9c1                	j	27c6 <__adddf3+0x2fa>
    2af8:	41ef8933          	sub	s2,t6,t5
    2afc:	40e80733          	sub	a4,a6,a4
    2b00:	012fb633          	sltu	a2,t6,s2
    2b04:	40c70433          	sub	s0,a4,a2
    2b08:	89f6                	mv	s3,t4
    2b0a:	b449                	j	258c <__adddf3+0xc0>
    2b0c:	01e76933          	or	s2,a4,t5
    2b10:	01203933          	snez	s2,s2
    2b14:	bd01                	j	2924 <__adddf3+0x458>
    2b16:	fe058793          	addi	a5,a1,-32
    2b1a:	02000693          	li	a3,32
    2b1e:	00f757b3          	srl	a5,a4,a5
    2b22:	00d58a63          	beq	a1,a3,2b36 <__adddf3+0x66a>
    2b26:	04000693          	li	a3,64
    2b2a:	40b685b3          	sub	a1,a3,a1
    2b2e:	00b71733          	sll	a4,a4,a1
    2b32:	00ef6f33          	or	t5,t5,a4
    2b36:	01e03933          	snez	s2,t5
    2b3a:	00f96933          	or	s2,s2,a5
    2b3e:	bd55                	j	29f2 <__adddf3+0x526>
    2b40:	00361793          	slli	a5,a2,0x3
    2b44:	838d                	srli	a5,a5,0x3
    2b46:	01d81893          	slli	a7,a6,0x1d
    2b4a:	0117e8b3          	or	a7,a5,a7
    2b4e:	00385793          	srli	a5,a6,0x3
    2b52:	b1ed                	j	283c <__adddf3+0x370>
    2b54:	00c968b3          	or	a7,s2,a2
    2b58:	c60897e3          	bnez	a7,27c6 <__adddf3+0x2fa>
    2b5c:	4781                	li	a5,0
    2b5e:	4981                	li	s3,0
    2b60:	b159                	j	27e6 <__adddf3+0x31a>
    2b62:	41ef8933          	sub	s2,t6,t5
    2b66:	40e807b3          	sub	a5,a6,a4
    2b6a:	012fb633          	sltu	a2,t6,s2
    2b6e:	40c78633          	sub	a2,a5,a2
    2b72:	89f6                	mv	s3,t4
    2b74:	4485                	li	s1,1
    2b76:	b411                	j	257a <__adddf3+0xae>
    2b78:	00361693          	slli	a3,a2,0x3
    2b7c:	01d81793          	slli	a5,a6,0x1d
    2b80:	828d                	srli	a3,a3,0x3
    2b82:	00d7e8b3          	or	a7,a5,a3
    2b86:	00385793          	srli	a5,a6,0x3
    2b8a:	b9b1                	j	27e6 <__adddf3+0x31a>
    2b8c:	00361693          	slli	a3,a2,0x3
    2b90:	01d81793          	slli	a5,a6,0x1d
    2b94:	828d                	srli	a3,a3,0x3
    2b96:	00d7e8b3          	or	a7,a5,a3
    2b9a:	84aa                	mv	s1,a0
    2b9c:	00385793          	srli	a5,a6,0x3
    2ba0:	b93d                	j	27de <__adddf3+0x312>
    2ba2:	fe050793          	addi	a5,a0,-32
    2ba6:	02000693          	li	a3,32
    2baa:	00f757b3          	srl	a5,a4,a5
    2bae:	00d50a63          	beq	a0,a3,2bc2 <__adddf3+0x6f6>
    2bb2:	04000693          	li	a3,64
    2bb6:	40a68533          	sub	a0,a3,a0
    2bba:	00a71733          	sll	a4,a4,a0
    2bbe:	00ef6f33          	or	t5,t5,a4
    2bc2:	01e03933          	snez	s2,t5
    2bc6:	00f96933          	or	s2,s2,a5
    2bca:	bba9                	j	2924 <__adddf3+0x458>
    2bcc:	4581                	li	a1,0
    2bce:	7ff00513          	li	a0,2047
    2bd2:	000807b7          	lui	a5,0x80
    2bd6:	bca9                	j	2630 <__adddf3+0x164>
    2bd8:	01ff0933          	add	s2,t5,t6
    2bdc:	010707b3          	add	a5,a4,a6
    2be0:	01f93633          	sltu	a2,s2,t6
    2be4:	963e                	add	a2,a2,a5
    2be6:	b375                	j	2992 <__adddf3+0x4c6>
    2be8:	00361693          	slli	a3,a2,0x3
    2bec:	01d81793          	slli	a5,a6,0x1d
    2bf0:	828d                	srli	a3,a3,0x3
    2bf2:	00d7e8b3          	or	a7,a5,a3
    2bf6:	00385793          	srli	a5,a6,0x3
    2bfa:	b189                	j	283c <__adddf3+0x370>

00002bfc <__divdf3>:
    2bfc:	7139                	addi	sp,sp,-64
    2bfe:	0145d793          	srli	a5,a1,0x14
    2c02:	dc22                	sw	s0,56(sp)
    2c04:	d84a                	sw	s2,48(sp)
    2c06:	d256                	sw	s5,36(sp)
    2c08:	892a                	mv	s2,a0
    2c0a:	00c59413          	slli	s0,a1,0xc
    2c0e:	de06                	sw	ra,60(sp)
    2c10:	da26                	sw	s1,52(sp)
    2c12:	d64e                	sw	s3,44(sp)
    2c14:	d452                	sw	s4,40(sp)
    2c16:	d05a                	sw	s6,32(sp)
    2c18:	ce5e                	sw	s7,28(sp)
    2c1a:	7ff7f513          	andi	a0,a5,2047
    2c1e:	8031                	srli	s0,s0,0xc
    2c20:	01f5da93          	srli	s5,a1,0x1f
    2c24:	10050b63          	beqz	a0,2d3a <__divdf3+0x13e>
    2c28:	7ff00793          	li	a5,2047
    2c2c:	14f50b63          	beq	a0,a5,2d82 <__divdf3+0x186>
    2c30:	01d95a13          	srli	s4,s2,0x1d
    2c34:	040e                	slli	s0,s0,0x3
    2c36:	008a6433          	or	s0,s4,s0
    2c3a:	00800a37          	lui	s4,0x800
    2c3e:	01446a33          	or	s4,s0,s4
    2c42:	00391b13          	slli	s6,s2,0x3
    2c46:	c0150493          	addi	s1,a0,-1023
    2c4a:	4401                	li	s0,0
    2c4c:	4b81                	li	s7,0
    2c4e:	0146d813          	srli	a6,a3,0x14
    2c52:	00c69913          	slli	s2,a3,0xc
    2c56:	7ff87813          	andi	a6,a6,2047
    2c5a:	88b2                	mv	a7,a2
    2c5c:	00c95913          	srli	s2,s2,0xc
    2c60:	01f6d993          	srli	s3,a3,0x1f
    2c64:	08080e63          	beqz	a6,2d00 <__divdf3+0x104>
    2c68:	7ff00793          	li	a5,2047
    2c6c:	04f80063          	beq	a6,a5,2cac <__divdf3+0xb0>
    2c70:	01d65713          	srli	a4,a2,0x1d
    2c74:	090e                	slli	s2,s2,0x3
    2c76:	01276933          	or	s2,a4,s2
    2c7a:	c0180813          	addi	a6,a6,-1023 # ffc01 <_data_lma+0xf5dfd>
    2c7e:	008007b7          	lui	a5,0x800
    2c82:	00f96733          	or	a4,s2,a5
    2c86:	00361893          	slli	a7,a2,0x3
    2c8a:	410484b3          	sub	s1,s1,a6
    2c8e:	4581                	li	a1,0
    2c90:	47bd                	li	a5,15
    2c92:	013ac833          	xor	a6,s5,s3
    2c96:	1a87e463          	bltu	a5,s0,2e3e <__divdf3+0x242>
    2c9a:	00007797          	auipc	a5,0x7
    2c9e:	c4278793          	addi	a5,a5,-958 # 98dc <COS_Factor+0x158>
    2ca2:	040a                	slli	s0,s0,0x2
    2ca4:	943e                	add	s0,s0,a5
    2ca6:	4010                	lw	a2,0(s0)
    2ca8:	963e                	add	a2,a2,a5
    2caa:	8602                	jr	a2
    2cac:	00c96733          	or	a4,s2,a2
    2cb0:	80148493          	addi	s1,s1,-2047
    2cb4:	10071263          	bnez	a4,2db8 <__divdf3+0x1bc>
    2cb8:	00246413          	ori	s0,s0,2
    2cbc:	4881                	li	a7,0
    2cbe:	4589                	li	a1,2
    2cc0:	bfc1                	j	2c90 <__divdf3+0x94>
    2cc2:	7ff00613          	li	a2,2047
    2cc6:	4781                	li	a5,0
    2cc8:	4701                	li	a4,0
    2cca:	07b2                	slli	a5,a5,0xc
    2ccc:	50f2                	lw	ra,60(sp)
    2cce:	5462                	lw	s0,56(sp)
    2cd0:	0652                	slli	a2,a2,0x14
    2cd2:	83b1                	srli	a5,a5,0xc
    2cd4:	087e                	slli	a6,a6,0x1f
    2cd6:	8fd1                	or	a5,a5,a2
    2cd8:	0107e7b3          	or	a5,a5,a6
    2cdc:	54d2                	lw	s1,52(sp)
    2cde:	5942                	lw	s2,48(sp)
    2ce0:	59b2                	lw	s3,44(sp)
    2ce2:	5a22                	lw	s4,40(sp)
    2ce4:	5a92                	lw	s5,36(sp)
    2ce6:	5b02                	lw	s6,32(sp)
    2ce8:	4bf2                	lw	s7,28(sp)
    2cea:	853a                	mv	a0,a4
    2cec:	85be                	mv	a1,a5
    2cee:	6121                	addi	sp,sp,64
    2cf0:	8082                	ret
    2cf2:	4801                	li	a6,0
    2cf4:	7ff00613          	li	a2,2047
    2cf8:	000807b7          	lui	a5,0x80
    2cfc:	4701                	li	a4,0
    2cfe:	b7f1                	j	2cca <__divdf3+0xce>
    2d00:	00c96733          	or	a4,s2,a2
    2d04:	c74d                	beqz	a4,2dae <__divdf3+0x1b2>
    2d06:	30090863          	beqz	s2,3016 <__divdf3+0x41a>
    2d0a:	854a                	mv	a0,s2
    2d0c:	c432                	sw	a2,8(sp)
    2d0e:	026020ef          	jal	ra,4d34 <__clzsi2>
    2d12:	4622                	lw	a2,8(sp)
    2d14:	ff550713          	addi	a4,a0,-11
    2d18:	47f5                	li	a5,29
    2d1a:	ff850693          	addi	a3,a0,-8
    2d1e:	8f99                	sub	a5,a5,a4
    2d20:	00d91933          	sll	s2,s2,a3
    2d24:	00f657b3          	srl	a5,a2,a5
    2d28:	0127e733          	or	a4,a5,s2
    2d2c:	00d618b3          	sll	a7,a2,a3
    2d30:	9526                	add	a0,a0,s1
    2d32:	3f350493          	addi	s1,a0,1011
    2d36:	4581                	li	a1,0
    2d38:	bfa1                	j	2c90 <__divdf3+0x94>
    2d3a:	01246a33          	or	s4,s0,s2
    2d3e:	060a0363          	beqz	s4,2da4 <__divdf3+0x1a8>
    2d42:	c636                	sw	a3,12(sp)
    2d44:	c432                	sw	a2,8(sp)
    2d46:	2a040663          	beqz	s0,2ff2 <__divdf3+0x3f6>
    2d4a:	8522                	mv	a0,s0
    2d4c:	7e9010ef          	jal	ra,4d34 <__clzsi2>
    2d50:	4622                	lw	a2,8(sp)
    2d52:	46b2                	lw	a3,12(sp)
    2d54:	84aa                	mv	s1,a0
    2d56:	ff550713          	addi	a4,a0,-11
    2d5a:	4a75                	li	s4,29
    2d5c:	ff848b13          	addi	s6,s1,-8
    2d60:	40ea0a33          	sub	s4,s4,a4
    2d64:	01641433          	sll	s0,s0,s6
    2d68:	01495a33          	srl	s4,s2,s4
    2d6c:	008a6a33          	or	s4,s4,s0
    2d70:	01691b33          	sll	s6,s2,s6
    2d74:	c0d00513          	li	a0,-1011
    2d78:	409504b3          	sub	s1,a0,s1
    2d7c:	4401                	li	s0,0
    2d7e:	4b81                	li	s7,0
    2d80:	b5f9                	j	2c4e <__divdf3+0x52>
    2d82:	01246a33          	or	s4,s0,s2
    2d86:	000a1863          	bnez	s4,2d96 <__divdf3+0x19a>
    2d8a:	4421                	li	s0,8
    2d8c:	4b01                	li	s6,0
    2d8e:	7ff00493          	li	s1,2047
    2d92:	4b89                	li	s7,2
    2d94:	bd6d                	j	2c4e <__divdf3+0x52>
    2d96:	8a22                	mv	s4,s0
    2d98:	8b4a                	mv	s6,s2
    2d9a:	4431                	li	s0,12
    2d9c:	7ff00493          	li	s1,2047
    2da0:	4b8d                	li	s7,3
    2da2:	b575                	j	2c4e <__divdf3+0x52>
    2da4:	4411                	li	s0,4
    2da6:	4b01                	li	s6,0
    2da8:	4481                	li	s1,0
    2daa:	4b85                	li	s7,1
    2dac:	b54d                	j	2c4e <__divdf3+0x52>
    2dae:	00146413          	ori	s0,s0,1
    2db2:	4881                	li	a7,0
    2db4:	4585                	li	a1,1
    2db6:	bde9                	j	2c90 <__divdf3+0x94>
    2db8:	00346413          	ori	s0,s0,3
    2dbc:	874a                	mv	a4,s2
    2dbe:	458d                	li	a1,3
    2dc0:	bdc1                	j	2c90 <__divdf3+0x94>
    2dc2:	2e050a63          	beqz	a0,30b6 <__divdf3+0x4ba>
    2dc6:	4785                	li	a5,1
    2dc8:	8f89                	sub	a5,a5,a0
    2dca:	03800693          	li	a3,56
    2dce:	32f6dd63          	bge	a3,a5,3108 <__divdf3+0x50c>
    2dd2:	4601                	li	a2,0
    2dd4:	4781                	li	a5,0
    2dd6:	4701                	li	a4,0
    2dd8:	bdcd                	j	2cca <__divdf3+0xce>
    2dda:	86ce                	mv	a3,s3
    2ddc:	4789                	li	a5,2
    2dde:	3af58d63          	beq	a1,a5,3198 <__divdf3+0x59c>
    2de2:	478d                	li	a5,3
    2de4:	f0f587e3          	beq	a1,a5,2cf2 <__divdf3+0xf6>
    2de8:	4785                	li	a5,1
    2dea:	8836                	mv	a6,a3
    2dec:	fef583e3          	beq	a1,a5,2dd2 <__divdf3+0x1d6>
    2df0:	3ff48513          	addi	a0,s1,1023
    2df4:	fca057e3          	blez	a0,2dc2 <__divdf3+0x1c6>
    2df8:	0078f793          	andi	a5,a7,7
    2dfc:	28079663          	bnez	a5,3088 <__divdf3+0x48c>
    2e00:	0038d693          	srli	a3,a7,0x3
    2e04:	00771793          	slli	a5,a4,0x7
    2e08:	0007d863          	bgez	a5,2e18 <__divdf3+0x21c>
    2e0c:	ff0007b7          	lui	a5,0xff000
    2e10:	17fd                	addi	a5,a5,-1
    2e12:	8f7d                	and	a4,a4,a5
    2e14:	40048513          	addi	a0,s1,1024
    2e18:	7fe00793          	li	a5,2046
    2e1c:	eaa7c3e3          	blt	a5,a0,2cc2 <__divdf3+0xc6>
    2e20:	01d71613          	slli	a2,a4,0x1d
    2e24:	00971793          	slli	a5,a4,0x9
    2e28:	83b1                	srli	a5,a5,0xc
    2e2a:	00d66733          	or	a4,a2,a3
    2e2e:	7ff57613          	andi	a2,a0,2047
    2e32:	bd61                	j	2cca <__divdf3+0xce>
    2e34:	86d6                	mv	a3,s5
    2e36:	8752                	mv	a4,s4
    2e38:	88da                	mv	a7,s6
    2e3a:	85de                	mv	a1,s7
    2e3c:	b745                	j	2ddc <__divdf3+0x1e0>
    2e3e:	23476163          	bltu	a4,s4,3060 <__divdf3+0x464>
    2e42:	20ea0d63          	beq	s4,a4,305c <__divdf3+0x460>
    2e46:	86da                	mv	a3,s6
    2e48:	14fd                	addi	s1,s1,-1
    2e4a:	8452                	mv	s0,s4
    2e4c:	4b01                	li	s6,0
    2e4e:	00871793          	slli	a5,a4,0x8
    2e52:	0188d313          	srli	t1,a7,0x18
    2e56:	00f36333          	or	t1,t1,a5
    2e5a:	01035e93          	srli	t4,t1,0x10
    2e5e:	03d457b3          	divu	a5,s0,t4
    2e62:	01031f13          	slli	t5,t1,0x10
    2e66:	010f5f13          	srli	t5,t5,0x10
    2e6a:	0106d593          	srli	a1,a3,0x10
    2e6e:	00889e13          	slli	t3,a7,0x8
    2e72:	03d47433          	remu	s0,s0,t4
    2e76:	02ff0733          	mul	a4,t5,a5
    2e7a:	0442                	slli	s0,s0,0x10
    2e7c:	8dc1                	or	a1,a1,s0
    2e7e:	00e5fb63          	bgeu	a1,a4,2e94 <__divdf3+0x298>
    2e82:	959a                	add	a1,a1,t1
    2e84:	fff78613          	addi	a2,a5,-1 # feffffff <_eusrstack+0xdeff7fff>
    2e88:	2665ee63          	bltu	a1,t1,3104 <__divdf3+0x508>
    2e8c:	26e5fc63          	bgeu	a1,a4,3104 <__divdf3+0x508>
    2e90:	17f9                	addi	a5,a5,-2
    2e92:	959a                	add	a1,a1,t1
    2e94:	8d99                	sub	a1,a1,a4
    2e96:	03d5d733          	divu	a4,a1,t4
    2e9a:	06c2                	slli	a3,a3,0x10
    2e9c:	82c1                	srli	a3,a3,0x10
    2e9e:	03d5f5b3          	remu	a1,a1,t4
    2ea2:	02ef0633          	mul	a2,t5,a4
    2ea6:	05c2                	slli	a1,a1,0x10
    2ea8:	8dd5                	or	a1,a1,a3
    2eaa:	00c5fb63          	bgeu	a1,a2,2ec0 <__divdf3+0x2c4>
    2eae:	959a                	add	a1,a1,t1
    2eb0:	fff70693          	addi	a3,a4,-1 # 7fffff <_data_lma+0x7f61fb>
    2eb4:	2465e663          	bltu	a1,t1,3100 <__divdf3+0x504>
    2eb8:	24c5f463          	bgeu	a1,a2,3100 <__divdf3+0x504>
    2ebc:	1779                	addi	a4,a4,-2
    2ebe:	959a                	add	a1,a1,t1
    2ec0:	07c2                	slli	a5,a5,0x10
    2ec2:	6441                	lui	s0,0x10
    2ec4:	8f5d                	or	a4,a4,a5
    2ec6:	fff40793          	addi	a5,s0,-1 # ffff <_data_lma+0x61fb>
    2eca:	00f77533          	and	a0,a4,a5
    2ece:	01075893          	srli	a7,a4,0x10
    2ed2:	010e5f93          	srli	t6,t3,0x10
    2ed6:	00fe77b3          	and	a5,t3,a5
    2eda:	02f502b3          	mul	t0,a0,a5
    2ede:	40c586b3          	sub	a3,a1,a2
    2ee2:	02f883b3          	mul	t2,a7,a5
    2ee6:	0102d593          	srli	a1,t0,0x10
    2eea:	02af8633          	mul	a2,t6,a0
    2eee:	961e                	add	a2,a2,t2
    2ef0:	962e                	add	a2,a2,a1
    2ef2:	03f88533          	mul	a0,a7,t6
    2ef6:	00767363          	bgeu	a2,t2,2efc <__divdf3+0x300>
    2efa:	9522                	add	a0,a0,s0
    2efc:	68c1                	lui	a7,0x10
    2efe:	18fd                	addi	a7,a7,-1
    2f00:	01065593          	srli	a1,a2,0x10
    2f04:	01167633          	and	a2,a2,a7
    2f08:	0642                	slli	a2,a2,0x10
    2f0a:	0112f8b3          	and	a7,t0,a7
    2f0e:	95aa                	add	a1,a1,a0
    2f10:	9646                	add	a2,a2,a7
    2f12:	12b6e663          	bltu	a3,a1,303e <__divdf3+0x442>
    2f16:	12b68263          	beq	a3,a1,303a <__divdf3+0x43e>
    2f1a:	40cb0633          	sub	a2,s6,a2
    2f1e:	8e8d                	sub	a3,a3,a1
    2f20:	00cb3b33          	sltu	s6,s6,a2
    2f24:	41668b33          	sub	s6,a3,s6
    2f28:	3ff48513          	addi	a0,s1,1023
    2f2c:	17630c63          	beq	t1,s6,30a4 <__divdf3+0x4a8>
    2f30:	03db58b3          	divu	a7,s6,t4
    2f34:	01065593          	srli	a1,a2,0x10
    2f38:	03db7b33          	remu	s6,s6,t4
    2f3c:	031f06b3          	mul	a3,t5,a7
    2f40:	0b42                	slli	s6,s6,0x10
    2f42:	0165eb33          	or	s6,a1,s6
    2f46:	00db7b63          	bgeu	s6,a3,2f5c <__divdf3+0x360>
    2f4a:	9b1a                	add	s6,s6,t1
    2f4c:	fff88593          	addi	a1,a7,-1 # ffff <_data_lma+0x61fb>
    2f50:	206b6d63          	bltu	s6,t1,316a <__divdf3+0x56e>
    2f54:	20db7b63          	bgeu	s6,a3,316a <__divdf3+0x56e>
    2f58:	18f9                	addi	a7,a7,-2
    2f5a:	9b1a                	add	s6,s6,t1
    2f5c:	40db0b33          	sub	s6,s6,a3
    2f60:	03db56b3          	divu	a3,s6,t4
    2f64:	0642                	slli	a2,a2,0x10
    2f66:	8241                	srli	a2,a2,0x10
    2f68:	03db7b33          	remu	s6,s6,t4
    2f6c:	02df0f33          	mul	t5,t5,a3
    2f70:	0b42                	slli	s6,s6,0x10
    2f72:	01666633          	or	a2,a2,s6
    2f76:	01e67b63          	bgeu	a2,t5,2f8c <__divdf3+0x390>
    2f7a:	961a                	add	a2,a2,t1
    2f7c:	fff68593          	addi	a1,a3,-1 # 7fffff <_data_lma+0x7f61fb>
    2f80:	1e666763          	bltu	a2,t1,316e <__divdf3+0x572>
    2f84:	1fe67563          	bgeu	a2,t5,316e <__divdf3+0x572>
    2f88:	16f9                	addi	a3,a3,-2
    2f8a:	961a                	add	a2,a2,t1
    2f8c:	08c2                	slli	a7,a7,0x10
    2f8e:	00d8e8b3          	or	a7,a7,a3
    2f92:	01089593          	slli	a1,a7,0x10
    2f96:	0108d293          	srli	t0,a7,0x10
    2f9a:	81c1                	srli	a1,a1,0x10
    2f9c:	02f58eb3          	mul	t4,a1,a5
    2fa0:	41e60633          	sub	a2,a2,t5
    2fa4:	02bf85b3          	mul	a1,t6,a1
    2fa8:	010ed693          	srli	a3,t4,0x10
    2fac:	02f287b3          	mul	a5,t0,a5
    2fb0:	95be                	add	a1,a1,a5
    2fb2:	96ae                	add	a3,a3,a1
    2fb4:	025f8fb3          	mul	t6,t6,t0
    2fb8:	00f6f463          	bgeu	a3,a5,2fc0 <__divdf3+0x3c4>
    2fbc:	67c1                	lui	a5,0x10
    2fbe:	9fbe                	add	t6,t6,a5
    2fc0:	65c1                	lui	a1,0x10
    2fc2:	15fd                	addi	a1,a1,-1
    2fc4:	0106d793          	srli	a5,a3,0x10
    2fc8:	8eed                	and	a3,a3,a1
    2fca:	06c2                	slli	a3,a3,0x10
    2fcc:	00befeb3          	and	t4,t4,a1
    2fd0:	9fbe                	add	t6,t6,a5
    2fd2:	96f6                	add	a3,a3,t4
    2fd4:	09f67f63          	bgeu	a2,t6,3072 <__divdf3+0x476>
    2fd8:	961a                	add	a2,a2,t1
    2fda:	fff88793          	addi	a5,a7,-1
    2fde:	1a666963          	bltu	a2,t1,3190 <__divdf3+0x594>
    2fe2:	19f66863          	bltu	a2,t6,3172 <__divdf3+0x576>
    2fe6:	1bf60f63          	beq	a2,t6,31a4 <__divdf3+0x5a8>
    2fea:	88be                	mv	a7,a5
    2fec:	0018e893          	ori	a7,a7,1
    2ff0:	b511                	j	2df4 <__divdf3+0x1f8>
    2ff2:	854a                	mv	a0,s2
    2ff4:	541010ef          	jal	ra,4d34 <__clzsi2>
    2ff8:	01550713          	addi	a4,a0,21
    2ffc:	45f1                	li	a1,28
    2ffe:	02050493          	addi	s1,a0,32
    3002:	4622                	lw	a2,8(sp)
    3004:	46b2                	lw	a3,12(sp)
    3006:	d4e5dae3          	bge	a1,a4,2d5a <__divdf3+0x15e>
    300a:	ff850413          	addi	s0,a0,-8
    300e:	00891a33          	sll	s4,s2,s0
    3012:	4b01                	li	s6,0
    3014:	b385                	j	2d74 <__divdf3+0x178>
    3016:	8532                	mv	a0,a2
    3018:	c432                	sw	a2,8(sp)
    301a:	51b010ef          	jal	ra,4d34 <__clzsi2>
    301e:	01550713          	addi	a4,a0,21
    3022:	46f1                	li	a3,28
    3024:	87aa                	mv	a5,a0
    3026:	4622                	lw	a2,8(sp)
    3028:	02050513          	addi	a0,a0,32
    302c:	cee6d6e3          	bge	a3,a4,2d18 <__divdf3+0x11c>
    3030:	17e1                	addi	a5,a5,-8
    3032:	00f61733          	sll	a4,a2,a5
    3036:	4881                	li	a7,0
    3038:	b9e5                	j	2d30 <__divdf3+0x134>
    303a:	eecb70e3          	bgeu	s6,a2,2f1a <__divdf3+0x31e>
    303e:	9b72                	add	s6,s6,t3
    3040:	01cb3533          	sltu	a0,s6,t3
    3044:	951a                	add	a0,a0,t1
    3046:	96aa                	add	a3,a3,a0
    3048:	fff70513          	addi	a0,a4,-1
    304c:	02d37863          	bgeu	t1,a3,307c <__divdf3+0x480>
    3050:	10b6e663          	bltu	a3,a1,315c <__divdf3+0x560>
    3054:	10d58263          	beq	a1,a3,3158 <__divdf3+0x55c>
    3058:	872a                	mv	a4,a0
    305a:	b5c1                	j	2f1a <__divdf3+0x31e>
    305c:	df1b65e3          	bltu	s6,a7,2e46 <__divdf3+0x24a>
    3060:	001b5593          	srli	a1,s6,0x1
    3064:	01fa1693          	slli	a3,s4,0x1f
    3068:	001a5413          	srli	s0,s4,0x1
    306c:	8ecd                	or	a3,a3,a1
    306e:	0b7e                	slli	s6,s6,0x1f
    3070:	bbf9                	j	2e4e <__divdf3+0x252>
    3072:	f7f61de3          	bne	a2,t6,2fec <__divdf3+0x3f0>
    3076:	d6068fe3          	beqz	a3,2df4 <__divdf3+0x1f8>
    307a:	bfb9                	j	2fd8 <__divdf3+0x3dc>
    307c:	fcd31ee3          	bne	t1,a3,3058 <__divdf3+0x45c>
    3080:	fdcb78e3          	bgeu	s6,t3,3050 <__divdf3+0x454>
    3084:	872a                	mv	a4,a0
    3086:	bd51                	j	2f1a <__divdf3+0x31e>
    3088:	00f8f793          	andi	a5,a7,15
    308c:	4691                	li	a3,4
    308e:	d6d789e3          	beq	a5,a3,2e00 <__divdf3+0x204>
    3092:	ffc8b793          	sltiu	a5,a7,-4
    3096:	00488693          	addi	a3,a7,4
    309a:	0017c793          	xori	a5,a5,1
    309e:	828d                	srli	a3,a3,0x3
    30a0:	973e                	add	a4,a4,a5
    30a2:	b38d                	j	2e04 <__divdf3+0x208>
    30a4:	4681                	li	a3,0
    30a6:	4785                	li	a5,1
    30a8:	fea04ce3          	bgtz	a0,30a0 <__divdf3+0x4a4>
    30ac:	58fd                	li	a7,-1
    30ae:	d0051ce3          	bnez	a0,2dc6 <__divdf3+0x1ca>
    30b2:	c0100493          	li	s1,-1023
    30b6:	4785                	li	a5,1
    30b8:	41e48513          	addi	a0,s1,1054
    30bc:	00a716b3          	sll	a3,a4,a0
    30c0:	00f8d633          	srl	a2,a7,a5
    30c4:	00a89533          	sll	a0,a7,a0
    30c8:	8ed1                	or	a3,a3,a2
    30ca:	00a03533          	snez	a0,a0
    30ce:	8ec9                	or	a3,a3,a0
    30d0:	0076f613          	andi	a2,a3,7
    30d4:	00f75733          	srl	a4,a4,a5
    30d8:	ce01                	beqz	a2,30f0 <__divdf3+0x4f4>
    30da:	00f6f793          	andi	a5,a3,15
    30de:	4611                	li	a2,4
    30e0:	00c78863          	beq	a5,a2,30f0 <__divdf3+0x4f4>
    30e4:	00468793          	addi	a5,a3,4
    30e8:	00d7b6b3          	sltu	a3,a5,a3
    30ec:	9736                	add	a4,a4,a3
    30ee:	86be                	mv	a3,a5
    30f0:	00871793          	slli	a5,a4,0x8
    30f4:	0407d863          	bgez	a5,3144 <__divdf3+0x548>
    30f8:	4605                	li	a2,1
    30fa:	4781                	li	a5,0
    30fc:	4701                	li	a4,0
    30fe:	b6f1                	j	2cca <__divdf3+0xce>
    3100:	8736                	mv	a4,a3
    3102:	bb7d                	j	2ec0 <__divdf3+0x2c4>
    3104:	87b2                	mv	a5,a2
    3106:	b379                	j	2e94 <__divdf3+0x298>
    3108:	46fd                	li	a3,31
    310a:	faf6d7e3          	bge	a3,a5,30b8 <__divdf3+0x4bc>
    310e:	5605                	li	a2,-31
    3110:	8e09                	sub	a2,a2,a0
    3112:	02000693          	li	a3,32
    3116:	00c75633          	srl	a2,a4,a2
    311a:	00d78863          	beq	a5,a3,312a <__divdf3+0x52e>
    311e:	43e48793          	addi	a5,s1,1086
    3122:	00f717b3          	sll	a5,a4,a5
    3126:	00f8e8b3          	or	a7,a7,a5
    312a:	011036b3          	snez	a3,a7
    312e:	8ed1                	or	a3,a3,a2
    3130:	0076f613          	andi	a2,a3,7
    3134:	4781                	li	a5,0
    3136:	ce01                	beqz	a2,314e <__divdf3+0x552>
    3138:	00f6f793          	andi	a5,a3,15
    313c:	4611                	li	a2,4
    313e:	4701                	li	a4,0
    3140:	fac792e3          	bne	a5,a2,30e4 <__divdf3+0x4e8>
    3144:	00971793          	slli	a5,a4,0x9
    3148:	01d71613          	slli	a2,a4,0x1d
    314c:	83b1                	srli	a5,a5,0xc
    314e:	0036d713          	srli	a4,a3,0x3
    3152:	8f51                	or	a4,a4,a2
    3154:	4601                	li	a2,0
    3156:	be95                	j	2cca <__divdf3+0xce>
    3158:	f0cb70e3          	bgeu	s6,a2,3058 <__divdf3+0x45c>
    315c:	9b72                	add	s6,s6,t3
    315e:	01cb3533          	sltu	a0,s6,t3
    3162:	951a                	add	a0,a0,t1
    3164:	1779                	addi	a4,a4,-2
    3166:	96aa                	add	a3,a3,a0
    3168:	bb4d                	j	2f1a <__divdf3+0x31e>
    316a:	88ae                	mv	a7,a1
    316c:	bbc5                	j	2f5c <__divdf3+0x360>
    316e:	86ae                	mv	a3,a1
    3170:	bd31                	j	2f8c <__divdf3+0x390>
    3172:	001e1793          	slli	a5,t3,0x1
    3176:	01c7be33          	sltu	t3,a5,t3
    317a:	9372                	add	t1,t1,t3
    317c:	961a                	add	a2,a2,t1
    317e:	18f9                	addi	a7,a7,-2
    3180:	8e3e                	mv	t3,a5
    3182:	e7f615e3          	bne	a2,t6,2fec <__divdf3+0x3f0>
    3186:	c6de07e3          	beq	t3,a3,2df4 <__divdf3+0x1f8>
    318a:	0018e893          	ori	a7,a7,1
    318e:	b19d                	j	2df4 <__divdf3+0x1f8>
    3190:	88be                	mv	a7,a5
    3192:	fff60ae3          	beq	a2,t6,3186 <__divdf3+0x58a>
    3196:	bd99                	j	2fec <__divdf3+0x3f0>
    3198:	8836                	mv	a6,a3
    319a:	7ff00613          	li	a2,2047
    319e:	4781                	li	a5,0
    31a0:	4701                	li	a4,0
    31a2:	b625                	j	2cca <__divdf3+0xce>
    31a4:	fcde67e3          	bltu	t3,a3,3172 <__divdf3+0x576>
    31a8:	88be                	mv	a7,a5
    31aa:	fede10e3          	bne	t3,a3,318a <__divdf3+0x58e>
    31ae:	b199                	j	2df4 <__divdf3+0x1f8>

000031b0 <__muldf3>:
    31b0:	7139                	addi	sp,sp,-64
    31b2:	d84a                	sw	s2,48(sp)
    31b4:	0145d913          	srli	s2,a1,0x14
    31b8:	d64e                	sw	s3,44(sp)
    31ba:	d452                	sw	s4,40(sp)
    31bc:	d256                	sw	s5,36(sp)
    31be:	00c59993          	slli	s3,a1,0xc
    31c2:	de06                	sw	ra,60(sp)
    31c4:	dc22                	sw	s0,56(sp)
    31c6:	da26                	sw	s1,52(sp)
    31c8:	d05a                	sw	s6,32(sp)
    31ca:	ce5e                	sw	s7,28(sp)
    31cc:	7ff97913          	andi	s2,s2,2047
    31d0:	8a2a                	mv	s4,a0
    31d2:	00c9d993          	srli	s3,s3,0xc
    31d6:	01f5da93          	srli	s5,a1,0x1f
    31da:	0e090d63          	beqz	s2,32d4 <__muldf3+0x124>
    31de:	7ff00793          	li	a5,2047
    31e2:	18f90663          	beq	s2,a5,336e <__muldf3+0x1be>
    31e6:	01d55413          	srli	s0,a0,0x1d
    31ea:	098e                	slli	s3,s3,0x3
    31ec:	013469b3          	or	s3,s0,s3
    31f0:	00800437          	lui	s0,0x800
    31f4:	0089e433          	or	s0,s3,s0
    31f8:	00351493          	slli	s1,a0,0x3
    31fc:	c0190913          	addi	s2,s2,-1023
    3200:	4981                	li	s3,0
    3202:	4b81                	li	s7,0
    3204:	0146d713          	srli	a4,a3,0x14
    3208:	00c69a13          	slli	s4,a3,0xc
    320c:	7ff77713          	andi	a4,a4,2047
    3210:	85b2                	mv	a1,a2
    3212:	00ca5a13          	srli	s4,s4,0xc
    3216:	01f6db13          	srli	s6,a3,0x1f
    321a:	10070b63          	beqz	a4,3330 <__muldf3+0x180>
    321e:	7ff00793          	li	a5,2047
    3222:	04f70363          	beq	a4,a5,3268 <__muldf3+0xb8>
    3226:	01d65793          	srli	a5,a2,0x1d
    322a:	0a0e                	slli	s4,s4,0x3
    322c:	0147ea33          	or	s4,a5,s4
    3230:	c0170713          	addi	a4,a4,-1023
    3234:	008007b7          	lui	a5,0x800
    3238:	00fa67b3          	or	a5,s4,a5
    323c:	00361593          	slli	a1,a2,0x3
    3240:	993a                	add	s2,s2,a4
    3242:	4881                	li	a7,0
    3244:	016ac733          	xor	a4,s5,s6
    3248:	46bd                	li	a3,15
    324a:	853a                	mv	a0,a4
    324c:	00190813          	addi	a6,s2,1
    3250:	1736e863          	bltu	a3,s3,33c0 <__muldf3+0x210>
    3254:	00006617          	auipc	a2,0x6
    3258:	6c860613          	addi	a2,a2,1736 # 991c <COS_Factor+0x198>
    325c:	098a                	slli	s3,s3,0x2
    325e:	99b2                	add	s3,s3,a2
    3260:	0009a683          	lw	a3,0(s3)
    3264:	96b2                	add	a3,a3,a2
    3266:	8682                	jr	a3
    3268:	00ca67b3          	or	a5,s4,a2
    326c:	7ff90913          	addi	s2,s2,2047
    3270:	12079963          	bnez	a5,33a2 <__muldf3+0x1f2>
    3274:	0029e993          	ori	s3,s3,2
    3278:	4581                	li	a1,0
    327a:	4889                	li	a7,2
    327c:	b7e1                	j	3244 <__muldf3+0x94>
    327e:	4701                	li	a4,0
    3280:	7ff00793          	li	a5,2047
    3284:	00080437          	lui	s0,0x80
    3288:	4481                	li	s1,0
    328a:	0432                	slli	s0,s0,0xc
    328c:	07d2                	slli	a5,a5,0x14
    328e:	8031                	srli	s0,s0,0xc
    3290:	077e                	slli	a4,a4,0x1f
    3292:	8c5d                	or	s0,s0,a5
    3294:	8c59                	or	s0,s0,a4
    3296:	85a2                	mv	a1,s0
    3298:	50f2                	lw	ra,60(sp)
    329a:	5462                	lw	s0,56(sp)
    329c:	8526                	mv	a0,s1
    329e:	5942                	lw	s2,48(sp)
    32a0:	54d2                	lw	s1,52(sp)
    32a2:	59b2                	lw	s3,44(sp)
    32a4:	5a22                	lw	s4,40(sp)
    32a6:	5a92                	lw	s5,36(sp)
    32a8:	5b02                	lw	s6,32(sp)
    32aa:	4bf2                	lw	s7,28(sp)
    32ac:	6121                	addi	sp,sp,64
    32ae:	8082                	ret
    32b0:	855a                	mv	a0,s6
    32b2:	843e                	mv	s0,a5
    32b4:	84ae                	mv	s1,a1
    32b6:	8bc6                	mv	s7,a7
    32b8:	4789                	li	a5,2
    32ba:	0efb8d63          	beq	s7,a5,33b4 <__muldf3+0x204>
    32be:	478d                	li	a5,3
    32c0:	fafb8fe3          	beq	s7,a5,327e <__muldf3+0xce>
    32c4:	4785                	li	a5,1
    32c6:	872a                	mv	a4,a0
    32c8:	38fb9e63          	bne	s7,a5,3664 <__muldf3+0x4b4>
    32cc:	4781                	li	a5,0
    32ce:	4401                	li	s0,0
    32d0:	4481                	li	s1,0
    32d2:	bf65                	j	328a <__muldf3+0xda>
    32d4:	00a9e433          	or	s0,s3,a0
    32d8:	c061                	beqz	s0,3398 <__muldf3+0x1e8>
    32da:	c636                	sw	a3,12(sp)
    32dc:	c432                	sw	a2,8(sp)
    32de:	2a098c63          	beqz	s3,3596 <__muldf3+0x3e6>
    32e2:	854e                	mv	a0,s3
    32e4:	251010ef          	jal	ra,4d34 <__clzsi2>
    32e8:	4622                	lw	a2,8(sp)
    32ea:	46b2                	lw	a3,12(sp)
    32ec:	87aa                	mv	a5,a0
    32ee:	ff550713          	addi	a4,a0,-11
    32f2:	4475                	li	s0,29
    32f4:	ff878493          	addi	s1,a5,-8 # 7ffff8 <_data_lma+0x7f61f4>
    32f8:	8c19                	sub	s0,s0,a4
    32fa:	009999b3          	sll	s3,s3,s1
    32fe:	008a5433          	srl	s0,s4,s0
    3302:	01346433          	or	s0,s0,s3
    3306:	009a14b3          	sll	s1,s4,s1
    330a:	0146d713          	srli	a4,a3,0x14
    330e:	c0d00913          	li	s2,-1011
    3312:	00c69a13          	slli	s4,a3,0xc
    3316:	7ff77713          	andi	a4,a4,2047
    331a:	40f90933          	sub	s2,s2,a5
    331e:	4981                	li	s3,0
    3320:	4b81                	li	s7,0
    3322:	85b2                	mv	a1,a2
    3324:	00ca5a13          	srli	s4,s4,0xc
    3328:	01f6db13          	srli	s6,a3,0x1f
    332c:	ee0719e3          	bnez	a4,321e <__muldf3+0x6e>
    3330:	00ca67b3          	or	a5,s4,a2
    3334:	c7b1                	beqz	a5,3380 <__muldf3+0x1d0>
    3336:	220a0f63          	beqz	s4,3574 <__muldf3+0x3c4>
    333a:	8552                	mv	a0,s4
    333c:	c432                	sw	a2,8(sp)
    333e:	1f7010ef          	jal	ra,4d34 <__clzsi2>
    3342:	4622                	lw	a2,8(sp)
    3344:	872a                	mv	a4,a0
    3346:	ff550693          	addi	a3,a0,-11
    334a:	47f5                	li	a5,29
    334c:	ff870593          	addi	a1,a4,-8
    3350:	8f95                	sub	a5,a5,a3
    3352:	00ba1a33          	sll	s4,s4,a1
    3356:	00f657b3          	srl	a5,a2,a5
    335a:	0147e7b3          	or	a5,a5,s4
    335e:	00b615b3          	sll	a1,a2,a1
    3362:	40e90933          	sub	s2,s2,a4
    3366:	c0d90913          	addi	s2,s2,-1011
    336a:	4881                	li	a7,0
    336c:	bde1                	j	3244 <__muldf3+0x94>
    336e:	00a9e433          	or	s0,s3,a0
    3372:	ec01                	bnez	s0,338a <__muldf3+0x1da>
    3374:	49a1                	li	s3,8
    3376:	4481                	li	s1,0
    3378:	7ff00913          	li	s2,2047
    337c:	4b89                	li	s7,2
    337e:	b559                	j	3204 <__muldf3+0x54>
    3380:	0019e993          	ori	s3,s3,1
    3384:	4581                	li	a1,0
    3386:	4885                	li	a7,1
    3388:	bd75                	j	3244 <__muldf3+0x94>
    338a:	844e                	mv	s0,s3
    338c:	84aa                	mv	s1,a0
    338e:	49b1                	li	s3,12
    3390:	7ff00913          	li	s2,2047
    3394:	4b8d                	li	s7,3
    3396:	b5bd                	j	3204 <__muldf3+0x54>
    3398:	4991                	li	s3,4
    339a:	4481                	li	s1,0
    339c:	4901                	li	s2,0
    339e:	4b85                	li	s7,1
    33a0:	b595                	j	3204 <__muldf3+0x54>
    33a2:	0039e993          	ori	s3,s3,3
    33a6:	87d2                	mv	a5,s4
    33a8:	488d                	li	a7,3
    33aa:	bd69                	j	3244 <__muldf3+0x94>
    33ac:	4789                	li	a5,2
    33ae:	8556                	mv	a0,s5
    33b0:	f0fb97e3          	bne	s7,a5,32be <__muldf3+0x10e>
    33b4:	872a                	mv	a4,a0
    33b6:	7ff00793          	li	a5,2047
    33ba:	4401                	li	s0,0
    33bc:	4481                	li	s1,0
    33be:	b5f1                	j	328a <__muldf3+0xda>
    33c0:	6ec1                	lui	t4,0x10
    33c2:	fffe8613          	addi	a2,t4,-1 # ffff <_data_lma+0x61fb>
    33c6:	0104d693          	srli	a3,s1,0x10
    33ca:	0105de13          	srli	t3,a1,0x10
    33ce:	8cf1                	and	s1,s1,a2
    33d0:	8df1                	and	a1,a1,a2
    33d2:	02958633          	mul	a2,a1,s1
    33d6:	02b68333          	mul	t1,a3,a1
    33da:	01065893          	srli	a7,a2,0x10
    33de:	029e0533          	mul	a0,t3,s1
    33e2:	951a                	add	a0,a0,t1
    33e4:	98aa                	add	a7,a7,a0
    33e6:	03c682b3          	mul	t0,a3,t3
    33ea:	0068f363          	bgeu	a7,t1,33f0 <__muldf3+0x240>
    33ee:	92f6                	add	t0,t0,t4
    33f0:	6fc1                	lui	t6,0x10
    33f2:	ffff8313          	addi	t1,t6,-1 # ffff <_data_lma+0x61fb>
    33f6:	0067f533          	and	a0,a5,t1
    33fa:	0107d393          	srli	t2,a5,0x10
    33fe:	0068f7b3          	and	a5,a7,t1
    3402:	07c2                	slli	a5,a5,0x10
    3404:	00667333          	and	t1,a2,t1
    3408:	933e                	add	t1,t1,a5
    340a:	02950633          	mul	a2,a0,s1
    340e:	0108d893          	srli	a7,a7,0x10
    3412:	02a687b3          	mul	a5,a3,a0
    3416:	01065f13          	srli	t5,a2,0x10
    341a:	029384b3          	mul	s1,t2,s1
    341e:	94be                	add	s1,s1,a5
    3420:	94fa                	add	s1,s1,t5
    3422:	02768eb3          	mul	t4,a3,t2
    3426:	00f4f363          	bgeu	s1,a5,342c <__muldf3+0x27c>
    342a:	9efe                	add	t4,t4,t6
    342c:	6a41                	lui	s4,0x10
    342e:	fffa0793          	addi	a5,s4,-1 # ffff <_data_lma+0x61fb>
    3432:	01045f93          	srli	t6,s0,0x10
    3436:	00f476b3          	and	a3,s0,a5
    343a:	00f4f9b3          	and	s3,s1,a5
    343e:	8e7d                	and	a2,a2,a5
    3440:	80c1                	srli	s1,s1,0x10
    3442:	02d58433          	mul	s0,a1,a3
    3446:	09c2                	slli	s3,s3,0x10
    3448:	01d48f33          	add	t5,s1,t4
    344c:	99b2                	add	s3,s3,a2
    344e:	98ce                	add	a7,a7,s3
    3450:	02de07b3          	mul	a5,t3,a3
    3454:	01045e93          	srli	t4,s0,0x10
    3458:	02bf85b3          	mul	a1,t6,a1
    345c:	97ae                	add	a5,a5,a1
    345e:	9ebe                	add	t4,t4,a5
    3460:	03fe0e33          	mul	t3,t3,t6
    3464:	00bef363          	bgeu	t4,a1,346a <__muldf3+0x2ba>
    3468:	9e52                	add	t3,t3,s4
    346a:	67c1                	lui	a5,0x10
    346c:	fff78593          	addi	a1,a5,-1 # ffff <_data_lma+0x61fb>
    3470:	00bef633          	and	a2,t4,a1
    3474:	8c6d                	and	s0,s0,a1
    3476:	0642                	slli	a2,a2,0x10
    3478:	9622                	add	a2,a2,s0
    347a:	010ede93          	srli	t4,t4,0x10
    347e:	02d505b3          	mul	a1,a0,a3
    3482:	9e76                	add	t3,t3,t4
    3484:	02af8533          	mul	a0,t6,a0
    3488:	0105d413          	srli	s0,a1,0x10
    348c:	02d386b3          	mul	a3,t2,a3
    3490:	96aa                	add	a3,a3,a0
    3492:	96a2                	add	a3,a3,s0
    3494:	03f38fb3          	mul	t6,t2,t6
    3498:	00a6f363          	bgeu	a3,a0,349e <__muldf3+0x2ee>
    349c:	9fbe                	add	t6,t6,a5
    349e:	6541                	lui	a0,0x10
    34a0:	157d                	addi	a0,a0,-1
    34a2:	00a6f7b3          	and	a5,a3,a0
    34a6:	07c2                	slli	a5,a5,0x10
    34a8:	8d6d                	and	a0,a0,a1
    34aa:	97aa                	add	a5,a5,a0
    34ac:	005885b3          	add	a1,a7,t0
    34b0:	0135b9b3          	sltu	s3,a1,s3
    34b4:	97fa                	add	a5,a5,t5
    34b6:	95b2                	add	a1,a1,a2
    34b8:	01378433          	add	s0,a5,s3
    34bc:	00c5b633          	sltu	a2,a1,a2
    34c0:	01c40eb3          	add	t4,s0,t3
    34c4:	00ce8533          	add	a0,t4,a2
    34c8:	01343433          	sltu	s0,s0,s3
    34cc:	01e7b7b3          	sltu	a5,a5,t5
    34d0:	8fc1                	or	a5,a5,s0
    34d2:	01cebe33          	sltu	t3,t4,t3
    34d6:	0106d413          	srli	s0,a3,0x10
    34da:	00c53633          	sltu	a2,a0,a2
    34de:	943e                	add	s0,s0,a5
    34e0:	00ce6633          	or	a2,t3,a2
    34e4:	00959493          	slli	s1,a1,0x9
    34e8:	9432                	add	s0,s0,a2
    34ea:	947e                	add	s0,s0,t6
    34ec:	0064e4b3          	or	s1,s1,t1
    34f0:	0426                	slli	s0,s0,0x9
    34f2:	01755693          	srli	a3,a0,0x17
    34f6:	009034b3          	snez	s1,s1
    34fa:	81dd                	srli	a1,a1,0x17
    34fc:	00951793          	slli	a5,a0,0x9
    3500:	8ccd                	or	s1,s1,a1
    3502:	8c55                	or	s0,s0,a3
    3504:	8cdd                	or	s1,s1,a5
    3506:	00741793          	slli	a5,s0,0x7
    350a:	0007db63          	bgez	a5,3520 <__muldf3+0x370>
    350e:	0014d793          	srli	a5,s1,0x1
    3512:	8885                	andi	s1,s1,1
    3514:	01f41693          	slli	a3,s0,0x1f
    3518:	8cdd                	or	s1,s1,a5
    351a:	8cd5                	or	s1,s1,a3
    351c:	8005                	srli	s0,s0,0x1
    351e:	8942                	mv	s2,a6
    3520:	3ff90793          	addi	a5,s2,1023
    3524:	08f05963          	blez	a5,35b6 <__muldf3+0x406>
    3528:	0074f693          	andi	a3,s1,7
    352c:	ce81                	beqz	a3,3544 <__muldf3+0x394>
    352e:	00f4f693          	andi	a3,s1,15
    3532:	4611                	li	a2,4
    3534:	00c68863          	beq	a3,a2,3544 <__muldf3+0x394>
    3538:	00448693          	addi	a3,s1,4
    353c:	0096b4b3          	sltu	s1,a3,s1
    3540:	9426                	add	s0,s0,s1
    3542:	84b6                	mv	s1,a3
    3544:	00741693          	slli	a3,s0,0x7
    3548:	0006d863          	bgez	a3,3558 <__muldf3+0x3a8>
    354c:	ff0007b7          	lui	a5,0xff000
    3550:	17fd                	addi	a5,a5,-1
    3552:	8c7d                	and	s0,s0,a5
    3554:	40090793          	addi	a5,s2,1024
    3558:	7fe00693          	li	a3,2046
    355c:	0ef6cf63          	blt	a3,a5,365a <__muldf3+0x4aa>
    3560:	0034d693          	srli	a3,s1,0x3
    3564:	01d41493          	slli	s1,s0,0x1d
    3568:	0426                	slli	s0,s0,0x9
    356a:	8cd5                	or	s1,s1,a3
    356c:	8031                	srli	s0,s0,0xc
    356e:	7ff7f793          	andi	a5,a5,2047
    3572:	bb21                	j	328a <__muldf3+0xda>
    3574:	8532                	mv	a0,a2
    3576:	c432                	sw	a2,8(sp)
    3578:	7bc010ef          	jal	ra,4d34 <__clzsi2>
    357c:	01550693          	addi	a3,a0,21 # 10015 <_data_lma+0x6211>
    3580:	47f1                	li	a5,28
    3582:	02050713          	addi	a4,a0,32
    3586:	4622                	lw	a2,8(sp)
    3588:	dcd7d1e3          	bge	a5,a3,334a <__muldf3+0x19a>
    358c:	1561                	addi	a0,a0,-8
    358e:	00a617b3          	sll	a5,a2,a0
    3592:	4581                	li	a1,0
    3594:	b3f9                	j	3362 <__muldf3+0x1b2>
    3596:	79e010ef          	jal	ra,4d34 <__clzsi2>
    359a:	01550713          	addi	a4,a0,21
    359e:	45f1                	li	a1,28
    35a0:	02050793          	addi	a5,a0,32
    35a4:	4622                	lw	a2,8(sp)
    35a6:	46b2                	lw	a3,12(sp)
    35a8:	d4e5d5e3          	bge	a1,a4,32f2 <__muldf3+0x142>
    35ac:	1561                	addi	a0,a0,-8
    35ae:	00aa1433          	sll	s0,s4,a0
    35b2:	4481                	li	s1,0
    35b4:	bb99                	j	330a <__muldf3+0x15a>
    35b6:	4685                	li	a3,1
    35b8:	8e9d                	sub	a3,a3,a5
    35ba:	e7b1                	bnez	a5,3606 <__muldf3+0x456>
    35bc:	41e90913          	addi	s2,s2,1054
    35c0:	012497b3          	sll	a5,s1,s2
    35c4:	00d4d4b3          	srl	s1,s1,a3
    35c8:	01241933          	sll	s2,s0,s2
    35cc:	00f037b3          	snez	a5,a5
    35d0:	009964b3          	or	s1,s2,s1
    35d4:	8cdd                	or	s1,s1,a5
    35d6:	0074f793          	andi	a5,s1,7
    35da:	00d456b3          	srl	a3,s0,a3
    35de:	cf81                	beqz	a5,35f6 <__muldf3+0x446>
    35e0:	00f4f793          	andi	a5,s1,15
    35e4:	4611                	li	a2,4
    35e6:	00c78863          	beq	a5,a2,35f6 <__muldf3+0x446>
    35ea:	00448793          	addi	a5,s1,4
    35ee:	0097b4b3          	sltu	s1,a5,s1
    35f2:	96a6                	add	a3,a3,s1
    35f4:	84be                	mv	s1,a5
    35f6:	00869793          	slli	a5,a3,0x8
    35fa:	0407d863          	bgez	a5,364a <__muldf3+0x49a>
    35fe:	4785                	li	a5,1
    3600:	4401                	li	s0,0
    3602:	4481                	li	s1,0
    3604:	b159                	j	328a <__muldf3+0xda>
    3606:	03800613          	li	a2,56
    360a:	ccd641e3          	blt	a2,a3,32cc <__muldf3+0x11c>
    360e:	467d                	li	a2,31
    3610:	fad656e3          	bge	a2,a3,35bc <__muldf3+0x40c>
    3614:	5605                	li	a2,-31
    3616:	40f607b3          	sub	a5,a2,a5
    361a:	02000593          	li	a1,32
    361e:	00f45633          	srl	a2,s0,a5
    3622:	00b68763          	beq	a3,a1,3630 <__muldf3+0x480>
    3626:	43e90913          	addi	s2,s2,1086
    362a:	012417b3          	sll	a5,s0,s2
    362e:	8cdd                	or	s1,s1,a5
    3630:	009034b3          	snez	s1,s1
    3634:	8cd1                	or	s1,s1,a2
    3636:	0074f693          	andi	a3,s1,7
    363a:	4401                	li	s0,0
    363c:	ca99                	beqz	a3,3652 <__muldf3+0x4a2>
    363e:	00f4f793          	andi	a5,s1,15
    3642:	4611                	li	a2,4
    3644:	4681                	li	a3,0
    3646:	fac792e3          	bne	a5,a2,35ea <__muldf3+0x43a>
    364a:	00969413          	slli	s0,a3,0x9
    364e:	8031                	srli	s0,s0,0xc
    3650:	06f6                	slli	a3,a3,0x1d
    3652:	808d                	srli	s1,s1,0x3
    3654:	8cd5                	or	s1,s1,a3
    3656:	4781                	li	a5,0
    3658:	b90d                	j	328a <__muldf3+0xda>
    365a:	7ff00793          	li	a5,2047
    365e:	4401                	li	s0,0
    3660:	4481                	li	s1,0
    3662:	b125                	j	328a <__muldf3+0xda>
    3664:	8942                	mv	s2,a6
    3666:	bd6d                	j	3520 <__muldf3+0x370>

00003668 <__subdf3>:
    3668:	00100737          	lui	a4,0x100
    366c:	177d                	addi	a4,a4,-1
    366e:	1101                	addi	sp,sp,-32
    3670:	00b77333          	and	t1,a4,a1
    3674:	0146d893          	srli	a7,a3,0x14
    3678:	8f75                	and	a4,a4,a3
    367a:	01d65e93          	srli	t4,a2,0x1d
    367e:	cc22                	sw	s0,24(sp)
    3680:	ca26                	sw	s1,20(sp)
    3682:	030e                	slli	t1,t1,0x3
    3684:	0145d493          	srli	s1,a1,0x14
    3688:	01d55793          	srli	a5,a0,0x1d
    368c:	070e                	slli	a4,a4,0x3
    368e:	ce06                	sw	ra,28(sp)
    3690:	c84a                	sw	s2,16(sp)
    3692:	c64e                	sw	s3,12(sp)
    3694:	7ff8f893          	andi	a7,a7,2047
    3698:	7ff00e13          	li	t3,2047
    369c:	00eee733          	or	a4,t4,a4
    36a0:	7ff4f493          	andi	s1,s1,2047
    36a4:	01f5d413          	srli	s0,a1,0x1f
    36a8:	0067e333          	or	t1,a5,t1
    36ac:	00351f13          	slli	t5,a0,0x3
    36b0:	82fd                	srli	a3,a3,0x1f
    36b2:	00361e93          	slli	t4,a2,0x3
    36b6:	19c88063          	beq	a7,t3,3836 <__subdf3+0x1ce>
    36ba:	0016c693          	xori	a3,a3,1
    36be:	411485b3          	sub	a1,s1,a7
    36c2:	12d40563          	beq	s0,a3,37ec <__subdf3+0x184>
    36c6:	18b05163          	blez	a1,3848 <__subdf3+0x1e0>
    36ca:	1a088b63          	beqz	a7,3880 <__subdf3+0x218>
    36ce:	008007b7          	lui	a5,0x800
    36d2:	8f5d                	or	a4,a4,a5
    36d4:	59c48163          	beq	s1,t3,3c56 <__subdf3+0x5ee>
    36d8:	03800793          	li	a5,56
    36dc:	34b7c463          	blt	a5,a1,3a24 <__subdf3+0x3bc>
    36e0:	47fd                	li	a5,31
    36e2:	48b7c563          	blt	a5,a1,3b6c <__subdf3+0x504>
    36e6:	02000793          	li	a5,32
    36ea:	8f8d                	sub	a5,a5,a1
    36ec:	00bed9b3          	srl	s3,t4,a1
    36f0:	00f71833          	sll	a6,a4,a5
    36f4:	00fe9eb3          	sll	t4,t4,a5
    36f8:	01386833          	or	a6,a6,s3
    36fc:	00b75733          	srl	a4,a4,a1
    3700:	01d039b3          	snez	s3,t4
    3704:	01386833          	or	a6,a6,s3
    3708:	40e30333          	sub	t1,t1,a4
    370c:	410f09b3          	sub	s3,t5,a6
    3710:	013f37b3          	sltu	a5,t5,s3
    3714:	40f30633          	sub	a2,t1,a5
    3718:	00861793          	slli	a5,a2,0x8
    371c:	2407d363          	bgez	a5,3962 <__subdf3+0x2fa>
    3720:	00800937          	lui	s2,0x800
    3724:	197d                	addi	s2,s2,-1
    3726:	01267933          	and	s2,a2,s2
    372a:	2c090f63          	beqz	s2,3a08 <__subdf3+0x3a0>
    372e:	854a                	mv	a0,s2
    3730:	604010ef          	jal	ra,4d34 <__clzsi2>
    3734:	ff850713          	addi	a4,a0,-8
    3738:	02000793          	li	a5,32
    373c:	8f99                	sub	a5,a5,a4
    373e:	00f9d7b3          	srl	a5,s3,a5
    3742:	00e91633          	sll	a2,s2,a4
    3746:	8fd1                	or	a5,a5,a2
    3748:	00e999b3          	sll	s3,s3,a4
    374c:	2a974463          	blt	a4,s1,39f4 <__subdf3+0x38c>
    3750:	8f05                	sub	a4,a4,s1
    3752:	00170613          	addi	a2,a4,1 # 100001 <_data_lma+0xf61fd>
    3756:	46fd                	li	a3,31
    3758:	3ac6c563          	blt	a3,a2,3b02 <__subdf3+0x49a>
    375c:	02000713          	li	a4,32
    3760:	8f11                	sub	a4,a4,a2
    3762:	00c9d6b3          	srl	a3,s3,a2
    3766:	00e99833          	sll	a6,s3,a4
    376a:	00e79733          	sll	a4,a5,a4
    376e:	8f55                	or	a4,a4,a3
    3770:	01003833          	snez	a6,a6
    3774:	010769b3          	or	s3,a4,a6
    3778:	00c7d633          	srl	a2,a5,a2
    377c:	4481                	li	s1,0
    377e:	0079f793          	andi	a5,s3,7
    3782:	cf81                	beqz	a5,379a <__subdf3+0x132>
    3784:	00f9f693          	andi	a3,s3,15
    3788:	4791                	li	a5,4
    378a:	00f68863          	beq	a3,a5,379a <__subdf3+0x132>
    378e:	00498693          	addi	a3,s3,4
    3792:	0136b833          	sltu	a6,a3,s3
    3796:	9642                	add	a2,a2,a6
    3798:	89b6                	mv	s3,a3
    379a:	00861793          	slli	a5,a2,0x8
    379e:	1c07d663          	bgez	a5,396a <__subdf3+0x302>
    37a2:	00148713          	addi	a4,s1,1
    37a6:	7ff00793          	li	a5,2047
    37aa:	8805                	andi	s0,s0,1
    37ac:	20f70663          	beq	a4,a5,39b8 <__subdf3+0x350>
    37b0:	ff8007b7          	lui	a5,0xff800
    37b4:	17fd                	addi	a5,a5,-1
    37b6:	8ff1                	and	a5,a5,a2
    37b8:	01d79813          	slli	a6,a5,0x1d
    37bc:	0039d993          	srli	s3,s3,0x3
    37c0:	07a6                	slli	a5,a5,0x9
    37c2:	01386833          	or	a6,a6,s3
    37c6:	83b1                	srli	a5,a5,0xc
    37c8:	7ff77713          	andi	a4,a4,2047
    37cc:	00c79693          	slli	a3,a5,0xc
    37d0:	0752                	slli	a4,a4,0x14
    37d2:	82b1                	srli	a3,a3,0xc
    37d4:	047e                	slli	s0,s0,0x1f
    37d6:	8ed9                	or	a3,a3,a4
    37d8:	8ec1                	or	a3,a3,s0
    37da:	40f2                	lw	ra,28(sp)
    37dc:	4462                	lw	s0,24(sp)
    37de:	44d2                	lw	s1,20(sp)
    37e0:	4942                	lw	s2,16(sp)
    37e2:	49b2                	lw	s3,12(sp)
    37e4:	8542                	mv	a0,a6
    37e6:	85b6                	mv	a1,a3
    37e8:	6105                	addi	sp,sp,32
    37ea:	8082                	ret
    37ec:	0ab05663          	blez	a1,3898 <__subdf3+0x230>
    37f0:	12088a63          	beqz	a7,3924 <__subdf3+0x2bc>
    37f4:	008007b7          	lui	a5,0x800
    37f8:	8f5d                	or	a4,a4,a5
    37fa:	2dc48763          	beq	s1,t3,3ac8 <__subdf3+0x460>
    37fe:	03800793          	li	a5,56
    3802:	18b7c763          	blt	a5,a1,3990 <__subdf3+0x328>
    3806:	47fd                	li	a5,31
    3808:	3cb7d263          	bge	a5,a1,3bcc <__subdf3+0x564>
    380c:	fe058813          	addi	a6,a1,-32 # ffe0 <_data_lma+0x61dc>
    3810:	02000793          	li	a5,32
    3814:	010759b3          	srl	s3,a4,a6
    3818:	00f58a63          	beq	a1,a5,382c <__subdf3+0x1c4>
    381c:	04000793          	li	a5,64
    3820:	40b785b3          	sub	a1,a5,a1
    3824:	00b71733          	sll	a4,a4,a1
    3828:	00eeeeb3          	or	t4,t4,a4
    382c:	01d03833          	snez	a6,t4
    3830:	01386833          	or	a6,a6,s3
    3834:	a295                	j	3998 <__subdf3+0x330>
    3836:	01d767b3          	or	a5,a4,t4
    383a:	80148593          	addi	a1,s1,-2047
    383e:	e399                	bnez	a5,3844 <__subdf3+0x1dc>
    3840:	0016c693          	xori	a3,a3,1
    3844:	04d40a63          	beq	s0,a3,3898 <__subdf3+0x230>
    3848:	e1d1                	bnez	a1,38cc <__subdf3+0x264>
    384a:	00148793          	addi	a5,s1,1
    384e:	7fe7f793          	andi	a5,a5,2046
    3852:	1e079963          	bnez	a5,3a44 <__subdf3+0x3dc>
    3856:	01e367b3          	or	a5,t1,t5
    385a:	01d76833          	or	a6,a4,t4
    385e:	16049263          	bnez	s1,39c2 <__subdf3+0x35a>
    3862:	3c078263          	beqz	a5,3c26 <__subdf3+0x5be>
    3866:	42081663          	bnez	a6,3c92 <__subdf3+0x62a>
    386a:	00351813          	slli	a6,a0,0x3
    386e:	01d31693          	slli	a3,t1,0x1d
    3872:	00385813          	srli	a6,a6,0x3
    3876:	0106e833          	or	a6,a3,a6
    387a:	00335793          	srli	a5,t1,0x3
    387e:	a219                	j	3984 <__subdf3+0x31c>
    3880:	01d767b3          	or	a5,a4,t4
    3884:	1a078563          	beqz	a5,3a2e <__subdf3+0x3c6>
    3888:	fff58793          	addi	a5,a1,-1
    388c:	3a078b63          	beqz	a5,3c42 <__subdf3+0x5da>
    3890:	23c58c63          	beq	a1,t3,3ac8 <__subdf3+0x460>
    3894:	85be                	mv	a1,a5
    3896:	b589                	j	36d8 <__subdf3+0x70>
    3898:	1c059963          	bnez	a1,3a6a <__subdf3+0x402>
    389c:	00148693          	addi	a3,s1,1
    38a0:	7fe6f793          	andi	a5,a3,2046
    38a4:	efc1                	bnez	a5,393c <__subdf3+0x2d4>
    38a6:	01e367b3          	or	a5,t1,t5
    38aa:	36049063          	bnez	s1,3c0a <__subdf3+0x5a2>
    38ae:	44078d63          	beqz	a5,3d08 <__subdf3+0x6a0>
    38b2:	01d767b3          	or	a5,a4,t4
    38b6:	46079463          	bnez	a5,3d1e <__subdf3+0x6b6>
    38ba:	050e                	slli	a0,a0,0x3
    38bc:	01d31813          	slli	a6,t1,0x1d
    38c0:	810d                	srli	a0,a0,0x3
    38c2:	00a86833          	or	a6,a6,a0
    38c6:	00335793          	srli	a5,t1,0x3
    38ca:	a86d                	j	3984 <__subdf3+0x31c>
    38cc:	409885b3          	sub	a1,a7,s1
    38d0:	20049763          	bnez	s1,3ade <__subdf3+0x476>
    38d4:	01e367b3          	or	a5,t1,t5
    38d8:	30078d63          	beqz	a5,3bf2 <__subdf3+0x58a>
    38dc:	fff58793          	addi	a5,a1,-1
    38e0:	40078963          	beqz	a5,3cf2 <__subdf3+0x68a>
    38e4:	7ff00513          	li	a0,2047
    38e8:	20a58363          	beq	a1,a0,3aee <__subdf3+0x486>
    38ec:	85be                	mv	a1,a5
    38ee:	03800793          	li	a5,56
    38f2:	2ab7c263          	blt	a5,a1,3b96 <__subdf3+0x52e>
    38f6:	47fd                	li	a5,31
    38f8:	3cb7c863          	blt	a5,a1,3cc8 <__subdf3+0x660>
    38fc:	02000793          	li	a5,32
    3900:	8f8d                	sub	a5,a5,a1
    3902:	00f31833          	sll	a6,t1,a5
    3906:	00bf5633          	srl	a2,t5,a1
    390a:	00ff17b3          	sll	a5,t5,a5
    390e:	00c86833          	or	a6,a6,a2
    3912:	00f039b3          	snez	s3,a5
    3916:	00b35333          	srl	t1,t1,a1
    391a:	01386833          	or	a6,a6,s3
    391e:	40670733          	sub	a4,a4,t1
    3922:	acb5                	j	3b9e <__subdf3+0x536>
    3924:	01d767b3          	or	a5,a4,t4
    3928:	10078363          	beqz	a5,3a2e <__subdf3+0x3c6>
    392c:	fff58793          	addi	a5,a1,-1
    3930:	1e078f63          	beqz	a5,3b2e <__subdf3+0x4c6>
    3934:	2fc58063          	beq	a1,t3,3c14 <__subdf3+0x5ac>
    3938:	85be                	mv	a1,a5
    393a:	b5d1                	j	37fe <__subdf3+0x196>
    393c:	7ff00793          	li	a5,2047
    3940:	06f68b63          	beq	a3,a5,39b6 <__subdf3+0x34e>
    3944:	9efa                	add	t4,t4,t5
    3946:	01eeb633          	sltu	a2,t4,t5
    394a:	00e307b3          	add	a5,t1,a4
    394e:	97b2                	add	a5,a5,a2
    3950:	01f79813          	slli	a6,a5,0x1f
    3954:	001ede93          	srli	t4,t4,0x1
    3958:	01d869b3          	or	s3,a6,t4
    395c:	0017d613          	srli	a2,a5,0x1
    3960:	84b6                	mv	s1,a3
    3962:	0079f793          	andi	a5,s3,7
    3966:	e0079fe3          	bnez	a5,3784 <__subdf3+0x11c>
    396a:	01d61793          	slli	a5,a2,0x1d
    396e:	0039d813          	srli	a6,s3,0x3
    3972:	00f86833          	or	a6,a6,a5
    3976:	85a6                	mv	a1,s1
    3978:	00365793          	srli	a5,a2,0x3
    397c:	7ff00713          	li	a4,2047
    3980:	06e58063          	beq	a1,a4,39e0 <__subdf3+0x378>
    3984:	07b2                	slli	a5,a5,0xc
    3986:	83b1                	srli	a5,a5,0xc
    3988:	7ff5f713          	andi	a4,a1,2047
    398c:	8805                	andi	s0,s0,1
    398e:	bd3d                	j	37cc <__subdf3+0x164>
    3990:	01d76733          	or	a4,a4,t4
    3994:	00e03833          	snez	a6,a4
    3998:	01e809b3          	add	s3,a6,t5
    399c:	01e9b7b3          	sltu	a5,s3,t5
    39a0:	00678633          	add	a2,a5,t1
    39a4:	00861793          	slli	a5,a2,0x8
    39a8:	fa07dde3          	bgez	a5,3962 <__subdf3+0x2fa>
    39ac:	0485                	addi	s1,s1,1
    39ae:	7ff00793          	li	a5,2047
    39b2:	18f49c63          	bne	s1,a5,3b4a <__subdf3+0x4e2>
    39b6:	8805                	andi	s0,s0,1
    39b8:	7ff00713          	li	a4,2047
    39bc:	4781                	li	a5,0
    39be:	4801                	li	a6,0
    39c0:	b531                	j	37cc <__subdf3+0x164>
    39c2:	10079163          	bnez	a5,3ac4 <__subdf3+0x45c>
    39c6:	3c080163          	beqz	a6,3d88 <__subdf3+0x720>
    39ca:	00361813          	slli	a6,a2,0x3
    39ce:	01d71793          	slli	a5,a4,0x1d
    39d2:	00385813          	srli	a6,a6,0x3
    39d6:	00f86833          	or	a6,a6,a5
    39da:	8436                	mv	s0,a3
    39dc:	00375793          	srli	a5,a4,0x3
    39e0:	00f867b3          	or	a5,a6,a5
    39e4:	dbe9                	beqz	a5,39b6 <__subdf3+0x34e>
    39e6:	4401                	li	s0,0
    39e8:	7ff00713          	li	a4,2047
    39ec:	000807b7          	lui	a5,0x80
    39f0:	4801                	li	a6,0
    39f2:	bbe9                	j	37cc <__subdf3+0x164>
    39f4:	ff800637          	lui	a2,0xff800
    39f8:	167d                	addi	a2,a2,-1
    39fa:	8e7d                	and	a2,a2,a5
    39fc:	0079f793          	andi	a5,s3,7
    3a00:	8c99                	sub	s1,s1,a4
    3a02:	d80791e3          	bnez	a5,3784 <__subdf3+0x11c>
    3a06:	b795                	j	396a <__subdf3+0x302>
    3a08:	854e                	mv	a0,s3
    3a0a:	32a010ef          	jal	ra,4d34 <__clzsi2>
    3a0e:	01850713          	addi	a4,a0,24
    3a12:	47fd                	li	a5,31
    3a14:	d2e7d2e3          	bge	a5,a4,3738 <__subdf3+0xd0>
    3a18:	ff850613          	addi	a2,a0,-8
    3a1c:	00c997b3          	sll	a5,s3,a2
    3a20:	4981                	li	s3,0
    3a22:	b32d                	j	374c <__subdf3+0xe4>
    3a24:	01d76833          	or	a6,a4,t4
    3a28:	01003833          	snez	a6,a6
    3a2c:	b1c5                	j	370c <__subdf3+0xa4>
    3a2e:	00351813          	slli	a6,a0,0x3
    3a32:	01d31793          	slli	a5,t1,0x1d
    3a36:	00385813          	srli	a6,a6,0x3
    3a3a:	00f86833          	or	a6,a6,a5
    3a3e:	00335793          	srli	a5,t1,0x3
    3a42:	bf2d                	j	397c <__subdf3+0x314>
    3a44:	41df09b3          	sub	s3,t5,t4
    3a48:	40e30933          	sub	s2,t1,a4
    3a4c:	013f3633          	sltu	a2,t5,s3
    3a50:	40c90933          	sub	s2,s2,a2
    3a54:	00891793          	slli	a5,s2,0x8
    3a58:	2007ca63          	bltz	a5,3c6c <__subdf3+0x604>
    3a5c:	0129e833          	or	a6,s3,s2
    3a60:	cc0815e3          	bnez	a6,372a <__subdf3+0xc2>
    3a64:	4781                	li	a5,0
    3a66:	4401                	li	s0,0
    3a68:	bf31                	j	3984 <__subdf3+0x31c>
    3a6a:	409885b3          	sub	a1,a7,s1
    3a6e:	14048163          	beqz	s1,3bb0 <__subdf3+0x548>
    3a72:	008006b7          	lui	a3,0x800
    3a76:	7ff00793          	li	a5,2047
    3a7a:	00d36333          	or	t1,t1,a3
    3a7e:	20f88163          	beq	a7,a5,3c80 <__subdf3+0x618>
    3a82:	03800793          	li	a5,56
    3a86:	22b7cc63          	blt	a5,a1,3cbe <__subdf3+0x656>
    3a8a:	47fd                	li	a5,31
    3a8c:	2cb7c963          	blt	a5,a1,3d5e <__subdf3+0x6f6>
    3a90:	02000793          	li	a5,32
    3a94:	8f8d                	sub	a5,a5,a1
    3a96:	00f31833          	sll	a6,t1,a5
    3a9a:	00bf56b3          	srl	a3,t5,a1
    3a9e:	00ff17b3          	sll	a5,t5,a5
    3aa2:	00d86833          	or	a6,a6,a3
    3aa6:	00f039b3          	snez	s3,a5
    3aaa:	00b35333          	srl	t1,t1,a1
    3aae:	01386833          	or	a6,a6,s3
    3ab2:	971a                	add	a4,a4,t1
    3ab4:	01d809b3          	add	s3,a6,t4
    3ab8:	01d9b7b3          	sltu	a5,s3,t4
    3abc:	00e78633          	add	a2,a5,a4
    3ac0:	84c6                	mv	s1,a7
    3ac2:	b5cd                	j	39a4 <__subdf3+0x33c>
    3ac4:	f20811e3          	bnez	a6,39e6 <__subdf3+0x37e>
    3ac8:	00351813          	slli	a6,a0,0x3
    3acc:	01d31793          	slli	a5,t1,0x1d
    3ad0:	00385813          	srli	a6,a6,0x3
    3ad4:	00f86833          	or	a6,a6,a5
    3ad8:	00335793          	srli	a5,t1,0x3
    3adc:	b711                	j	39e0 <__subdf3+0x378>
    3ade:	00800537          	lui	a0,0x800
    3ae2:	7ff00793          	li	a5,2047
    3ae6:	00a36333          	or	t1,t1,a0
    3aea:	e0f892e3          	bne	a7,a5,38ee <__subdf3+0x286>
    3aee:	060e                	slli	a2,a2,0x3
    3af0:	01d71813          	slli	a6,a4,0x1d
    3af4:	820d                	srli	a2,a2,0x3
    3af6:	00c86833          	or	a6,a6,a2
    3afa:	00375793          	srli	a5,a4,0x3
    3afe:	8436                	mv	s0,a3
    3b00:	b5c5                	j	39e0 <__subdf3+0x378>
    3b02:	1705                	addi	a4,a4,-31
    3b04:	02000693          	li	a3,32
    3b08:	00e7d733          	srl	a4,a5,a4
    3b0c:	00d60a63          	beq	a2,a3,3b20 <__subdf3+0x4b8>
    3b10:	04000693          	li	a3,64
    3b14:	40c68633          	sub	a2,a3,a2
    3b18:	00c79633          	sll	a2,a5,a2
    3b1c:	00c9e9b3          	or	s3,s3,a2
    3b20:	01303833          	snez	a6,s3
    3b24:	00e869b3          	or	s3,a6,a4
    3b28:	4601                	li	a2,0
    3b2a:	4481                	li	s1,0
    3b2c:	bd1d                	j	3962 <__subdf3+0x2fa>
    3b2e:	01df09b3          	add	s3,t5,t4
    3b32:	00e307b3          	add	a5,t1,a4
    3b36:	01e9bf33          	sltu	t5,s3,t5
    3b3a:	01e78633          	add	a2,a5,t5
    3b3e:	00861793          	slli	a5,a2,0x8
    3b42:	4485                	li	s1,1
    3b44:	e007dfe3          	bgez	a5,3962 <__subdf3+0x2fa>
    3b48:	4489                	li	s1,2
    3b4a:	ff8007b7          	lui	a5,0xff800
    3b4e:	17fd                	addi	a5,a5,-1
    3b50:	8ff1                	and	a5,a5,a2
    3b52:	0019d713          	srli	a4,s3,0x1
    3b56:	0019f813          	andi	a6,s3,1
    3b5a:	01076833          	or	a6,a4,a6
    3b5e:	01f79993          	slli	s3,a5,0x1f
    3b62:	0109e9b3          	or	s3,s3,a6
    3b66:	0017d613          	srli	a2,a5,0x1
    3b6a:	b911                	j	377e <__subdf3+0x116>
    3b6c:	fe058813          	addi	a6,a1,-32
    3b70:	02000793          	li	a5,32
    3b74:	010759b3          	srl	s3,a4,a6
    3b78:	00f58a63          	beq	a1,a5,3b8c <__subdf3+0x524>
    3b7c:	04000793          	li	a5,64
    3b80:	40b785b3          	sub	a1,a5,a1
    3b84:	00b71733          	sll	a4,a4,a1
    3b88:	00eeeeb3          	or	t4,t4,a4
    3b8c:	01d03833          	snez	a6,t4
    3b90:	01386833          	or	a6,a6,s3
    3b94:	bea5                	j	370c <__subdf3+0xa4>
    3b96:	01e36333          	or	t1,t1,t5
    3b9a:	00603833          	snez	a6,t1
    3b9e:	410e89b3          	sub	s3,t4,a6
    3ba2:	013eb7b3          	sltu	a5,t4,s3
    3ba6:	40f70633          	sub	a2,a4,a5
    3baa:	84c6                	mv	s1,a7
    3bac:	8436                	mv	s0,a3
    3bae:	b6ad                	j	3718 <__subdf3+0xb0>
    3bb0:	01e367b3          	or	a5,t1,t5
    3bb4:	18078763          	beqz	a5,3d42 <__subdf3+0x6da>
    3bb8:	fff58793          	addi	a5,a1,-1
    3bbc:	1c078c63          	beqz	a5,3d94 <__subdf3+0x72c>
    3bc0:	7ff00693          	li	a3,2047
    3bc4:	0ad58e63          	beq	a1,a3,3c80 <__subdf3+0x618>
    3bc8:	85be                	mv	a1,a5
    3bca:	bd65                	j	3a82 <__subdf3+0x41a>
    3bcc:	02000793          	li	a5,32
    3bd0:	8f8d                	sub	a5,a5,a1
    3bd2:	00bed9b3          	srl	s3,t4,a1
    3bd6:	00f71833          	sll	a6,a4,a5
    3bda:	00fe9eb3          	sll	t4,t4,a5
    3bde:	01386833          	or	a6,a6,s3
    3be2:	00b75733          	srl	a4,a4,a1
    3be6:	01d039b3          	snez	s3,t4
    3bea:	01386833          	or	a6,a6,s3
    3bee:	933a                	add	t1,t1,a4
    3bf0:	b365                	j	3998 <__subdf3+0x330>
    3bf2:	00361813          	slli	a6,a2,0x3
    3bf6:	01d71793          	slli	a5,a4,0x1d
    3bfa:	00385813          	srli	a6,a6,0x3
    3bfe:	0107e833          	or	a6,a5,a6
    3c02:	8436                	mv	s0,a3
    3c04:	00375793          	srli	a5,a4,0x3
    3c08:	bb95                	j	397c <__subdf3+0x314>
    3c0a:	cbbd                	beqz	a5,3c80 <__subdf3+0x618>
    3c0c:	01d76733          	or	a4,a4,t4
    3c10:	dc071be3          	bnez	a4,39e6 <__subdf3+0x37e>
    3c14:	050e                	slli	a0,a0,0x3
    3c16:	01d31813          	slli	a6,t1,0x1d
    3c1a:	810d                	srli	a0,a0,0x3
    3c1c:	00a86833          	or	a6,a6,a0
    3c20:	00335793          	srli	a5,t1,0x3
    3c24:	bb75                	j	39e0 <__subdf3+0x378>
    3c26:	e2080fe3          	beqz	a6,3a64 <__subdf3+0x3fc>
    3c2a:	00361813          	slli	a6,a2,0x3
    3c2e:	01d71793          	slli	a5,a4,0x1d
    3c32:	00385813          	srli	a6,a6,0x3
    3c36:	00f86833          	or	a6,a6,a5
    3c3a:	8436                	mv	s0,a3
    3c3c:	00375793          	srli	a5,a4,0x3
    3c40:	b391                	j	3984 <__subdf3+0x31c>
    3c42:	41df09b3          	sub	s3,t5,t4
    3c46:	40e307b3          	sub	a5,t1,a4
    3c4a:	013f3f33          	sltu	t5,t5,s3
    3c4e:	41e78633          	sub	a2,a5,t5
    3c52:	4485                	li	s1,1
    3c54:	b4d1                	j	3718 <__subdf3+0xb0>
    3c56:	00351813          	slli	a6,a0,0x3
    3c5a:	01d31693          	slli	a3,t1,0x1d
    3c5e:	00385813          	srli	a6,a6,0x3
    3c62:	0106e833          	or	a6,a3,a6
    3c66:	00335793          	srli	a5,t1,0x3
    3c6a:	bb9d                	j	39e0 <__subdf3+0x378>
    3c6c:	41ee89b3          	sub	s3,t4,t5
    3c70:	40670633          	sub	a2,a4,t1
    3c74:	013eb933          	sltu	s2,t4,s3
    3c78:	41260933          	sub	s2,a2,s2
    3c7c:	8436                	mv	s0,a3
    3c7e:	b475                	j	372a <__subdf3+0xc2>
    3c80:	060e                	slli	a2,a2,0x3
    3c82:	01d71813          	slli	a6,a4,0x1d
    3c86:	820d                	srli	a2,a2,0x3
    3c88:	00c86833          	or	a6,a6,a2
    3c8c:	00375793          	srli	a5,a4,0x3
    3c90:	bb81                	j	39e0 <__subdf3+0x378>
    3c92:	41df09b3          	sub	s3,t5,t4
    3c96:	40e307b3          	sub	a5,t1,a4
    3c9a:	013f3633          	sltu	a2,t5,s3
    3c9e:	40c78633          	sub	a2,a5,a2
    3ca2:	00861793          	slli	a5,a2,0x8
    3ca6:	0a07d763          	bgez	a5,3d54 <__subdf3+0x6ec>
    3caa:	41ee89b3          	sub	s3,t4,t5
    3cae:	406707b3          	sub	a5,a4,t1
    3cb2:	013ebeb3          	sltu	t4,t4,s3
    3cb6:	41d78633          	sub	a2,a5,t4
    3cba:	8436                	mv	s0,a3
    3cbc:	b4c9                	j	377e <__subdf3+0x116>
    3cbe:	01e36333          	or	t1,t1,t5
    3cc2:	00603833          	snez	a6,t1
    3cc6:	b3fd                	j	3ab4 <__subdf3+0x44c>
    3cc8:	fe058813          	addi	a6,a1,-32
    3ccc:	02000793          	li	a5,32
    3cd0:	010359b3          	srl	s3,t1,a6
    3cd4:	00f58a63          	beq	a1,a5,3ce8 <__subdf3+0x680>
    3cd8:	04000793          	li	a5,64
    3cdc:	40b785b3          	sub	a1,a5,a1
    3ce0:	00b31333          	sll	t1,t1,a1
    3ce4:	006f6f33          	or	t5,t5,t1
    3ce8:	01e03833          	snez	a6,t5
    3cec:	01386833          	or	a6,a6,s3
    3cf0:	b57d                	j	3b9e <__subdf3+0x536>
    3cf2:	41ee89b3          	sub	s3,t4,t5
    3cf6:	406707b3          	sub	a5,a4,t1
    3cfa:	013ebeb3          	sltu	t4,t4,s3
    3cfe:	41d78633          	sub	a2,a5,t4
    3d02:	8436                	mv	s0,a3
    3d04:	4485                	li	s1,1
    3d06:	bc09                	j	3718 <__subdf3+0xb0>
    3d08:	00361813          	slli	a6,a2,0x3
    3d0c:	01d71793          	slli	a5,a4,0x1d
    3d10:	00385813          	srli	a6,a6,0x3
    3d14:	00f86833          	or	a6,a6,a5
    3d18:	00375793          	srli	a5,a4,0x3
    3d1c:	b1a5                	j	3984 <__subdf3+0x31c>
    3d1e:	01df09b3          	add	s3,t5,t4
    3d22:	00e307b3          	add	a5,t1,a4
    3d26:	01e9bf33          	sltu	t5,s3,t5
    3d2a:	01e78633          	add	a2,a5,t5
    3d2e:	00861793          	slli	a5,a2,0x8
    3d32:	c207d8e3          	bgez	a5,3962 <__subdf3+0x2fa>
    3d36:	ff8007b7          	lui	a5,0xff800
    3d3a:	17fd                	addi	a5,a5,-1
    3d3c:	8e7d                	and	a2,a2,a5
    3d3e:	4485                	li	s1,1
    3d40:	b10d                	j	3962 <__subdf3+0x2fa>
    3d42:	060e                	slli	a2,a2,0x3
    3d44:	01d71813          	slli	a6,a4,0x1d
    3d48:	820d                	srli	a2,a2,0x3
    3d4a:	00c86833          	or	a6,a6,a2
    3d4e:	00375793          	srli	a5,a4,0x3
    3d52:	b12d                	j	397c <__subdf3+0x314>
    3d54:	00c9e833          	or	a6,s3,a2
    3d58:	d00806e3          	beqz	a6,3a64 <__subdf3+0x3fc>
    3d5c:	b119                	j	3962 <__subdf3+0x2fa>
    3d5e:	fe058813          	addi	a6,a1,-32
    3d62:	02000793          	li	a5,32
    3d66:	010359b3          	srl	s3,t1,a6
    3d6a:	00f58a63          	beq	a1,a5,3d7e <__subdf3+0x716>
    3d6e:	04000793          	li	a5,64
    3d72:	40b785b3          	sub	a1,a5,a1
    3d76:	00b31333          	sll	t1,t1,a1
    3d7a:	006f6f33          	or	t5,t5,t1
    3d7e:	01e03833          	snez	a6,t5
    3d82:	01386833          	or	a6,a6,s3
    3d86:	b33d                	j	3ab4 <__subdf3+0x44c>
    3d88:	4401                	li	s0,0
    3d8a:	7ff00713          	li	a4,2047
    3d8e:	000807b7          	lui	a5,0x80
    3d92:	bc2d                	j	37cc <__subdf3+0x164>
    3d94:	01df09b3          	add	s3,t5,t4
    3d98:	00e307b3          	add	a5,t1,a4
    3d9c:	01d9beb3          	sltu	t4,s3,t4
    3da0:	01d78633          	add	a2,a5,t4
    3da4:	bb69                	j	3b3e <__subdf3+0x4d6>

00003da6 <__floatsidf>:
    3da6:	1141                	addi	sp,sp,-16
    3da8:	c606                	sw	ra,12(sp)
    3daa:	c422                	sw	s0,8(sp)
    3dac:	c226                	sw	s1,4(sp)
    3dae:	cd0d                	beqz	a0,3de8 <__floatsidf+0x42>
    3db0:	41f55793          	srai	a5,a0,0x1f
    3db4:	00a7c4b3          	xor	s1,a5,a0
    3db8:	8c9d                	sub	s1,s1,a5
    3dba:	842a                	mv	s0,a0
    3dbc:	8526                	mv	a0,s1
    3dbe:	777000ef          	jal	ra,4d34 <__clzsi2>
    3dc2:	41e00693          	li	a3,1054
    3dc6:	8e89                	sub	a3,a3,a0
    3dc8:	47a9                	li	a5,10
    3dca:	807d                	srli	s0,s0,0x1f
    3dcc:	7ff6f693          	andi	a3,a3,2047
    3dd0:	02a7cd63          	blt	a5,a0,3e0a <__floatsidf+0x64>
    3dd4:	472d                	li	a4,11
    3dd6:	8f09                	sub	a4,a4,a0
    3dd8:	00e4d7b3          	srl	a5,s1,a4
    3ddc:	0555                	addi	a0,a0,21
    3dde:	07b2                	slli	a5,a5,0xc
    3de0:	00a494b3          	sll	s1,s1,a0
    3de4:	83b1                	srli	a5,a5,0xc
    3de6:	a029                	j	3df0 <__floatsidf+0x4a>
    3de8:	4401                	li	s0,0
    3dea:	4681                	li	a3,0
    3dec:	4781                	li	a5,0
    3dee:	4481                	li	s1,0
    3df0:	07b2                	slli	a5,a5,0xc
    3df2:	06d2                	slli	a3,a3,0x14
    3df4:	83b1                	srli	a5,a5,0xc
    3df6:	047e                	slli	s0,s0,0x1f
    3df8:	8fd5                	or	a5,a5,a3
    3dfa:	8fc1                	or	a5,a5,s0
    3dfc:	40b2                	lw	ra,12(sp)
    3dfe:	4422                	lw	s0,8(sp)
    3e00:	8526                	mv	a0,s1
    3e02:	85be                	mv	a1,a5
    3e04:	4492                	lw	s1,4(sp)
    3e06:	0141                	addi	sp,sp,16
    3e08:	8082                	ret
    3e0a:	1555                	addi	a0,a0,-11
    3e0c:	00a497b3          	sll	a5,s1,a0
    3e10:	07b2                	slli	a5,a5,0xc
    3e12:	83b1                	srli	a5,a5,0xc
    3e14:	4481                	li	s1,0
    3e16:	bfe9                	j	3df0 <__floatsidf+0x4a>

00003e18 <__fixdfdi>:
    3e18:	00100737          	lui	a4,0x100
    3e1c:	0145d793          	srli	a5,a1,0x14
    3e20:	fff70693          	addi	a3,a4,-1 # fffff <_data_lma+0xf61fb>
    3e24:	7ff7f793          	andi	a5,a5,2047
    3e28:	3fe00813          	li	a6,1022
    3e2c:	8eed                	and	a3,a3,a1
    3e2e:	01f5d613          	srli	a2,a1,0x1f
    3e32:	02f85363          	bge	a6,a5,3e58 <__fixdfdi+0x40>
    3e36:	43d00593          	li	a1,1085
    3e3a:	02f5d263          	bge	a1,a5,3e5e <__fixdfdi+0x46>
    3e3e:	4585                	li	a1,1
    3e40:	8d91                	sub	a1,a1,a2
    3e42:	40b00533          	neg	a0,a1
    3e46:	41f5d613          	srai	a2,a1,0x1f
    3e4a:	800005b7          	lui	a1,0x80000
    3e4e:	00a037b3          	snez	a5,a0
    3e52:	8d91                	sub	a1,a1,a2
    3e54:	8d9d                	sub	a1,a1,a5
    3e56:	8082                	ret
    3e58:	4501                	li	a0,0
    3e5a:	4581                	li	a1,0
    3e5c:	8082                	ret
    3e5e:	43200813          	li	a6,1074
    3e62:	00e6e5b3          	or	a1,a3,a4
    3e66:	02f85463          	bge	a6,a5,3e8e <__fixdfdi+0x76>
    3e6a:	bad78713          	addi	a4,a5,-1107 # 7fbad <_data_lma+0x75da9>
    3e6e:	bcd78793          	addi	a5,a5,-1075
    3e72:	04074563          	bltz	a4,3ebc <__fixdfdi+0xa4>
    3e76:	00e515b3          	sll	a1,a0,a4
    3e7a:	4501                	li	a0,0
    3e7c:	d265                	beqz	a2,3e5c <__fixdfdi+0x44>
    3e7e:	40a00533          	neg	a0,a0
    3e82:	00a037b3          	snez	a5,a0
    3e86:	40b005b3          	neg	a1,a1
    3e8a:	8d9d                	sub	a1,a1,a5
    3e8c:	8082                	ret
    3e8e:	43300693          	li	a3,1075
    3e92:	8e9d                	sub	a3,a3,a5
    3e94:	477d                	li	a4,31
    3e96:	00d74c63          	blt	a4,a3,3eae <__fixdfdi+0x96>
    3e9a:	bed78713          	addi	a4,a5,-1043
    3e9e:	00e59733          	sll	a4,a1,a4
    3ea2:	00d55533          	srl	a0,a0,a3
    3ea6:	8d59                	or	a0,a0,a4
    3ea8:	00d5d5b3          	srl	a1,a1,a3
    3eac:	bfc1                	j	3e7c <__fixdfdi+0x64>
    3eae:	41300513          	li	a0,1043
    3eb2:	8d1d                	sub	a0,a0,a5
    3eb4:	00a5d533          	srl	a0,a1,a0
    3eb8:	4581                	li	a1,0
    3eba:	b7c9                	j	3e7c <__fixdfdi+0x64>
    3ebc:	46fd                	li	a3,31
    3ebe:	00155713          	srli	a4,a0,0x1
    3ec2:	8e9d                	sub	a3,a3,a5
    3ec4:	00d75733          	srl	a4,a4,a3
    3ec8:	00f595b3          	sll	a1,a1,a5
    3ecc:	8dd9                	or	a1,a1,a4
    3ece:	00f51533          	sll	a0,a0,a5
    3ed2:	b76d                	j	3e7c <__fixdfdi+0x64>

00003ed4 <__floatdidf>:
    3ed4:	1101                	addi	sp,sp,-32
    3ed6:	ce06                	sw	ra,28(sp)
    3ed8:	cc22                	sw	s0,24(sp)
    3eda:	ca26                	sw	s1,20(sp)
    3edc:	c84a                	sw	s2,16(sp)
    3ede:	c64e                	sw	s3,12(sp)
    3ee0:	00b567b3          	or	a5,a0,a1
    3ee4:	cf9d                	beqz	a5,3f22 <__floatdidf+0x4e>
    3ee6:	84ae                	mv	s1,a1
    3ee8:	89aa                	mv	s3,a0
    3eea:	01f5d913          	srli	s2,a1,0x1f
    3eee:	0405ce63          	bltz	a1,3f4a <__floatdidf+0x76>
    3ef2:	8426                	mv	s0,s1
    3ef4:	c4ad                	beqz	s1,3f5e <__floatdidf+0x8a>
    3ef6:	8526                	mv	a0,s1
    3ef8:	63d000ef          	jal	ra,4d34 <__clzsi2>
    3efc:	43e00693          	li	a3,1086
    3f00:	8e89                	sub	a3,a3,a0
    3f02:	43300793          	li	a5,1075
    3f06:	08d7ca63          	blt	a5,a3,3f9a <__floatdidf+0xc6>
    3f0a:	00c49793          	slli	a5,s1,0xc
    3f0e:	462d                	li	a2,11
    3f10:	874e                	mv	a4,s3
    3f12:	7ff6f693          	andi	a3,a3,2047
    3f16:	83b1                	srli	a5,a5,0xc
    3f18:	00a65963          	bge	a2,a0,3f2a <__floatdidf+0x56>
    3f1c:	ff550613          	addi	a2,a0,-11 # 7ffff5 <_data_lma+0x7f61f1>
    3f20:	a8b9                	j	3f7e <__floatdidf+0xaa>
    3f22:	4901                	li	s2,0
    3f24:	4681                	li	a3,0
    3f26:	4781                	li	a5,0
    3f28:	4701                	li	a4,0
    3f2a:	07b2                	slli	a5,a5,0xc
    3f2c:	40f2                	lw	ra,28(sp)
    3f2e:	4462                	lw	s0,24(sp)
    3f30:	06d2                	slli	a3,a3,0x14
    3f32:	83b1                	srli	a5,a5,0xc
    3f34:	097e                	slli	s2,s2,0x1f
    3f36:	8fd5                	or	a5,a5,a3
    3f38:	0127e7b3          	or	a5,a5,s2
    3f3c:	44d2                	lw	s1,20(sp)
    3f3e:	4942                	lw	s2,16(sp)
    3f40:	49b2                	lw	s3,12(sp)
    3f42:	853a                	mv	a0,a4
    3f44:	85be                	mv	a1,a5
    3f46:	6105                	addi	sp,sp,32
    3f48:	8082                	ret
    3f4a:	40a00533          	neg	a0,a0
    3f4e:	00a036b3          	snez	a3,a0
    3f52:	40b004b3          	neg	s1,a1
    3f56:	8c95                	sub	s1,s1,a3
    3f58:	89aa                	mv	s3,a0
    3f5a:	8426                	mv	s0,s1
    3f5c:	fcc9                	bnez	s1,3ef6 <__floatdidf+0x22>
    3f5e:	854e                	mv	a0,s3
    3f60:	5d5000ef          	jal	ra,4d34 <__clzsi2>
    3f64:	862a                	mv	a2,a0
    3f66:	43e00693          	li	a3,1086
    3f6a:	02050513          	addi	a0,a0,32
    3f6e:	8e89                	sub	a3,a3,a0
    3f70:	02a00793          	li	a5,42
    3f74:	7ff6f693          	andi	a3,a3,2047
    3f78:	0ca7c763          	blt	a5,a0,4046 <__floatdidf+0x172>
    3f7c:	0655                	addi	a2,a2,21
    3f7e:	02b00713          	li	a4,43
    3f82:	8f09                	sub	a4,a4,a0
    3f84:	00c497b3          	sll	a5,s1,a2
    3f88:	00e9d733          	srl	a4,s3,a4
    3f8c:	8f5d                	or	a4,a4,a5
    3f8e:	00c71793          	slli	a5,a4,0xc
    3f92:	83b1                	srli	a5,a5,0xc
    3f94:	00c99733          	sll	a4,s3,a2
    3f98:	bf49                	j	3f2a <__floatdidf+0x56>
    3f9a:	43600793          	li	a5,1078
    3f9e:	02d7db63          	bge	a5,a3,3fd4 <__floatdidf+0x100>
    3fa2:	4721                	li	a4,8
    3fa4:	8f09                	sub	a4,a4,a0
    3fa6:	fe070593          	addi	a1,a4,-32
    3faa:	0c05c263          	bltz	a1,406e <__floatdidf+0x19a>
    3fae:	00b4d5b3          	srl	a1,s1,a1
    3fb2:	4701                	li	a4,0
    3fb4:	01850613          	addi	a2,a0,24
    3fb8:	03850793          	addi	a5,a0,56
    3fbc:	08064c63          	bltz	a2,4054 <__floatdidf+0x180>
    3fc0:	00c99633          	sll	a2,s3,a2
    3fc4:	4981                	li	s3,0
    3fc6:	00c9e9b3          	or	s3,s3,a2
    3fca:	01303633          	snez	a2,s3
    3fce:	00c5e9b3          	or	s3,a1,a2
    3fd2:	843a                	mv	s0,a4
    3fd4:	47a1                	li	a5,8
    3fd6:	864e                	mv	a2,s3
    3fd8:	04a7c963          	blt	a5,a0,402a <__floatdidf+0x156>
    3fdc:	ff8007b7          	lui	a5,0xff800
    3fe0:	17fd                	addi	a5,a5,-1
    3fe2:	00767593          	andi	a1,a2,7
    3fe6:	00f47733          	and	a4,s0,a5
    3fea:	c585                	beqz	a1,4012 <__floatdidf+0x13e>
    3fec:	00f67593          	andi	a1,a2,15
    3ff0:	4811                	li	a6,4
    3ff2:	03058063          	beq	a1,a6,4012 <__floatdidf+0x13e>
    3ff6:	00460593          	addi	a1,a2,4 # ff800004 <_eusrstack+0xdf7f8004>
    3ffa:	00c5b633          	sltu	a2,a1,a2
    3ffe:	9732                	add	a4,a4,a2
    4000:	00871613          	slli	a2,a4,0x8
    4004:	08065163          	bgez	a2,4086 <__floatdidf+0x1b2>
    4008:	43f00693          	li	a3,1087
    400c:	8f7d                	and	a4,a4,a5
    400e:	8e89                	sub	a3,a3,a0
    4010:	862e                	mv	a2,a1
    4012:	00365513          	srli	a0,a2,0x3
    4016:	00971793          	slli	a5,a4,0x9
    401a:	01d71613          	slli	a2,a4,0x1d
    401e:	00a66733          	or	a4,a2,a0
    4022:	83b1                	srli	a5,a5,0xc
    4024:	7ff6f693          	andi	a3,a3,2047
    4028:	b709                	j	3f2a <__floatdidf+0x56>
    402a:	02800793          	li	a5,40
    402e:	ff850593          	addi	a1,a0,-8
    4032:	8f89                	sub	a5,a5,a0
    4034:	00f9d7b3          	srl	a5,s3,a5
    4038:	00b41733          	sll	a4,s0,a1
    403c:	00e7e433          	or	s0,a5,a4
    4040:	00b99633          	sll	a2,s3,a1
    4044:	bf61                	j	3fdc <__floatdidf+0x108>
    4046:	1655                	addi	a2,a2,-11
    4048:	00c997b3          	sll	a5,s3,a2
    404c:	07b2                	slli	a5,a5,0xc
    404e:	83b1                	srli	a5,a5,0xc
    4050:	4701                	li	a4,0
    4052:	bde1                	j	3f2a <__floatdidf+0x56>
    4054:	467d                	li	a2,31
    4056:	0019d813          	srli	a6,s3,0x1
    405a:	8e1d                	sub	a2,a2,a5
    405c:	00c85833          	srl	a6,a6,a2
    4060:	00f49633          	sll	a2,s1,a5
    4064:	00c86633          	or	a2,a6,a2
    4068:	00f999b3          	sll	s3,s3,a5
    406c:	bfa9                	j	3fc6 <__floatdidf+0xf2>
    406e:	467d                	li	a2,31
    4070:	8e19                	sub	a2,a2,a4
    4072:	00149793          	slli	a5,s1,0x1
    4076:	00e9d5b3          	srl	a1,s3,a4
    407a:	00c797b3          	sll	a5,a5,a2
    407e:	8ddd                	or	a1,a1,a5
    4080:	00e4d733          	srl	a4,s1,a4
    4084:	bf05                	j	3fb4 <__floatdidf+0xe0>
    4086:	862e                	mv	a2,a1
    4088:	b769                	j	4012 <__floatdidf+0x13e>

0000408a <__addsf3>:
    408a:	1141                	addi	sp,sp,-16
    408c:	00800737          	lui	a4,0x800
    4090:	177d                	addi	a4,a4,-1
    4092:	0175d813          	srli	a6,a1,0x17
    4096:	c226                	sw	s1,4(sp)
    4098:	01755493          	srli	s1,a0,0x17
    409c:	00a77333          	and	t1,a4,a0
    40a0:	0ff4f493          	andi	s1,s1,255
    40a4:	00b776b3          	and	a3,a4,a1
    40a8:	c04a                	sw	s2,0(sp)
    40aa:	0ff87813          	andi	a6,a6,255
    40ae:	01f55913          	srli	s2,a0,0x1f
    40b2:	c606                	sw	ra,12(sp)
    40b4:	c422                	sw	s0,8(sp)
    40b6:	81fd                	srli	a1,a1,0x1f
    40b8:	879a                	mv	a5,t1
    40ba:	8526                	mv	a0,s1
    40bc:	864a                	mv	a2,s2
    40be:	00331e13          	slli	t3,t1,0x3
    40c2:	00369e93          	slli	t4,a3,0x3
    40c6:	410488b3          	sub	a7,s1,a6
    40ca:	0eb90a63          	beq	s2,a1,41be <__addsf3+0x134>
    40ce:	0d105063          	blez	a7,418e <__addsf3+0x104>
    40d2:	14080463          	beqz	a6,421a <__addsf3+0x190>
    40d6:	0ff00793          	li	a5,255
    40da:	14f48b63          	beq	s1,a5,4230 <__addsf3+0x1a6>
    40de:	040007b7          	lui	a5,0x4000
    40e2:	00feeeb3          	or	t4,t4,a5
    40e6:	47ed                	li	a5,27
    40e8:	2917c163          	blt	a5,a7,436a <__addsf3+0x2e0>
    40ec:	02000793          	li	a5,32
    40f0:	411787b3          	sub	a5,a5,a7
    40f4:	00fe97b3          	sll	a5,t4,a5
    40f8:	011ed8b3          	srl	a7,t4,a7
    40fc:	00f037b3          	snez	a5,a5
    4100:	00f8e7b3          	or	a5,a7,a5
    4104:	40fe07b3          	sub	a5,t3,a5
    4108:	00579713          	slli	a4,a5,0x5
    410c:	18075e63          	bgez	a4,42a8 <__addsf3+0x21e>
    4110:	04000437          	lui	s0,0x4000
    4114:	147d                	addi	s0,s0,-1
    4116:	8c7d                	and	s0,s0,a5
    4118:	8522                	mv	a0,s0
    411a:	41b000ef          	jal	ra,4d34 <__clzsi2>
    411e:	156d                	addi	a0,a0,-5
    4120:	00a417b3          	sll	a5,s0,a0
    4124:	1a954863          	blt	a0,s1,42d4 <__addsf3+0x24a>
    4128:	8d05                	sub	a0,a0,s1
    412a:	00150413          	addi	s0,a0,1
    412e:	02000713          	li	a4,32
    4132:	8f01                	sub	a4,a4,s0
    4134:	00e79733          	sll	a4,a5,a4
    4138:	00e03733          	snez	a4,a4
    413c:	0087d7b3          	srl	a5,a5,s0
    4140:	8fd9                	or	a5,a5,a4
    4142:	4481                	li	s1,0
    4144:	0077f713          	andi	a4,a5,7
    4148:	c719                	beqz	a4,4156 <__addsf3+0xcc>
    414a:	00f7f713          	andi	a4,a5,15
    414e:	4691                	li	a3,4
    4150:	00d70363          	beq	a4,a3,4156 <__addsf3+0xcc>
    4154:	0791                	addi	a5,a5,4
    4156:	00579713          	slli	a4,a5,0x5
    415a:	14075b63          	bgez	a4,42b0 <__addsf3+0x226>
    415e:	0485                	addi	s1,s1,1
    4160:	0ff00713          	li	a4,255
    4164:	864a                	mv	a2,s2
    4166:	16e48363          	beq	s1,a4,42cc <__addsf3+0x242>
    416a:	079a                	slli	a5,a5,0x6
    416c:	83a5                	srli	a5,a5,0x9
    416e:	0ff4f513          	andi	a0,s1,255
    4172:	40b2                	lw	ra,12(sp)
    4174:	4422                	lw	s0,8(sp)
    4176:	07a6                	slli	a5,a5,0x9
    4178:	01751493          	slli	s1,a0,0x17
    417c:	0097d513          	srli	a0,a5,0x9
    4180:	8d45                	or	a0,a0,s1
    4182:	067e                	slli	a2,a2,0x1f
    4184:	4492                	lw	s1,4(sp)
    4186:	4902                	lw	s2,0(sp)
    4188:	8d51                	or	a0,a0,a2
    418a:	0141                	addi	sp,sp,16
    418c:	8082                	ret
    418e:	0a089963          	bnez	a7,4240 <__addsf3+0x1b6>
    4192:	00148713          	addi	a4,s1,1
    4196:	0fe77713          	andi	a4,a4,254
    419a:	14071763          	bnez	a4,42e8 <__addsf3+0x25e>
    419e:	22049063          	bnez	s1,43be <__addsf3+0x334>
    41a2:	1e0e0d63          	beqz	t3,439c <__addsf3+0x312>
    41a6:	fc0e86e3          	beqz	t4,4172 <__addsf3+0xe8>
    41aa:	41de07b3          	sub	a5,t3,t4
    41ae:	00579713          	slli	a4,a5,0x5
    41b2:	22075063          	bgez	a4,43d2 <__addsf3+0x348>
    41b6:	41ce87b3          	sub	a5,t4,t3
    41ba:	892e                	mv	s2,a1
    41bc:	b761                	j	4144 <__addsf3+0xba>
    41be:	0b105c63          	blez	a7,4276 <__addsf3+0x1ec>
    41c2:	08080e63          	beqz	a6,425e <__addsf3+0x1d4>
    41c6:	0ff00793          	li	a5,255
    41ca:	06f48363          	beq	s1,a5,4230 <__addsf3+0x1a6>
    41ce:	040007b7          	lui	a5,0x4000
    41d2:	00feeeb3          	or	t4,t4,a5
    41d6:	47ed                	li	a5,27
    41d8:	1f17c963          	blt	a5,a7,43ca <__addsf3+0x340>
    41dc:	02000793          	li	a5,32
    41e0:	411787b3          	sub	a5,a5,a7
    41e4:	00fe97b3          	sll	a5,t4,a5
    41e8:	011ed8b3          	srl	a7,t4,a7
    41ec:	00f037b3          	snez	a5,a5
    41f0:	00f8e7b3          	or	a5,a7,a5
    41f4:	97f2                	add	a5,a5,t3
    41f6:	00579713          	slli	a4,a5,0x5
    41fa:	0a075763          	bgez	a4,42a8 <__addsf3+0x21e>
    41fe:	0485                	addi	s1,s1,1
    4200:	0ff00713          	li	a4,255
    4204:	0ce48463          	beq	s1,a4,42cc <__addsf3+0x242>
    4208:	7e0006b7          	lui	a3,0x7e000
    420c:	0017d713          	srli	a4,a5,0x1
    4210:	16fd                	addi	a3,a3,-1
    4212:	8b85                	andi	a5,a5,1
    4214:	8f75                	and	a4,a4,a3
    4216:	8fd9                	or	a5,a5,a4
    4218:	b735                	j	4144 <__addsf3+0xba>
    421a:	080e8d63          	beqz	t4,42b4 <__addsf3+0x22a>
    421e:	18fd                	addi	a7,a7,-1
    4220:	41de07b3          	sub	a5,t3,t4
    4224:	ee0882e3          	beqz	a7,4108 <__addsf3+0x7e>
    4228:	0ff00793          	li	a5,255
    422c:	eaf49de3          	bne	s1,a5,40e6 <__addsf3+0x5c>
    4230:	08030d63          	beqz	t1,42ca <__addsf3+0x240>
    4234:	4601                	li	a2,0
    4236:	0ff00513          	li	a0,255
    423a:	004007b7          	lui	a5,0x400
    423e:	bf15                	j	4172 <__addsf3+0xe8>
    4240:	40980733          	sub	a4,a6,s1
    4244:	e8ed                	bnez	s1,4336 <__addsf3+0x2ac>
    4246:	140e0263          	beqz	t3,438a <__addsf3+0x300>
    424a:	177d                	addi	a4,a4,-1
    424c:	18070863          	beqz	a4,43dc <__addsf3+0x352>
    4250:	0ff00793          	li	a5,255
    4254:	0ef81963          	bne	a6,a5,4346 <__addsf3+0x2bc>
    4258:	892e                	mv	s2,a1
    425a:	8336                	mv	t1,a3
    425c:	bfd1                	j	4230 <__addsf3+0x1a6>
    425e:	040e8b63          	beqz	t4,42b4 <__addsf3+0x22a>
    4262:	18fd                	addi	a7,a7,-1
    4264:	01de07b3          	add	a5,t3,t4
    4268:	f80887e3          	beqz	a7,41f6 <__addsf3+0x16c>
    426c:	0ff00793          	li	a5,255
    4270:	f6f493e3          	bne	s1,a5,41d6 <__addsf3+0x14c>
    4274:	bf75                	j	4230 <__addsf3+0x1a6>
    4276:	08089563          	bnez	a7,4300 <__addsf3+0x276>
    427a:	0485                	addi	s1,s1,1
    427c:	0fe4f713          	andi	a4,s1,254
    4280:	12071363          	bnez	a4,43a6 <__addsf3+0x31c>
    4284:	10051763          	bnez	a0,4392 <__addsf3+0x308>
    4288:	140e0f63          	beqz	t3,43e6 <__addsf3+0x35c>
    428c:	ee0e83e3          	beqz	t4,4172 <__addsf3+0xe8>
    4290:	01de07b3          	add	a5,t3,t4
    4294:	00579713          	slli	a4,a5,0x5
    4298:	4481                	li	s1,0
    429a:	00075763          	bgez	a4,42a8 <__addsf3+0x21e>
    429e:	fc000737          	lui	a4,0xfc000
    42a2:	177d                	addi	a4,a4,-1
    42a4:	8ff9                	and	a5,a5,a4
    42a6:	4485                	li	s1,1
    42a8:	0077f713          	andi	a4,a5,7
    42ac:	e8071fe3          	bnez	a4,414a <__addsf3+0xc0>
    42b0:	0037d313          	srli	t1,a5,0x3
    42b4:	0ff00793          	li	a5,255
    42b8:	f6f48ce3          	beq	s1,a5,4230 <__addsf3+0x1a6>
    42bc:	00931793          	slli	a5,t1,0x9
    42c0:	83a5                	srli	a5,a5,0x9
    42c2:	0ff4f513          	andi	a0,s1,255
    42c6:	864a                	mv	a2,s2
    42c8:	b56d                	j	4172 <__addsf3+0xe8>
    42ca:	864a                	mv	a2,s2
    42cc:	0ff00513          	li	a0,255
    42d0:	4781                	li	a5,0
    42d2:	b545                	j	4172 <__addsf3+0xe8>
    42d4:	fc000737          	lui	a4,0xfc000
    42d8:	177d                	addi	a4,a4,-1
    42da:	8ff9                	and	a5,a5,a4
    42dc:	0077f713          	andi	a4,a5,7
    42e0:	8c89                	sub	s1,s1,a0
    42e2:	e60714e3          	bnez	a4,414a <__addsf3+0xc0>
    42e6:	b7e9                	j	42b0 <__addsf3+0x226>
    42e8:	41de0433          	sub	s0,t3,t4
    42ec:	00541793          	slli	a5,s0,0x5
    42f0:	0c07c363          	bltz	a5,43b6 <__addsf3+0x32c>
    42f4:	e20412e3          	bnez	s0,4118 <__addsf3+0x8e>
    42f8:	4601                	li	a2,0
    42fa:	4501                	li	a0,0
    42fc:	4781                	li	a5,0
    42fe:	bd95                	j	4172 <__addsf3+0xe8>
    4300:	40980733          	sub	a4,a6,s1
    4304:	c4ad                	beqz	s1,436e <__addsf3+0x2e4>
    4306:	0ff00793          	li	a5,255
    430a:	f4f808e3          	beq	a6,a5,425a <__addsf3+0x1d0>
    430e:	040007b7          	lui	a5,0x4000
    4312:	00fe6e33          	or	t3,t3,a5
    4316:	47ed                	li	a5,27
    4318:	0ce7cc63          	blt	a5,a4,43f0 <__addsf3+0x366>
    431c:	02000793          	li	a5,32
    4320:	8f99                	sub	a5,a5,a4
    4322:	00fe17b3          	sll	a5,t3,a5
    4326:	00ee5733          	srl	a4,t3,a4
    432a:	00f037b3          	snez	a5,a5
    432e:	8fd9                	or	a5,a5,a4
    4330:	97f6                	add	a5,a5,t4
    4332:	84c2                	mv	s1,a6
    4334:	b5c9                	j	41f6 <__addsf3+0x16c>
    4336:	0ff00793          	li	a5,255
    433a:	f0f80fe3          	beq	a6,a5,4258 <__addsf3+0x1ce>
    433e:	040007b7          	lui	a5,0x4000
    4342:	00fe6e33          	or	t3,t3,a5
    4346:	47ed                	li	a5,27
    4348:	08e7c363          	blt	a5,a4,43ce <__addsf3+0x344>
    434c:	02000693          	li	a3,32
    4350:	8e99                	sub	a3,a3,a4
    4352:	00de16b3          	sll	a3,t3,a3
    4356:	00ee57b3          	srl	a5,t3,a4
    435a:	00d03733          	snez	a4,a3
    435e:	8fd9                	or	a5,a5,a4
    4360:	40fe87b3          	sub	a5,t4,a5
    4364:	84c2                	mv	s1,a6
    4366:	892e                	mv	s2,a1
    4368:	b345                	j	4108 <__addsf3+0x7e>
    436a:	4785                	li	a5,1
    436c:	bb61                	j	4104 <__addsf3+0x7a>
    436e:	060e0e63          	beqz	t3,43ea <__addsf3+0x360>
    4372:	177d                	addi	a4,a4,-1
    4374:	01de07b3          	add	a5,t3,t4
    4378:	84c2                	mv	s1,a6
    437a:	e6070ee3          	beqz	a4,41f6 <__addsf3+0x16c>
    437e:	0ff00793          	li	a5,255
    4382:	f8f81ae3          	bne	a6,a5,4316 <__addsf3+0x28c>
    4386:	8336                	mv	t1,a3
    4388:	b565                	j	4230 <__addsf3+0x1a6>
    438a:	8336                	mv	t1,a3
    438c:	84c2                	mv	s1,a6
    438e:	892e                	mv	s2,a1
    4390:	b715                	j	42b4 <__addsf3+0x22a>
    4392:	ec0e04e3          	beqz	t3,425a <__addsf3+0x1d0>
    4396:	e80e8de3          	beqz	t4,4230 <__addsf3+0x1a6>
    439a:	bd69                	j	4234 <__addsf3+0x1aa>
    439c:	020e8d63          	beqz	t4,43d6 <__addsf3+0x34c>
    43a0:	862e                	mv	a2,a1
    43a2:	87b6                	mv	a5,a3
    43a4:	b3f9                	j	4172 <__addsf3+0xe8>
    43a6:	0ff00793          	li	a5,255
    43aa:	f2f481e3          	beq	s1,a5,42cc <__addsf3+0x242>
    43ae:	01de07b3          	add	a5,t3,t4
    43b2:	8385                	srli	a5,a5,0x1
    43b4:	bdd5                	j	42a8 <__addsf3+0x21e>
    43b6:	41ce8433          	sub	s0,t4,t3
    43ba:	892e                	mv	s2,a1
    43bc:	bbb1                	j	4118 <__addsf3+0x8e>
    43be:	fc0e1ce3          	bnez	t3,4396 <__addsf3+0x30c>
    43c2:	e60e89e3          	beqz	t4,4234 <__addsf3+0x1aa>
    43c6:	892e                	mv	s2,a1
    43c8:	bd49                	j	425a <__addsf3+0x1d0>
    43ca:	4785                	li	a5,1
    43cc:	b525                	j	41f4 <__addsf3+0x16a>
    43ce:	4785                	li	a5,1
    43d0:	bf41                	j	4360 <__addsf3+0x2d6>
    43d2:	ec079be3          	bnez	a5,42a8 <__addsf3+0x21e>
    43d6:	4601                	li	a2,0
    43d8:	4781                	li	a5,0
    43da:	bb61                	j	4172 <__addsf3+0xe8>
    43dc:	41ce87b3          	sub	a5,t4,t3
    43e0:	84c2                	mv	s1,a6
    43e2:	892e                	mv	s2,a1
    43e4:	b315                	j	4108 <__addsf3+0x7e>
    43e6:	87b6                	mv	a5,a3
    43e8:	b369                	j	4172 <__addsf3+0xe8>
    43ea:	8336                	mv	t1,a3
    43ec:	84c2                	mv	s1,a6
    43ee:	b5d9                	j	42b4 <__addsf3+0x22a>
    43f0:	4785                	li	a5,1
    43f2:	bf3d                	j	4330 <__addsf3+0x2a6>

000043f4 <__gesf2>:
    43f4:	01755693          	srli	a3,a0,0x17
    43f8:	008007b7          	lui	a5,0x800
    43fc:	17fd                	addi	a5,a5,-1
    43fe:	0175d613          	srli	a2,a1,0x17
    4402:	0ff6f693          	andi	a3,a3,255
    4406:	0ff00813          	li	a6,255
    440a:	00a7f8b3          	and	a7,a5,a0
    440e:	01f55713          	srli	a4,a0,0x1f
    4412:	8fed                	and	a5,a5,a1
    4414:	0ff67613          	andi	a2,a2,255
    4418:	81fd                	srli	a1,a1,0x1f
    441a:	03068163          	beq	a3,a6,443c <__gesf2+0x48>
    441e:	01060c63          	beq	a2,a6,4436 <__gesf2+0x42>
    4422:	e28d                	bnez	a3,4444 <__gesf2+0x50>
    4424:	e211                	bnez	a2,4428 <__gesf2+0x34>
    4426:	c3b1                	beqz	a5,446a <__gesf2+0x76>
    4428:	02088e63          	beqz	a7,4464 <__gesf2+0x70>
    442c:	04b70563          	beq	a4,a1,4476 <__gesf2+0x82>
    4430:	4505                	li	a0,1
    4432:	e71d                	bnez	a4,4460 <__gesf2+0x6c>
    4434:	8082                	ret
    4436:	d7f5                	beqz	a5,4422 <__gesf2+0x2e>
    4438:	5579                	li	a0,-2
    443a:	8082                	ret
    443c:	fe089ee3          	bnez	a7,4438 <__gesf2+0x44>
    4440:	02d60963          	beq	a2,a3,4472 <__gesf2+0x7e>
    4444:	e211                	bnez	a2,4448 <__gesf2+0x54>
    4446:	d7ed                	beqz	a5,4430 <__gesf2+0x3c>
    4448:	feb714e3          	bne	a4,a1,4430 <__gesf2+0x3c>
    444c:	fed642e3          	blt	a2,a3,4430 <__gesf2+0x3c>
    4450:	00c6c763          	blt	a3,a2,445e <__gesf2+0x6a>
    4454:	fd17eee3          	bltu	a5,a7,4430 <__gesf2+0x3c>
    4458:	4501                	li	a0,0
    445a:	fcf8fde3          	bgeu	a7,a5,4434 <__gesf2+0x40>
    445e:	e701                	bnez	a4,4466 <__gesf2+0x72>
    4460:	557d                	li	a0,-1
    4462:	8082                	ret
    4464:	ddf5                	beqz	a1,4460 <__gesf2+0x6c>
    4466:	4505                	li	a0,1
    4468:	8082                	ret
    446a:	4501                	li	a0,0
    446c:	fc0892e3          	bnez	a7,4430 <__gesf2+0x3c>
    4470:	8082                	ret
    4472:	dbf9                	beqz	a5,4448 <__gesf2+0x54>
    4474:	b7d1                	j	4438 <__gesf2+0x44>
    4476:	4681                	li	a3,0
    4478:	bfe1                	j	4450 <__gesf2+0x5c>

0000447a <__lesf2>:
    447a:	01755693          	srli	a3,a0,0x17
    447e:	008007b7          	lui	a5,0x800
    4482:	17fd                	addi	a5,a5,-1
    4484:	0175d613          	srli	a2,a1,0x17
    4488:	0ff6f693          	andi	a3,a3,255
    448c:	0ff00813          	li	a6,255
    4490:	00a7f8b3          	and	a7,a5,a0
    4494:	01f55713          	srli	a4,a0,0x1f
    4498:	8fed                	and	a5,a5,a1
    449a:	0ff67613          	andi	a2,a2,255
    449e:	81fd                	srli	a1,a1,0x1f
    44a0:	03068763          	beq	a3,a6,44ce <__lesf2+0x54>
    44a4:	01060963          	beq	a2,a6,44b6 <__lesf2+0x3c>
    44a8:	ea85                	bnez	a3,44d8 <__lesf2+0x5e>
    44aa:	ea11                	bnez	a2,44be <__lesf2+0x44>
    44ac:	eb89                	bnez	a5,44be <__lesf2+0x44>
    44ae:	4501                	li	a0,0
    44b0:	00089b63          	bnez	a7,44c6 <__lesf2+0x4c>
    44b4:	8082                	ret
    44b6:	4509                	li	a0,2
    44b8:	fff5                	bnez	a5,44b4 <__lesf2+0x3a>
    44ba:	dae5                	beqz	a3,44aa <__lesf2+0x30>
    44bc:	a831                	j	44d8 <__lesf2+0x5e>
    44be:	02088c63          	beqz	a7,44f6 <__lesf2+0x7c>
    44c2:	04b70063          	beq	a4,a1,4502 <__lesf2+0x88>
    44c6:	4505                	li	a0,1
    44c8:	d775                	beqz	a4,44b4 <__lesf2+0x3a>
    44ca:	557d                	li	a0,-1
    44cc:	8082                	ret
    44ce:	4509                	li	a0,2
    44d0:	02089863          	bnez	a7,4500 <__lesf2+0x86>
    44d4:	02d60463          	beq	a2,a3,44fc <__lesf2+0x82>
    44d8:	e211                	bnez	a2,44dc <__lesf2+0x62>
    44da:	d7f5                	beqz	a5,44c6 <__lesf2+0x4c>
    44dc:	feb715e3          	bne	a4,a1,44c6 <__lesf2+0x4c>
    44e0:	fed643e3          	blt	a2,a3,44c6 <__lesf2+0x4c>
    44e4:	00c6c763          	blt	a3,a2,44f2 <__lesf2+0x78>
    44e8:	fd17efe3          	bltu	a5,a7,44c6 <__lesf2+0x4c>
    44ec:	4501                	li	a0,0
    44ee:	fcf8f3e3          	bgeu	a7,a5,44b4 <__lesf2+0x3a>
    44f2:	e319                	bnez	a4,44f8 <__lesf2+0x7e>
    44f4:	bfd9                	j	44ca <__lesf2+0x50>
    44f6:	d9f1                	beqz	a1,44ca <__lesf2+0x50>
    44f8:	4505                	li	a0,1
    44fa:	8082                	ret
    44fc:	d3e5                	beqz	a5,44dc <__lesf2+0x62>
    44fe:	8082                	ret
    4500:	8082                	ret
    4502:	4681                	li	a3,0
    4504:	b7c5                	j	44e4 <__lesf2+0x6a>

00004506 <__mulsf3>:
    4506:	7179                	addi	sp,sp,-48
    4508:	d422                	sw	s0,40(sp)
    450a:	01755413          	srli	s0,a0,0x17
    450e:	ce4e                	sw	s3,28(sp)
    4510:	cc52                	sw	s4,24(sp)
    4512:	00951993          	slli	s3,a0,0x9
    4516:	d606                	sw	ra,44(sp)
    4518:	d226                	sw	s1,36(sp)
    451a:	d04a                	sw	s2,32(sp)
    451c:	ca56                	sw	s5,20(sp)
    451e:	c85a                	sw	s6,16(sp)
    4520:	0ff47413          	andi	s0,s0,255
    4524:	0099d993          	srli	s3,s3,0x9
    4528:	01f55a13          	srli	s4,a0,0x1f
    452c:	c469                	beqz	s0,45f6 <__mulsf3+0xf0>
    452e:	0ff00793          	li	a5,255
    4532:	0ef40863          	beq	s0,a5,4622 <__mulsf3+0x11c>
    4536:	00399793          	slli	a5,s3,0x3
    453a:	04000737          	lui	a4,0x4000
    453e:	00e7e9b3          	or	s3,a5,a4
    4542:	f8140413          	addi	s0,s0,-127 # 3ffff81 <_data_lma+0x3ff617d>
    4546:	4481                	li	s1,0
    4548:	4b01                	li	s6,0
    454a:	0175d713          	srli	a4,a1,0x17
    454e:	00959a93          	slli	s5,a1,0x9
    4552:	0ff77713          	andi	a4,a4,255
    4556:	009ada93          	srli	s5,s5,0x9
    455a:	01f5d913          	srli	s2,a1,0x1f
    455e:	cf45                	beqz	a4,4616 <__mulsf3+0x110>
    4560:	0ff00793          	li	a5,255
    4564:	02f70c63          	beq	a4,a5,459c <__mulsf3+0x96>
    4568:	0a8e                	slli	s5,s5,0x3
    456a:	f8170713          	addi	a4,a4,-127 # 3ffff81 <_data_lma+0x3ff617d>
    456e:	040007b7          	lui	a5,0x4000
    4572:	00faeab3          	or	s5,s5,a5
    4576:	943a                	add	s0,s0,a4
    4578:	4601                	li	a2,0
    457a:	012a4533          	xor	a0,s4,s2
    457e:	47bd                	li	a5,15
    4580:	86aa                	mv	a3,a0
    4582:	00140593          	addi	a1,s0,1
    4586:	1097e063          	bltu	a5,s1,4686 <__mulsf3+0x180>
    458a:	00005717          	auipc	a4,0x5
    458e:	3d270713          	addi	a4,a4,978 # 995c <COS_Factor+0x1d8>
    4592:	048a                	slli	s1,s1,0x2
    4594:	94ba                	add	s1,s1,a4
    4596:	409c                	lw	a5,0(s1)
    4598:	97ba                	add	a5,a5,a4
    459a:	8782                	jr	a5
    459c:	0ff40413          	addi	s0,s0,255
    45a0:	0c0a9663          	bnez	s5,466c <__mulsf3+0x166>
    45a4:	0024e493          	ori	s1,s1,2
    45a8:	4609                	li	a2,2
    45aa:	bfc1                	j	457a <__mulsf3+0x74>
    45ac:	4501                	li	a0,0
    45ae:	0ff00713          	li	a4,255
    45b2:	004007b7          	lui	a5,0x400
    45b6:	50b2                	lw	ra,44(sp)
    45b8:	5422                	lw	s0,40(sp)
    45ba:	07a6                	slli	a5,a5,0x9
    45bc:	075e                	slli	a4,a4,0x17
    45be:	83a5                	srli	a5,a5,0x9
    45c0:	057e                	slli	a0,a0,0x1f
    45c2:	8fd9                	or	a5,a5,a4
    45c4:	5492                	lw	s1,36(sp)
    45c6:	5902                	lw	s2,32(sp)
    45c8:	49f2                	lw	s3,28(sp)
    45ca:	4a62                	lw	s4,24(sp)
    45cc:	4ad2                	lw	s5,20(sp)
    45ce:	4b42                	lw	s6,16(sp)
    45d0:	8d5d                	or	a0,a0,a5
    45d2:	6145                	addi	sp,sp,48
    45d4:	8082                	ret
    45d6:	86ca                	mv	a3,s2
    45d8:	89d6                	mv	s3,s5
    45da:	8b32                	mv	s6,a2
    45dc:	4789                	li	a5,2
    45de:	08fb0f63          	beq	s6,a5,467c <__mulsf3+0x176>
    45e2:	478d                	li	a5,3
    45e4:	fcfb04e3          	beq	s6,a5,45ac <__mulsf3+0xa6>
    45e8:	4785                	li	a5,1
    45ea:	8536                	mv	a0,a3
    45ec:	1afb1063          	bne	s6,a5,478c <__mulsf3+0x286>
    45f0:	4701                	li	a4,0
    45f2:	4781                	li	a5,0
    45f4:	b7c9                	j	45b6 <__mulsf3+0xb0>
    45f6:	04099d63          	bnez	s3,4650 <__mulsf3+0x14a>
    45fa:	0175d713          	srli	a4,a1,0x17
    45fe:	00959a93          	slli	s5,a1,0x9
    4602:	0ff77713          	andi	a4,a4,255
    4606:	4491                	li	s1,4
    4608:	4401                	li	s0,0
    460a:	4b05                	li	s6,1
    460c:	009ada93          	srli	s5,s5,0x9
    4610:	01f5d913          	srli	s2,a1,0x1f
    4614:	f731                	bnez	a4,4560 <__mulsf3+0x5a>
    4616:	000a9d63          	bnez	s5,4630 <__mulsf3+0x12a>
    461a:	0014e493          	ori	s1,s1,1
    461e:	4605                	li	a2,1
    4620:	bfa9                	j	457a <__mulsf3+0x74>
    4622:	02099263          	bnez	s3,4646 <__mulsf3+0x140>
    4626:	44a1                	li	s1,8
    4628:	0ff00413          	li	s0,255
    462c:	4b09                	li	s6,2
    462e:	bf31                	j	454a <__mulsf3+0x44>
    4630:	8556                	mv	a0,s5
    4632:	2709                	jal	4d34 <__clzsi2>
    4634:	ffb50793          	addi	a5,a0,-5
    4638:	8c09                	sub	s0,s0,a0
    463a:	00fa9ab3          	sll	s5,s5,a5
    463e:	f8a40413          	addi	s0,s0,-118
    4642:	4601                	li	a2,0
    4644:	bf1d                	j	457a <__mulsf3+0x74>
    4646:	44b1                	li	s1,12
    4648:	0ff00413          	li	s0,255
    464c:	4b0d                	li	s6,3
    464e:	bdf5                	j	454a <__mulsf3+0x44>
    4650:	854e                	mv	a0,s3
    4652:	c62e                	sw	a1,12(sp)
    4654:	25c5                	jal	4d34 <__clzsi2>
    4656:	ffb50793          	addi	a5,a0,-5
    465a:	f8a00413          	li	s0,-118
    465e:	00f999b3          	sll	s3,s3,a5
    4662:	8c09                	sub	s0,s0,a0
    4664:	4481                	li	s1,0
    4666:	4b01                	li	s6,0
    4668:	45b2                	lw	a1,12(sp)
    466a:	b5c5                	j	454a <__mulsf3+0x44>
    466c:	0034e493          	ori	s1,s1,3
    4670:	460d                	li	a2,3
    4672:	b721                	j	457a <__mulsf3+0x74>
    4674:	4789                	li	a5,2
    4676:	86d2                	mv	a3,s4
    4678:	f6fb15e3          	bne	s6,a5,45e2 <__mulsf3+0xdc>
    467c:	8536                	mv	a0,a3
    467e:	0ff00713          	li	a4,255
    4682:	4781                	li	a5,0
    4684:	bf0d                	j	45b6 <__mulsf3+0xb0>
    4686:	6341                	lui	t1,0x10
    4688:	fff30693          	addi	a3,t1,-1 # ffff <_data_lma+0x61fb>
    468c:	0109d613          	srli	a2,s3,0x10
    4690:	010ad893          	srli	a7,s5,0x10
    4694:	00d9f7b3          	and	a5,s3,a3
    4698:	00dafab3          	and	s5,s5,a3
    469c:	03578833          	mul	a6,a5,s5
    46a0:	02f889b3          	mul	s3,a7,a5
    46a4:	01085713          	srli	a4,a6,0x10
    46a8:	03560ab3          	mul	s5,a2,s5
    46ac:	99d6                	add	s3,s3,s5
    46ae:	974e                	add	a4,a4,s3
    46b0:	03160633          	mul	a2,a2,a7
    46b4:	01577363          	bgeu	a4,s5,46ba <__mulsf3+0x1b4>
    46b8:	961a                	add	a2,a2,t1
    46ba:	67c1                	lui	a5,0x10
    46bc:	17fd                	addi	a5,a5,-1
    46be:	00f776b3          	and	a3,a4,a5
    46c2:	00f87833          	and	a6,a6,a5
    46c6:	06c2                	slli	a3,a3,0x10
    46c8:	96c2                	add	a3,a3,a6
    46ca:	00669993          	slli	s3,a3,0x6
    46ce:	01075793          	srli	a5,a4,0x10
    46d2:	013039b3          	snez	s3,s3
    46d6:	82e9                	srli	a3,a3,0x1a
    46d8:	97b2                	add	a5,a5,a2
    46da:	079a                	slli	a5,a5,0x6
    46dc:	00d9e6b3          	or	a3,s3,a3
    46e0:	00d7e9b3          	or	s3,a5,a3
    46e4:	00499793          	slli	a5,s3,0x4
    46e8:	0007d963          	bgez	a5,46fa <__mulsf3+0x1f4>
    46ec:	0019d713          	srli	a4,s3,0x1
    46f0:	0019f793          	andi	a5,s3,1
    46f4:	00f769b3          	or	s3,a4,a5
    46f8:	842e                	mv	s0,a1
    46fa:	07f40713          	addi	a4,s0,127
    46fe:	04e05063          	blez	a4,473e <__mulsf3+0x238>
    4702:	0079f793          	andi	a5,s3,7
    4706:	c799                	beqz	a5,4714 <__mulsf3+0x20e>
    4708:	00f9f793          	andi	a5,s3,15
    470c:	4691                	li	a3,4
    470e:	00d78363          	beq	a5,a3,4714 <__mulsf3+0x20e>
    4712:	0991                	addi	s3,s3,4
    4714:	00499793          	slli	a5,s3,0x4
    4718:	0007d963          	bgez	a5,472a <__mulsf3+0x224>
    471c:	f80007b7          	lui	a5,0xf8000
    4720:	17fd                	addi	a5,a5,-1
    4722:	00f9f9b3          	and	s3,s3,a5
    4726:	08040713          	addi	a4,s0,128
    472a:	0fe00793          	li	a5,254
    472e:	04e7cb63          	blt	a5,a4,4784 <__mulsf3+0x27e>
    4732:	00699793          	slli	a5,s3,0x6
    4736:	83a5                	srli	a5,a5,0x9
    4738:	0ff77713          	andi	a4,a4,255
    473c:	bdad                	j	45b6 <__mulsf3+0xb0>
    473e:	4785                	li	a5,1
    4740:	40e786b3          	sub	a3,a5,a4
    4744:	c711                	beqz	a4,4750 <__mulsf3+0x24a>
    4746:	466d                	li	a2,27
    4748:	4701                	li	a4,0
    474a:	4781                	li	a5,0
    474c:	e6d645e3          	blt	a2,a3,45b6 <__mulsf3+0xb0>
    4750:	09e40713          	addi	a4,s0,158
    4754:	00e99733          	sll	a4,s3,a4
    4758:	00e03733          	snez	a4,a4
    475c:	00d9d7b3          	srl	a5,s3,a3
    4760:	8fd9                	or	a5,a5,a4
    4762:	0077f713          	andi	a4,a5,7
    4766:	c719                	beqz	a4,4774 <__mulsf3+0x26e>
    4768:	00f7f713          	andi	a4,a5,15
    476c:	4691                	li	a3,4
    476e:	00d70363          	beq	a4,a3,4774 <__mulsf3+0x26e>
    4772:	0791                	addi	a5,a5,4
    4774:	00579713          	slli	a4,a5,0x5
    4778:	00074c63          	bltz	a4,4790 <__mulsf3+0x28a>
    477c:	079a                	slli	a5,a5,0x6
    477e:	83a5                	srli	a5,a5,0x9
    4780:	4701                	li	a4,0
    4782:	bd15                	j	45b6 <__mulsf3+0xb0>
    4784:	0ff00713          	li	a4,255
    4788:	4781                	li	a5,0
    478a:	b535                	j	45b6 <__mulsf3+0xb0>
    478c:	842e                	mv	s0,a1
    478e:	b7b5                	j	46fa <__mulsf3+0x1f4>
    4790:	4705                	li	a4,1
    4792:	4781                	li	a5,0
    4794:	b50d                	j	45b6 <__mulsf3+0xb0>

00004796 <__subsf3>:
    4796:	00800737          	lui	a4,0x800
    479a:	1141                	addi	sp,sp,-16
    479c:	177d                	addi	a4,a4,-1
    479e:	01755693          	srli	a3,a0,0x17
    47a2:	0175d813          	srli	a6,a1,0x17
    47a6:	00a777b3          	and	a5,a4,a0
    47aa:	0ff6f693          	andi	a3,a3,255
    47ae:	01f55e93          	srli	t4,a0,0x1f
    47b2:	00b77633          	and	a2,a4,a1
    47b6:	c226                	sw	s1,4(sp)
    47b8:	c04a                	sw	s2,0(sp)
    47ba:	0ff87813          	andi	a6,a6,255
    47be:	c606                	sw	ra,12(sp)
    47c0:	c422                	sw	s0,8(sp)
    47c2:	0ff00313          	li	t1,255
    47c6:	8e3e                	mv	t3,a5
    47c8:	8936                	mv	s2,a3
    47ca:	84f6                	mv	s1,t4
    47cc:	00379f13          	slli	t5,a5,0x3
    47d0:	81fd                	srli	a1,a1,0x1f
    47d2:	00361513          	slli	a0,a2,0x3
    47d6:	410688b3          	sub	a7,a3,a6
    47da:	10680263          	beq	a6,t1,48de <__subsf3+0x148>
    47de:	0015c593          	xori	a1,a1,1
    47e2:	10be8c63          	beq	t4,a1,48fa <__subsf3+0x164>
    47e6:	0d105463          	blez	a7,48ae <__subsf3+0x118>
    47ea:	10081063          	bnez	a6,48ea <__subsf3+0x154>
    47ee:	1e050463          	beqz	a0,49d6 <__subsf3+0x240>
    47f2:	18fd                	addi	a7,a7,-1
    47f4:	40af07b3          	sub	a5,t5,a0
    47f8:	02088663          	beqz	a7,4824 <__subsf3+0x8e>
    47fc:	0ff00793          	li	a5,255
    4800:	16f68863          	beq	a3,a5,4970 <__subsf3+0x1da>
    4804:	47ed                	li	a5,27
    4806:	2917c763          	blt	a5,a7,4a94 <__subsf3+0x2fe>
    480a:	02000713          	li	a4,32
    480e:	41170733          	sub	a4,a4,a7
    4812:	00e51733          	sll	a4,a0,a4
    4816:	011557b3          	srl	a5,a0,a7
    481a:	00e03733          	snez	a4,a4
    481e:	8fd9                	or	a5,a5,a4
    4820:	40ff07b3          	sub	a5,t5,a5
    4824:	00579713          	slli	a4,a5,0x5
    4828:	1a075163          	bgez	a4,49ca <__subsf3+0x234>
    482c:	04000437          	lui	s0,0x4000
    4830:	147d                	addi	s0,s0,-1
    4832:	8c7d                	and	s0,s0,a5
    4834:	8522                	mv	a0,s0
    4836:	29fd                	jal	4d34 <__clzsi2>
    4838:	156d                	addi	a0,a0,-5
    483a:	00a417b3          	sll	a5,s0,a0
    483e:	1b254e63          	blt	a0,s2,49fa <__subsf3+0x264>
    4842:	41250533          	sub	a0,a0,s2
    4846:	00150413          	addi	s0,a0,1
    484a:	02000713          	li	a4,32
    484e:	8f01                	sub	a4,a4,s0
    4850:	00e79733          	sll	a4,a5,a4
    4854:	00e03733          	snez	a4,a4
    4858:	0087d7b3          	srl	a5,a5,s0
    485c:	8fd9                	or	a5,a5,a4
    485e:	4901                	li	s2,0
    4860:	0077f713          	andi	a4,a5,7
    4864:	c719                	beqz	a4,4872 <__subsf3+0xdc>
    4866:	00f7f713          	andi	a4,a5,15
    486a:	4691                	li	a3,4
    486c:	00d70363          	beq	a4,a3,4872 <__subsf3+0xdc>
    4870:	0791                	addi	a5,a5,4
    4872:	00579713          	slli	a4,a5,0x5
    4876:	14075e63          	bgez	a4,49d2 <__subsf3+0x23c>
    487a:	00190693          	addi	a3,s2,1 # 800001 <_data_lma+0x7f61fd>
    487e:	0ff00713          	li	a4,255
    4882:	0014fe93          	andi	t4,s1,1
    4886:	16e68663          	beq	a3,a4,49f2 <__subsf3+0x25c>
    488a:	079a                	slli	a5,a5,0x6
    488c:	83a5                	srli	a5,a5,0x9
    488e:	0ff6f693          	andi	a3,a3,255
    4892:	07a6                	slli	a5,a5,0x9
    4894:	40b2                	lw	ra,12(sp)
    4896:	4422                	lw	s0,8(sp)
    4898:	0097d513          	srli	a0,a5,0x9
    489c:	06de                	slli	a3,a3,0x17
    489e:	01fe9793          	slli	a5,t4,0x1f
    48a2:	8d55                	or	a0,a0,a3
    48a4:	4492                	lw	s1,4(sp)
    48a6:	4902                	lw	s2,0(sp)
    48a8:	8d5d                	or	a0,a0,a5
    48aa:	0141                	addi	sp,sp,16
    48ac:	8082                	ret
    48ae:	0a089263          	bnez	a7,4952 <__subsf3+0x1bc>
    48b2:	00168713          	addi	a4,a3,1 # 7e000001 <_eusrstack+0x5dff8001>
    48b6:	0fe77713          	andi	a4,a4,254
    48ba:	14071b63          	bnez	a4,4a10 <__subsf3+0x27a>
    48be:	22069463          	bnez	a3,4ae6 <__subsf3+0x350>
    48c2:	200f0263          	beqz	t5,4ac6 <__subsf3+0x330>
    48c6:	d571                	beqz	a0,4892 <__subsf3+0xfc>
    48c8:	40af07b3          	sub	a5,t5,a0
    48cc:	00579713          	slli	a4,a5,0x5
    48d0:	22075563          	bgez	a4,4afa <__subsf3+0x364>
    48d4:	41e507b3          	sub	a5,a0,t5
    48d8:	4901                	li	s2,0
    48da:	84ae                	mv	s1,a1
    48dc:	b751                	j	4860 <__subsf3+0xca>
    48de:	f00500e3          	beqz	a0,47de <__subsf3+0x48>
    48e2:	0abe8a63          	beq	t4,a1,4996 <__subsf3+0x200>
    48e6:	fd1054e3          	blez	a7,48ae <__subsf3+0x118>
    48ea:	0ff00793          	li	a5,255
    48ee:	08f68163          	beq	a3,a5,4970 <__subsf3+0x1da>
    48f2:	040007b7          	lui	a5,0x4000
    48f6:	8d5d                	or	a0,a0,a5
    48f8:	b731                	j	4804 <__subsf3+0x6e>
    48fa:	09105e63          	blez	a7,4996 <__subsf3+0x200>
    48fe:	08080163          	beqz	a6,4980 <__subsf3+0x1ea>
    4902:	0ff00793          	li	a5,255
    4906:	06f68563          	beq	a3,a5,4970 <__subsf3+0x1da>
    490a:	040007b7          	lui	a5,0x4000
    490e:	8d5d                	or	a0,a0,a5
    4910:	47ed                	li	a5,27
    4912:	1f17c063          	blt	a5,a7,4af2 <__subsf3+0x35c>
    4916:	02000713          	li	a4,32
    491a:	41170733          	sub	a4,a4,a7
    491e:	00e51733          	sll	a4,a0,a4
    4922:	011557b3          	srl	a5,a0,a7
    4926:	00e03733          	snez	a4,a4
    492a:	8fd9                	or	a5,a5,a4
    492c:	97fa                	add	a5,a5,t5
    492e:	00579713          	slli	a4,a5,0x5
    4932:	08075c63          	bgez	a4,49ca <__subsf3+0x234>
    4936:	0905                	addi	s2,s2,1
    4938:	0ff00713          	li	a4,255
    493c:	0ae90b63          	beq	s2,a4,49f2 <__subsf3+0x25c>
    4940:	7e0006b7          	lui	a3,0x7e000
    4944:	0017d713          	srli	a4,a5,0x1
    4948:	16fd                	addi	a3,a3,-1
    494a:	8b85                	andi	a5,a5,1
    494c:	8f75                	and	a4,a4,a3
    494e:	8fd9                	or	a5,a5,a4
    4950:	bf01                	j	4860 <__subsf3+0xca>
    4952:	40d80733          	sub	a4,a6,a3
    4956:	10069563          	bnez	a3,4a60 <__subsf3+0x2ca>
    495a:	140f0d63          	beqz	t5,4ab4 <__subsf3+0x31e>
    495e:	177d                	addi	a4,a4,-1
    4960:	1a070363          	beqz	a4,4b06 <__subsf3+0x370>
    4964:	0ff00793          	li	a5,255
    4968:	10f81463          	bne	a6,a5,4a70 <__subsf3+0x2da>
    496c:	84ae                	mv	s1,a1
    496e:	8e32                	mv	t3,a2
    4970:	060e0f63          	beqz	t3,49ee <__subsf3+0x258>
    4974:	4e81                	li	t4,0
    4976:	0ff00693          	li	a3,255
    497a:	004007b7          	lui	a5,0x400
    497e:	bf11                	j	4892 <__subsf3+0xfc>
    4980:	c939                	beqz	a0,49d6 <__subsf3+0x240>
    4982:	18fd                	addi	a7,a7,-1
    4984:	00af07b3          	add	a5,t5,a0
    4988:	fa0883e3          	beqz	a7,492e <__subsf3+0x198>
    498c:	0ff00793          	li	a5,255
    4990:	f8f690e3          	bne	a3,a5,4910 <__subsf3+0x17a>
    4994:	bff1                	j	4970 <__subsf3+0x1da>
    4996:	08089963          	bnez	a7,4a28 <__subsf3+0x292>
    499a:	00168913          	addi	s2,a3,1 # 7e000001 <_eusrstack+0x5dff8001>
    499e:	0fe97713          	andi	a4,s2,254
    49a2:	12071663          	bnez	a4,4ace <__subsf3+0x338>
    49a6:	10069b63          	bnez	a3,4abc <__subsf3+0x326>
    49aa:	160f0363          	beqz	t5,4b10 <__subsf3+0x37a>
    49ae:	ee0502e3          	beqz	a0,4892 <__subsf3+0xfc>
    49b2:	00af07b3          	add	a5,t5,a0
    49b6:	00579713          	slli	a4,a5,0x5
    49ba:	4901                	li	s2,0
    49bc:	00075763          	bgez	a4,49ca <__subsf3+0x234>
    49c0:	fc000737          	lui	a4,0xfc000
    49c4:	177d                	addi	a4,a4,-1
    49c6:	8ff9                	and	a5,a5,a4
    49c8:	4905                	li	s2,1
    49ca:	0077f713          	andi	a4,a5,7
    49ce:	e8071ce3          	bnez	a4,4866 <__subsf3+0xd0>
    49d2:	0037de13          	srli	t3,a5,0x3
    49d6:	0ff00793          	li	a5,255
    49da:	f8f90be3          	beq	s2,a5,4970 <__subsf3+0x1da>
    49de:	009e1793          	slli	a5,t3,0x9
    49e2:	83a5                	srli	a5,a5,0x9
    49e4:	0ff97693          	andi	a3,s2,255
    49e8:	0014fe93          	andi	t4,s1,1
    49ec:	b55d                	j	4892 <__subsf3+0xfc>
    49ee:	0014fe93          	andi	t4,s1,1
    49f2:	0ff00693          	li	a3,255
    49f6:	4781                	li	a5,0
    49f8:	bd69                	j	4892 <__subsf3+0xfc>
    49fa:	fc000737          	lui	a4,0xfc000
    49fe:	177d                	addi	a4,a4,-1
    4a00:	8ff9                	and	a5,a5,a4
    4a02:	0077f713          	andi	a4,a5,7
    4a06:	40a90933          	sub	s2,s2,a0
    4a0a:	e4071ee3          	bnez	a4,4866 <__subsf3+0xd0>
    4a0e:	b7d1                	j	49d2 <__subsf3+0x23c>
    4a10:	40af0433          	sub	s0,t5,a0
    4a14:	00541793          	slli	a5,s0,0x5
    4a18:	0c07c363          	bltz	a5,4ade <__subsf3+0x348>
    4a1c:	e0041ce3          	bnez	s0,4834 <__subsf3+0x9e>
    4a20:	4e81                	li	t4,0
    4a22:	4681                	li	a3,0
    4a24:	4781                	li	a5,0
    4a26:	b5b5                	j	4892 <__subsf3+0xfc>
    4a28:	40d80733          	sub	a4,a6,a3
    4a2c:	c6b5                	beqz	a3,4a98 <__subsf3+0x302>
    4a2e:	0ff00793          	li	a5,255
    4a32:	f2f80ee3          	beq	a6,a5,496e <__subsf3+0x1d8>
    4a36:	040007b7          	lui	a5,0x4000
    4a3a:	00ff6f33          	or	t5,t5,a5
    4a3e:	47ed                	li	a5,27
    4a40:	0ce7cd63          	blt	a5,a4,4b1a <__subsf3+0x384>
    4a44:	02000793          	li	a5,32
    4a48:	8f99                	sub	a5,a5,a4
    4a4a:	00ff17b3          	sll	a5,t5,a5
    4a4e:	00ef5733          	srl	a4,t5,a4
    4a52:	00f037b3          	snez	a5,a5
    4a56:	8f5d                	or	a4,a4,a5
    4a58:	00a707b3          	add	a5,a4,a0
    4a5c:	8942                	mv	s2,a6
    4a5e:	bdc1                	j	492e <__subsf3+0x198>
    4a60:	0ff00793          	li	a5,255
    4a64:	f0f804e3          	beq	a6,a5,496c <__subsf3+0x1d6>
    4a68:	040007b7          	lui	a5,0x4000
    4a6c:	00ff6f33          	or	t5,t5,a5
    4a70:	47ed                	li	a5,27
    4a72:	08e7c263          	blt	a5,a4,4af6 <__subsf3+0x360>
    4a76:	02000793          	li	a5,32
    4a7a:	8f99                	sub	a5,a5,a4
    4a7c:	00ff17b3          	sll	a5,t5,a5
    4a80:	00ef5733          	srl	a4,t5,a4
    4a84:	00f037b3          	snez	a5,a5
    4a88:	8fd9                	or	a5,a5,a4
    4a8a:	40f507b3          	sub	a5,a0,a5
    4a8e:	8942                	mv	s2,a6
    4a90:	84ae                	mv	s1,a1
    4a92:	bb49                	j	4824 <__subsf3+0x8e>
    4a94:	4785                	li	a5,1
    4a96:	b369                	j	4820 <__subsf3+0x8a>
    4a98:	060f0e63          	beqz	t5,4b14 <__subsf3+0x37e>
    4a9c:	177d                	addi	a4,a4,-1
    4a9e:	00af07b3          	add	a5,t5,a0
    4aa2:	8942                	mv	s2,a6
    4aa4:	e80705e3          	beqz	a4,492e <__subsf3+0x198>
    4aa8:	0ff00793          	li	a5,255
    4aac:	f8f819e3          	bne	a6,a5,4a3e <__subsf3+0x2a8>
    4ab0:	8e32                	mv	t3,a2
    4ab2:	bd7d                	j	4970 <__subsf3+0x1da>
    4ab4:	8e32                	mv	t3,a2
    4ab6:	8942                	mv	s2,a6
    4ab8:	84ae                	mv	s1,a1
    4aba:	bf31                	j	49d6 <__subsf3+0x240>
    4abc:	ea0f09e3          	beqz	t5,496e <__subsf3+0x1d8>
    4ac0:	ea0508e3          	beqz	a0,4970 <__subsf3+0x1da>
    4ac4:	bd45                	j	4974 <__subsf3+0x1de>
    4ac6:	cd0d                	beqz	a0,4b00 <__subsf3+0x36a>
    4ac8:	8eae                	mv	t4,a1
    4aca:	87b2                	mv	a5,a2
    4acc:	b3d9                	j	4892 <__subsf3+0xfc>
    4ace:	0ff00793          	li	a5,255
    4ad2:	f2f900e3          	beq	s2,a5,49f2 <__subsf3+0x25c>
    4ad6:	00af07b3          	add	a5,t5,a0
    4ada:	8385                	srli	a5,a5,0x1
    4adc:	b5fd                	j	49ca <__subsf3+0x234>
    4ade:	41e50433          	sub	s0,a0,t5
    4ae2:	84ae                	mv	s1,a1
    4ae4:	bb81                	j	4834 <__subsf3+0x9e>
    4ae6:	fc0f1de3          	bnez	t5,4ac0 <__subsf3+0x32a>
    4aea:	e80505e3          	beqz	a0,4974 <__subsf3+0x1de>
    4aee:	84ae                	mv	s1,a1
    4af0:	bdbd                	j	496e <__subsf3+0x1d8>
    4af2:	4785                	li	a5,1
    4af4:	bd25                	j	492c <__subsf3+0x196>
    4af6:	4785                	li	a5,1
    4af8:	bf49                	j	4a8a <__subsf3+0x2f4>
    4afa:	4901                	li	s2,0
    4afc:	ec0797e3          	bnez	a5,49ca <__subsf3+0x234>
    4b00:	4e81                	li	t4,0
    4b02:	4781                	li	a5,0
    4b04:	b379                	j	4892 <__subsf3+0xfc>
    4b06:	41e507b3          	sub	a5,a0,t5
    4b0a:	8942                	mv	s2,a6
    4b0c:	84ae                	mv	s1,a1
    4b0e:	bb19                	j	4824 <__subsf3+0x8e>
    4b10:	87b2                	mv	a5,a2
    4b12:	b341                	j	4892 <__subsf3+0xfc>
    4b14:	8e32                	mv	t3,a2
    4b16:	8942                	mv	s2,a6
    4b18:	bd7d                	j	49d6 <__subsf3+0x240>
    4b1a:	4705                	li	a4,1
    4b1c:	bf35                	j	4a58 <__subsf3+0x2c2>

00004b1e <__extendsfdf2>:
    4b1e:	01755713          	srli	a4,a0,0x17
    4b22:	0ff77713          	andi	a4,a4,255
    4b26:	1141                	addi	sp,sp,-16
    4b28:	00170793          	addi	a5,a4,1 # fc000001 <_eusrstack+0xdbff8001>
    4b2c:	c422                	sw	s0,8(sp)
    4b2e:	c226                	sw	s1,4(sp)
    4b30:	00951413          	slli	s0,a0,0x9
    4b34:	c606                	sw	ra,12(sp)
    4b36:	0fe7f793          	andi	a5,a5,254
    4b3a:	8025                	srli	s0,s0,0x9
    4b3c:	01f55493          	srli	s1,a0,0x1f
    4b40:	c785                	beqz	a5,4b68 <__extendsfdf2+0x4a>
    4b42:	00345793          	srli	a5,s0,0x3
    4b46:	38070713          	addi	a4,a4,896
    4b4a:	0476                	slli	s0,s0,0x1d
    4b4c:	07b2                	slli	a5,a5,0xc
    4b4e:	0752                	slli	a4,a4,0x14
    4b50:	83b1                	srli	a5,a5,0xc
    4b52:	01f49513          	slli	a0,s1,0x1f
    4b56:	8fd9                	or	a5,a5,a4
    4b58:	8fc9                	or	a5,a5,a0
    4b5a:	40b2                	lw	ra,12(sp)
    4b5c:	8522                	mv	a0,s0
    4b5e:	4422                	lw	s0,8(sp)
    4b60:	4492                	lw	s1,4(sp)
    4b62:	85be                	mv	a1,a5
    4b64:	0141                	addi	sp,sp,16
    4b66:	8082                	ret
    4b68:	eb05                	bnez	a4,4b98 <__extendsfdf2+0x7a>
    4b6a:	c439                	beqz	s0,4bb8 <__extendsfdf2+0x9a>
    4b6c:	8522                	mv	a0,s0
    4b6e:	22d9                	jal	4d34 <__clzsi2>
    4b70:	47a9                	li	a5,10
    4b72:	04a7c663          	blt	a5,a0,4bbe <__extendsfdf2+0xa0>
    4b76:	472d                	li	a4,11
    4b78:	8f09                	sub	a4,a4,a0
    4b7a:	01550793          	addi	a5,a0,21
    4b7e:	00e45733          	srl	a4,s0,a4
    4b82:	00f41433          	sll	s0,s0,a5
    4b86:	00c71793          	slli	a5,a4,0xc
    4b8a:	38900713          	li	a4,905
    4b8e:	8f09                	sub	a4,a4,a0
    4b90:	83b1                	srli	a5,a5,0xc
    4b92:	7ff77713          	andi	a4,a4,2047
    4b96:	bf5d                	j	4b4c <__extendsfdf2+0x2e>
    4b98:	cc01                	beqz	s0,4bb0 <__extendsfdf2+0x92>
    4b9a:	00345713          	srli	a4,s0,0x3
    4b9e:	000807b7          	lui	a5,0x80
    4ba2:	8fd9                	or	a5,a5,a4
    4ba4:	07b2                	slli	a5,a5,0xc
    4ba6:	0476                	slli	s0,s0,0x1d
    4ba8:	83b1                	srli	a5,a5,0xc
    4baa:	7ff00713          	li	a4,2047
    4bae:	bf79                	j	4b4c <__extendsfdf2+0x2e>
    4bb0:	7ff00713          	li	a4,2047
    4bb4:	4781                	li	a5,0
    4bb6:	bf59                	j	4b4c <__extendsfdf2+0x2e>
    4bb8:	4701                	li	a4,0
    4bba:	4781                	li	a5,0
    4bbc:	bf41                	j	4b4c <__extendsfdf2+0x2e>
    4bbe:	ff550713          	addi	a4,a0,-11
    4bc2:	00e41733          	sll	a4,s0,a4
    4bc6:	4401                	li	s0,0
    4bc8:	bf7d                	j	4b86 <__extendsfdf2+0x68>

00004bca <__truncdfsf2>:
    4bca:	0145d693          	srli	a3,a1,0x14
    4bce:	00c59793          	slli	a5,a1,0xc
    4bd2:	7ff6f693          	andi	a3,a3,2047
    4bd6:	83b1                	srli	a5,a5,0xc
    4bd8:	00168613          	addi	a2,a3,1
    4bdc:	078e                	slli	a5,a5,0x3
    4bde:	01d55713          	srli	a4,a0,0x1d
    4be2:	7fe67613          	andi	a2,a2,2046
    4be6:	81fd                	srli	a1,a1,0x1f
    4be8:	8f5d                	or	a4,a4,a5
    4bea:	00351893          	slli	a7,a0,0x3
    4bee:	ce35                	beqz	a2,4c6a <__truncdfsf2+0xa0>
    4bf0:	c8068813          	addi	a6,a3,-896
    4bf4:	0fe00793          	li	a5,254
    4bf8:	0107dd63          	bge	a5,a6,4c12 <__truncdfsf2+0x48>
    4bfc:	4781                	li	a5,0
    4bfe:	00979513          	slli	a0,a5,0x9
    4c02:	0ff00693          	li	a3,255
    4c06:	06de                	slli	a3,a3,0x17
    4c08:	8125                	srli	a0,a0,0x9
    4c0a:	05fe                	slli	a1,a1,0x1f
    4c0c:	8d55                	or	a0,a0,a3
    4c0e:	8d4d                	or	a0,a0,a1
    4c10:	8082                	ret
    4c12:	0b005563          	blez	a6,4cbc <__truncdfsf2+0xf2>
    4c16:	00651793          	slli	a5,a0,0x6
    4c1a:	070e                	slli	a4,a4,0x3
    4c1c:	00f037b3          	snez	a5,a5
    4c20:	8fd9                	or	a5,a5,a4
    4c22:	01d8d893          	srli	a7,a7,0x1d
    4c26:	0117e7b3          	or	a5,a5,a7
    4c2a:	0077f713          	andi	a4,a5,7
    4c2e:	10070163          	beqz	a4,4d30 <__truncdfsf2+0x166>
    4c32:	00f7f713          	andi	a4,a5,15
    4c36:	4691                	li	a3,4
    4c38:	00d70363          	beq	a4,a3,4c3e <__truncdfsf2+0x74>
    4c3c:	0791                	addi	a5,a5,4
    4c3e:	04000737          	lui	a4,0x4000
    4c42:	8f7d                	and	a4,a4,a5
    4c44:	c775                	beqz	a4,4d30 <__truncdfsf2+0x166>
    4c46:	00180713          	addi	a4,a6,1
    4c4a:	0ff00613          	li	a2,255
    4c4e:	0ff77693          	andi	a3,a4,255
    4c52:	fac705e3          	beq	a4,a2,4bfc <__truncdfsf2+0x32>
    4c56:	079a                	slli	a5,a5,0x6
    4c58:	83a5                	srli	a5,a5,0x9
    4c5a:	00979513          	slli	a0,a5,0x9
    4c5e:	06de                	slli	a3,a3,0x17
    4c60:	8125                	srli	a0,a0,0x9
    4c62:	05fe                	slli	a1,a1,0x1f
    4c64:	8d55                	or	a0,a0,a3
    4c66:	8d4d                	or	a0,a0,a1
    4c68:	8082                	ret
    4c6a:	011767b3          	or	a5,a4,a7
    4c6e:	ee99                	bnez	a3,4c8c <__truncdfsf2+0xc2>
    4c70:	cf85                	beqz	a5,4ca8 <__truncdfsf2+0xde>
    4c72:	4795                	li	a5,5
    4c74:	079a                	slli	a5,a5,0x6
    4c76:	83a5                	srli	a5,a5,0x9
    4c78:	00979513          	slli	a0,a5,0x9
    4c7c:	0ff6f693          	andi	a3,a3,255
    4c80:	06de                	slli	a3,a3,0x17
    4c82:	8125                	srli	a0,a0,0x9
    4c84:	05fe                	slli	a1,a1,0x1f
    4c86:	8d55                	or	a0,a0,a3
    4c88:	8d4d                	or	a0,a0,a1
    4c8a:	8082                	ret
    4c8c:	dba5                	beqz	a5,4bfc <__truncdfsf2+0x32>
    4c8e:	004007b7          	lui	a5,0x400
    4c92:	00979513          	slli	a0,a5,0x9
    4c96:	0ff00693          	li	a3,255
    4c9a:	06de                	slli	a3,a3,0x17
    4c9c:	4581                	li	a1,0
    4c9e:	8125                	srli	a0,a0,0x9
    4ca0:	05fe                	slli	a1,a1,0x1f
    4ca2:	8d55                	or	a0,a0,a3
    4ca4:	8d4d                	or	a0,a0,a1
    4ca6:	8082                	ret
    4ca8:	4781                	li	a5,0
    4caa:	00979513          	slli	a0,a5,0x9
    4cae:	4681                	li	a3,0
    4cb0:	06de                	slli	a3,a3,0x17
    4cb2:	8125                	srli	a0,a0,0x9
    4cb4:	05fe                	slli	a1,a1,0x1f
    4cb6:	8d55                	or	a0,a0,a3
    4cb8:	8d4d                	or	a0,a0,a1
    4cba:	8082                	ret
    4cbc:	57a5                	li	a5,-23
    4cbe:	04f84863          	blt	a6,a5,4d0e <__truncdfsf2+0x144>
    4cc2:	47f9                	li	a5,30
    4cc4:	00800637          	lui	a2,0x800
    4cc8:	410787b3          	sub	a5,a5,a6
    4ccc:	457d                	li	a0,31
    4cce:	8e59                	or	a2,a2,a4
    4cd0:	04f55163          	bge	a0,a5,4d12 <__truncdfsf2+0x148>
    4cd4:	5779                	li	a4,-2
    4cd6:	41070733          	sub	a4,a4,a6
    4cda:	02000513          	li	a0,32
    4cde:	00e65733          	srl	a4,a2,a4
    4ce2:	00a78863          	beq	a5,a0,4cf2 <__truncdfsf2+0x128>
    4ce6:	ca268693          	addi	a3,a3,-862
    4cea:	00d616b3          	sll	a3,a2,a3
    4cee:	00d8e8b3          	or	a7,a7,a3
    4cf2:	011037b3          	snez	a5,a7
    4cf6:	8fd9                	or	a5,a5,a4
    4cf8:	0077f713          	andi	a4,a5,7
    4cfc:	4801                	li	a6,0
    4cfe:	fb15                	bnez	a4,4c32 <__truncdfsf2+0x68>
    4d00:	00579713          	slli	a4,a5,0x5
    4d04:	4685                	li	a3,1
    4d06:	f40748e3          	bltz	a4,4c56 <__truncdfsf2+0x8c>
    4d0a:	4681                	li	a3,0
    4d0c:	b7a5                	j	4c74 <__truncdfsf2+0xaa>
    4d0e:	4681                	li	a3,0
    4d10:	b78d                	j	4c72 <__truncdfsf2+0xa8>
    4d12:	c8268693          	addi	a3,a3,-894
    4d16:	00d89733          	sll	a4,a7,a3
    4d1a:	00e03733          	snez	a4,a4
    4d1e:	00d616b3          	sll	a3,a2,a3
    4d22:	00f8d8b3          	srl	a7,a7,a5
    4d26:	00d767b3          	or	a5,a4,a3
    4d2a:	00f8e7b3          	or	a5,a7,a5
    4d2e:	b7e9                	j	4cf8 <__truncdfsf2+0x12e>
    4d30:	86c2                	mv	a3,a6
    4d32:	b789                	j	4c74 <__truncdfsf2+0xaa>

00004d34 <__clzsi2>:
    4d34:	67c1                	lui	a5,0x10
    4d36:	02f57e63          	bgeu	a0,a5,4d72 <__clzsi2+0x3e>
    4d3a:	0ff00793          	li	a5,255
    4d3e:	02000713          	li	a4,32
    4d42:	00a7ec63          	bltu	a5,a0,4d5a <__clzsi2+0x26>
    4d46:	00005797          	auipc	a5,0x5
    4d4a:	c5678793          	addi	a5,a5,-938 # 999c <__clz_tab>
    4d4e:	97aa                	add	a5,a5,a0
    4d50:	0007c503          	lbu	a0,0(a5)
    4d54:	40a70533          	sub	a0,a4,a0
    4d58:	8082                	ret
    4d5a:	8121                	srli	a0,a0,0x8
    4d5c:	00005797          	auipc	a5,0x5
    4d60:	c4078793          	addi	a5,a5,-960 # 999c <__clz_tab>
    4d64:	97aa                	add	a5,a5,a0
    4d66:	0007c503          	lbu	a0,0(a5)
    4d6a:	4761                	li	a4,24
    4d6c:	40a70533          	sub	a0,a4,a0
    4d70:	8082                	ret
    4d72:	010007b7          	lui	a5,0x1000
    4d76:	00f56e63          	bltu	a0,a5,4d92 <__clzsi2+0x5e>
    4d7a:	8161                	srli	a0,a0,0x18
    4d7c:	00005797          	auipc	a5,0x5
    4d80:	c2078793          	addi	a5,a5,-992 # 999c <__clz_tab>
    4d84:	97aa                	add	a5,a5,a0
    4d86:	0007c503          	lbu	a0,0(a5)
    4d8a:	4721                	li	a4,8
    4d8c:	40a70533          	sub	a0,a4,a0
    4d90:	8082                	ret
    4d92:	8141                	srli	a0,a0,0x10
    4d94:	00005797          	auipc	a5,0x5
    4d98:	c0878793          	addi	a5,a5,-1016 # 999c <__clz_tab>
    4d9c:	97aa                	add	a5,a5,a0
    4d9e:	0007c503          	lbu	a0,0(a5)
    4da2:	4741                	li	a4,16
    4da4:	40a70533          	sub	a0,a4,a0
    4da8:	8082                	ret

00004daa <__cvt>:
    4daa:	7179                	addi	sp,sp,-48
    4dac:	d422                	sw	s0,40(sp)
    4dae:	d04a                	sw	s2,32(sp)
    4db0:	cc52                	sw	s4,24(sp)
    4db2:	ca56                	sw	s5,20(sp)
    4db4:	c85a                	sw	s6,16(sp)
    4db6:	d606                	sw	ra,44(sp)
    4db8:	d226                	sw	s1,36(sp)
    4dba:	ce4e                	sw	s3,28(sp)
    4dbc:	8a3a                	mv	s4,a4
    4dbe:	8aae                	mv	s5,a1
    4dc0:	8432                	mv	s0,a2
    4dc2:	8936                	mv	s2,a3
    4dc4:	8b42                	mv	s6,a6
    4dc6:	4701                	li	a4,0
    4dc8:	00065863          	bgez	a2,4dd8 <__cvt+0x2e>
    4dcc:	80000737          	lui	a4,0x80000
    4dd0:	00c74433          	xor	s0,a4,a2
    4dd4:	02d00713          	li	a4,45
    4dd8:	00e78023          	sb	a4,0(a5)
    4ddc:	fdf8f493          	andi	s1,a7,-33
    4de0:	04600793          	li	a5,70
    4de4:	468d                	li	a3,3
    4de6:	00f48863          	beq	s1,a5,4df6 <__cvt+0x4c>
    4dea:	04500793          	li	a5,69
    4dee:	4689                	li	a3,2
    4df0:	00f49363          	bne	s1,a5,4df6 <__cvt+0x4c>
    4df4:	0905                	addi	s2,s2,1
    4df6:	87da                	mv	a5,s6
    4df8:	00c10893          	addi	a7,sp,12
    4dfc:	00810813          	addi	a6,sp,8
    4e00:	874a                	mv	a4,s2
    4e02:	85d6                	mv	a1,s5
    4e04:	8622                	mv	a2,s0
    4e06:	5ed010ef          	jal	ra,6bf2 <_dtoa_r>
    4e0a:	04700793          	li	a5,71
    4e0e:	89aa                	mv	s3,a0
    4e10:	00f49663          	bne	s1,a5,4e1c <__cvt+0x72>
    4e14:	001a7a13          	andi	s4,s4,1
    4e18:	040a0a63          	beqz	s4,4e6c <__cvt+0xc2>
    4e1c:	04600793          	li	a5,70
    4e20:	01298a33          	add	s4,s3,s2
    4e24:	02f49763          	bne	s1,a5,4e52 <__cvt+0xa8>
    4e28:	0009c703          	lbu	a4,0(s3)
    4e2c:	03000793          	li	a5,48
    4e30:	00f71e63          	bne	a4,a5,4e4c <__cvt+0xa2>
    4e34:	4601                	li	a2,0
    4e36:	4681                	li	a3,0
    4e38:	8556                	mv	a0,s5
    4e3a:	85a2                	mv	a1,s0
    4e3c:	210040ef          	jal	ra,904c <__eqdf2>
    4e40:	c511                	beqz	a0,4e4c <__cvt+0xa2>
    4e42:	4785                	li	a5,1
    4e44:	41278933          	sub	s2,a5,s2
    4e48:	012b2023          	sw	s2,0(s6)
    4e4c:	000b2783          	lw	a5,0(s6)
    4e50:	9a3e                	add	s4,s4,a5
    4e52:	4601                	li	a2,0
    4e54:	4681                	li	a3,0
    4e56:	8556                	mv	a0,s5
    4e58:	85a2                	mv	a1,s0
    4e5a:	1f2040ef          	jal	ra,904c <__eqdf2>
    4e5e:	e111                	bnez	a0,4e62 <__cvt+0xb8>
    4e60:	c652                	sw	s4,12(sp)
    4e62:	03000713          	li	a4,48
    4e66:	47b2                	lw	a5,12(sp)
    4e68:	0347e263          	bltu	a5,s4,4e8c <__cvt+0xe2>
    4e6c:	47b2                	lw	a5,12(sp)
    4e6e:	5742                	lw	a4,48(sp)
    4e70:	50b2                	lw	ra,44(sp)
    4e72:	5422                	lw	s0,40(sp)
    4e74:	413787b3          	sub	a5,a5,s3
    4e78:	c31c                	sw	a5,0(a4)
    4e7a:	854e                	mv	a0,s3
    4e7c:	5492                	lw	s1,36(sp)
    4e7e:	5902                	lw	s2,32(sp)
    4e80:	49f2                	lw	s3,28(sp)
    4e82:	4a62                	lw	s4,24(sp)
    4e84:	4ad2                	lw	s5,20(sp)
    4e86:	4b42                	lw	s6,16(sp)
    4e88:	6145                	addi	sp,sp,48
    4e8a:	8082                	ret
    4e8c:	00178693          	addi	a3,a5,1
    4e90:	c636                	sw	a3,12(sp)
    4e92:	00e78023          	sb	a4,0(a5)
    4e96:	bfc1                	j	4e66 <__cvt+0xbc>

00004e98 <__exponent>:
    4e98:	00c50023          	sb	a2,0(a0)
    4e9c:	00250713          	addi	a4,a0,2
    4ea0:	02b00793          	li	a5,43
    4ea4:	0005d663          	bgez	a1,4eb0 <__exponent+0x18>
    4ea8:	40b005b3          	neg	a1,a1
    4eac:	02d00793          	li	a5,45
    4eb0:	00f500a3          	sb	a5,1(a0)
    4eb4:	47a5                	li	a5,9
    4eb6:	04b7da63          	bge	a5,a1,4f0a <__exponent+0x72>
    4eba:	1141                	addi	sp,sp,-16
    4ebc:	00f10793          	addi	a5,sp,15
    4ec0:	88be                	mv	a7,a5
    4ec2:	4829                	li	a6,10
    4ec4:	06300313          	li	t1,99
    4ec8:	0305e6b3          	rem	a3,a1,a6
    4ecc:	fff78613          	addi	a2,a5,-1
    4ed0:	03068693          	addi	a3,a3,48
    4ed4:	fed78fa3          	sb	a3,-1(a5)
    4ed8:	0305c6b3          	div	a3,a1,a6
    4edc:	00b34d63          	blt	t1,a1,4ef6 <__exponent+0x5e>
    4ee0:	03068693          	addi	a3,a3,48
    4ee4:	17f9                	addi	a5,a5,-2
    4ee6:	fed60fa3          	sb	a3,-1(a2) # 7fffff <_data_lma+0x7f61fb>
    4eea:	0117e963          	bltu	a5,a7,4efc <__exponent+0x64>
    4eee:	40a70533          	sub	a0,a4,a0
    4ef2:	0141                	addi	sp,sp,16
    4ef4:	8082                	ret
    4ef6:	87b2                	mv	a5,a2
    4ef8:	85b6                	mv	a1,a3
    4efa:	b7f9                	j	4ec8 <__exponent+0x30>
    4efc:	0785                	addi	a5,a5,1
    4efe:	fff7c683          	lbu	a3,-1(a5)
    4f02:	0705                	addi	a4,a4,1
    4f04:	fed70fa3          	sb	a3,-1(a4) # 7fffffff <_eusrstack+0x5fff7fff>
    4f08:	b7cd                	j	4eea <__exponent+0x52>
    4f0a:	03000793          	li	a5,48
    4f0e:	00450713          	addi	a4,a0,4
    4f12:	03058593          	addi	a1,a1,48 # 80000030 <_eusrstack+0x5fff8030>
    4f16:	00f50123          	sb	a5,2(a0)
    4f1a:	00b501a3          	sb	a1,3(a0)
    4f1e:	40a70533          	sub	a0,a4,a0
    4f22:	8082                	ret

00004f24 <_printf_float>:
    4f24:	7119                	addi	sp,sp,-128
    4f26:	ce3a                	sw	a4,28(sp)
    4f28:	de86                	sw	ra,124(sp)
    4f2a:	dca2                	sw	s0,120(sp)
    4f2c:	daa6                	sw	s1,116(sp)
    4f2e:	842e                	mv	s0,a1
    4f30:	d8ca                	sw	s2,112(sp)
    4f32:	d6ce                	sw	s3,108(sp)
    4f34:	d4d2                	sw	s4,104(sp)
    4f36:	89b6                	mv	s3,a3
    4f38:	d0da                	sw	s6,96(sp)
    4f3a:	cede                	sw	s7,92(sp)
    4f3c:	cce2                	sw	s8,88(sp)
    4f3e:	8932                	mv	s2,a2
    4f40:	d2d6                	sw	s5,100(sp)
    4f42:	cae6                	sw	s9,84(sp)
    4f44:	c8ea                	sw	s10,80(sp)
    4f46:	c6ee                	sw	s11,76(sp)
    4f48:	84aa                	mv	s1,a0
    4f4a:	010030ef          	jal	ra,7f5a <_localeconv_r>
    4f4e:	00052b83          	lw	s7,0(a0)
    4f52:	855e                	mv	a0,s7
    4f54:	513000ef          	jal	ra,5c66 <strlen>
    4f58:	00042b03          	lw	s6,0(s0) # 4000000 <_data_lma+0x3ff61fc>
    4f5c:	4772                	lw	a4,28(sp)
    4f5e:	dc02                	sw	zero,56(sp)
    4f60:	100b7693          	andi	a3,s6,256
    4f64:	8c2a                	mv	s8,a0
    4f66:	01844a03          	lbu	s4,24(s0)
    4f6a:	431c                	lw	a5,0(a4)
    4f6c:	caf1                	beqz	a3,5040 <_printf_float+0x11c>
    4f6e:	00478693          	addi	a3,a5,4
    4f72:	c314                	sw	a3,0(a4)
    4f74:	439c                	lw	a5,0(a5)
    4f76:	1008                	addi	a0,sp,32
    4f78:	4398                	lw	a4,0(a5)
    4f7a:	d03a                	sw	a4,32(sp)
    4f7c:	43d8                	lw	a4,4(a5)
    4f7e:	d23a                	sw	a4,36(sp)
    4f80:	4798                	lw	a4,8(a5)
    4f82:	d43a                	sw	a4,40(sp)
    4f84:	47dc                	lw	a5,12(a5)
    4f86:	d63e                	sw	a5,44(sp)
    4f88:	59e040ef          	jal	ra,9526 <__trunctfdf2>
    4f8c:	c428                	sw	a0,72(s0)
    4f8e:	c46c                	sw	a1,76(s0)
    4f90:	04c42c83          	lw	s9,76(s0)
    4f94:	00005717          	auipc	a4,0x5
    4f98:	b0c70713          	addi	a4,a4,-1268 # 9aa0 <__clz_tab+0x104>
    4f9c:	04842a83          	lw	s5,72(s0)
    4fa0:	00072d03          	lw	s10,0(a4)
    4fa4:	00472d83          	lw	s11,4(a4)
    4fa8:	001c9793          	slli	a5,s9,0x1
    4fac:	8385                	srli	a5,a5,0x1
    4fae:	866a                	mv	a2,s10
    4fb0:	86ee                	mv	a3,s11
    4fb2:	8556                	mv	a0,s5
    4fb4:	85be                	mv	a1,a5
    4fb6:	ce3e                	sw	a5,28(sp)
    4fb8:	262040ef          	jal	ra,921a <__unorddf2>
    4fbc:	ed41                	bnez	a0,5054 <_printf_float+0x130>
    4fbe:	47f2                	lw	a5,28(sp)
    4fc0:	866a                	mv	a2,s10
    4fc2:	86ee                	mv	a3,s11
    4fc4:	8556                	mv	a0,s5
    4fc6:	85be                	mv	a1,a5
    4fc8:	19c040ef          	jal	ra,9164 <__ledf2>
    4fcc:	08a05463          	blez	a0,5054 <_printf_float+0x130>
    4fd0:	4601                	li	a2,0
    4fd2:	4681                	li	a3,0
    4fd4:	8556                	mv	a0,s5
    4fd6:	85e6                	mv	a1,s9
    4fd8:	18c040ef          	jal	ra,9164 <__ledf2>
    4fdc:	00055663          	bgez	a0,4fe8 <_printf_float+0xc4>
    4fe0:	02d00793          	li	a5,45
    4fe4:	04f401a3          	sb	a5,67(s0)
    4fe8:	04700793          	li	a5,71
    4fec:	00005a97          	auipc	s5,0x5
    4ff0:	abca8a93          	addi	s5,s5,-1348 # 9aa8 <__clz_tab+0x10c>
    4ff4:	0147f663          	bgeu	a5,s4,5000 <_printf_float+0xdc>
    4ff8:	00005a97          	auipc	s5,0x5
    4ffc:	ab4a8a93          	addi	s5,s5,-1356 # 9aac <__clz_tab+0x110>
    5000:	ffbb7b13          	andi	s6,s6,-5
    5004:	478d                	li	a5,3
    5006:	01642023          	sw	s6,0(s0)
    500a:	c81c                	sw	a5,16(s0)
    500c:	4b01                	li	s6,0
    500e:	874e                	mv	a4,s3
    5010:	86ca                	mv	a3,s2
    5012:	1870                	addi	a2,sp,60
    5014:	85a2                	mv	a1,s0
    5016:	8526                	mv	a0,s1
    5018:	26f1                	jal	53e4 <_printf_common>
    501a:	5cfd                	li	s9,-1
    501c:	15951c63          	bne	a0,s9,5174 <_printf_float+0x250>
    5020:	557d                	li	a0,-1
    5022:	50f6                	lw	ra,124(sp)
    5024:	5466                	lw	s0,120(sp)
    5026:	54d6                	lw	s1,116(sp)
    5028:	5946                	lw	s2,112(sp)
    502a:	59b6                	lw	s3,108(sp)
    502c:	5a26                	lw	s4,104(sp)
    502e:	5a96                	lw	s5,100(sp)
    5030:	5b06                	lw	s6,96(sp)
    5032:	4bf6                	lw	s7,92(sp)
    5034:	4c66                	lw	s8,88(sp)
    5036:	4cd6                	lw	s9,84(sp)
    5038:	4d46                	lw	s10,80(sp)
    503a:	4db6                	lw	s11,76(sp)
    503c:	6109                	addi	sp,sp,128
    503e:	8082                	ret
    5040:	079d                	addi	a5,a5,7
    5042:	9be1                	andi	a5,a5,-8
    5044:	00878693          	addi	a3,a5,8
    5048:	c314                	sw	a3,0(a4)
    504a:	4398                	lw	a4,0(a5)
    504c:	43dc                	lw	a5,4(a5)
    504e:	c438                	sw	a4,72(s0)
    5050:	c47c                	sw	a5,76(s0)
    5052:	bf3d                	j	4f90 <_printf_float+0x6c>
    5054:	8656                	mv	a2,s5
    5056:	86e6                	mv	a3,s9
    5058:	8556                	mv	a0,s5
    505a:	85e6                	mv	a1,s9
    505c:	1be040ef          	jal	ra,921a <__unorddf2>
    5060:	cd11                	beqz	a0,507c <_printf_float+0x158>
    5062:	04700793          	li	a5,71
    5066:	00005a97          	auipc	s5,0x5
    506a:	a4aa8a93          	addi	s5,s5,-1462 # 9ab0 <__clz_tab+0x114>
    506e:	f947f9e3          	bgeu	a5,s4,5000 <_printf_float+0xdc>
    5072:	00005a97          	auipc	s5,0x5
    5076:	a42a8a93          	addi	s5,s5,-1470 # 9ab4 <__clz_tab+0x118>
    507a:	b759                	j	5000 <_printf_float+0xdc>
    507c:	405c                	lw	a5,4(s0)
    507e:	577d                	li	a4,-1
    5080:	0dfa7d13          	andi	s10,s4,223
    5084:	08e79363          	bne	a5,a4,510a <_printf_float+0x1e6>
    5088:	4799                	li	a5,6
    508a:	c05c                	sw	a5,4(s0)
    508c:	4054                	lw	a3,4(s0)
    508e:	400b6713          	ori	a4,s6,1024
    5092:	183c                	addi	a5,sp,56
    5094:	85d6                	mv	a1,s5
    5096:	c03e                	sw	a5,0(sp)
    5098:	c018                	sw	a4,0(s0)
    509a:	03310793          	addi	a5,sp,51
    509e:	c202                	sw	zero,4(sp)
    50a0:	88d2                	mv	a7,s4
    50a2:	03410813          	addi	a6,sp,52
    50a6:	8666                	mv	a2,s9
    50a8:	8526                	mv	a0,s1
    50aa:	3301                	jal	4daa <__cvt>
    50ac:	04700793          	li	a5,71
    50b0:	8aaa                	mv	s5,a0
    50b2:	55d2                	lw	a1,52(sp)
    50b4:	00fd1b63          	bne	s10,a5,50ca <_printf_float+0x1a6>
    50b8:	57f5                	li	a5,-3
    50ba:	00f5c563          	blt	a1,a5,50c4 <_printf_float+0x1a0>
    50be:	405c                	lw	a5,4(s0)
    50c0:	08b7d763          	bge	a5,a1,514e <_printf_float+0x22a>
    50c4:	1a79                	addi	s4,s4,-2
    50c6:	0ffa7a13          	andi	s4,s4,255
    50ca:	06500793          	li	a5,101
    50ce:	0547e563          	bltu	a5,s4,5118 <_printf_float+0x1f4>
    50d2:	15fd                	addi	a1,a1,-1
    50d4:	8652                	mv	a2,s4
    50d6:	05040513          	addi	a0,s0,80
    50da:	da2e                	sw	a1,52(sp)
    50dc:	3b75                	jal	4e98 <__exponent>
    50de:	5762                	lw	a4,56(sp)
    50e0:	4685                	li	a3,1
    50e2:	8b2a                	mv	s6,a0
    50e4:	00a707b3          	add	a5,a4,a0
    50e8:	c81c                	sw	a5,16(s0)
    50ea:	00e6c563          	blt	a3,a4,50f4 <_printf_float+0x1d0>
    50ee:	4018                	lw	a4,0(s0)
    50f0:	8b05                	andi	a4,a4,1
    50f2:	c319                	beqz	a4,50f8 <_printf_float+0x1d4>
    50f4:	0785                	addi	a5,a5,1
    50f6:	c81c                	sw	a5,16(s0)
    50f8:	03314783          	lbu	a5,51(sp)
    50fc:	f00789e3          	beqz	a5,500e <_printf_float+0xea>
    5100:	02d00793          	li	a5,45
    5104:	04f401a3          	sb	a5,67(s0)
    5108:	b719                	j	500e <_printf_float+0xea>
    510a:	04700713          	li	a4,71
    510e:	f6ed1fe3          	bne	s10,a4,508c <_printf_float+0x168>
    5112:	ffad                	bnez	a5,508c <_printf_float+0x168>
    5114:	4785                	li	a5,1
    5116:	bf95                	j	508a <_printf_float+0x166>
    5118:	06600793          	li	a5,102
    511c:	02fa1b63          	bne	s4,a5,5152 <_printf_float+0x22e>
    5120:	405c                	lw	a5,4(s0)
    5122:	00b05b63          	blez	a1,5138 <_printf_float+0x214>
    5126:	c80c                	sw	a1,16(s0)
    5128:	e781                	bnez	a5,5130 <_printf_float+0x20c>
    512a:	4018                	lw	a4,0(s0)
    512c:	8b05                	andi	a4,a4,1
    512e:	cf09                	beqz	a4,5148 <_printf_float+0x224>
    5130:	0785                	addi	a5,a5,1
    5132:	97ae                	add	a5,a5,a1
    5134:	c81c                	sw	a5,16(s0)
    5136:	a809                	j	5148 <_printf_float+0x224>
    5138:	e789                	bnez	a5,5142 <_printf_float+0x21e>
    513a:	4018                	lw	a4,0(s0)
    513c:	4685                	li	a3,1
    513e:	8b05                	andi	a4,a4,1
    5140:	c319                	beqz	a4,5146 <_printf_float+0x222>
    5142:	00278693          	addi	a3,a5,2
    5146:	c814                	sw	a3,16(s0)
    5148:	cc2c                	sw	a1,88(s0)
    514a:	4b01                	li	s6,0
    514c:	b775                	j	50f8 <_printf_float+0x1d4>
    514e:	06700a13          	li	s4,103
    5152:	57e2                	lw	a5,56(sp)
    5154:	00f5c963          	blt	a1,a5,5166 <_printf_float+0x242>
    5158:	401c                	lw	a5,0(s0)
    515a:	c80c                	sw	a1,16(s0)
    515c:	8b85                	andi	a5,a5,1
    515e:	d7ed                	beqz	a5,5148 <_printf_float+0x224>
    5160:	00158793          	addi	a5,a1,1
    5164:	bfc1                	j	5134 <_printf_float+0x210>
    5166:	4705                	li	a4,1
    5168:	00b04463          	bgtz	a1,5170 <_printf_float+0x24c>
    516c:	4709                	li	a4,2
    516e:	8f0d                	sub	a4,a4,a1
    5170:	97ba                	add	a5,a5,a4
    5172:	b7c9                	j	5134 <_printf_float+0x210>
    5174:	401c                	lw	a5,0(s0)
    5176:	4007f713          	andi	a4,a5,1024
    517a:	e315                	bnez	a4,519e <_printf_float+0x27a>
    517c:	4814                	lw	a3,16(s0)
    517e:	8656                	mv	a2,s5
    5180:	85ca                	mv	a1,s2
    5182:	8526                	mv	a0,s1
    5184:	9982                	jalr	s3
    5186:	e9950de3          	beq	a0,s9,5020 <_printf_float+0xfc>
    518a:	401c                	lw	a5,0(s0)
    518c:	8b89                	andi	a5,a5,2
    518e:	24079663          	bnez	a5,53da <_printf_float+0x4b6>
    5192:	57f2                	lw	a5,60(sp)
    5194:	4448                	lw	a0,12(s0)
    5196:	e8f556e3          	bge	a0,a5,5022 <_printf_float+0xfe>
    519a:	853e                	mv	a0,a5
    519c:	b559                	j	5022 <_printf_float+0xfe>
    519e:	06500713          	li	a4,101
    51a2:	19477b63          	bgeu	a4,s4,5338 <_printf_float+0x414>
    51a6:	4428                	lw	a0,72(s0)
    51a8:	446c                	lw	a1,76(s0)
    51aa:	4601                	li	a2,0
    51ac:	4681                	li	a3,0
    51ae:	69f030ef          	jal	ra,904c <__eqdf2>
    51b2:	e939                	bnez	a0,5208 <_printf_float+0x2e4>
    51b4:	4685                	li	a3,1
    51b6:	00005617          	auipc	a2,0x5
    51ba:	90260613          	addi	a2,a2,-1790 # 9ab8 <__clz_tab+0x11c>
    51be:	85ca                	mv	a1,s2
    51c0:	8526                	mv	a0,s1
    51c2:	9982                	jalr	s3
    51c4:	e5950ee3          	beq	a0,s9,5020 <_printf_float+0xfc>
    51c8:	5752                	lw	a4,52(sp)
    51ca:	57e2                	lw	a5,56(sp)
    51cc:	00f74563          	blt	a4,a5,51d6 <_printf_float+0x2b2>
    51d0:	401c                	lw	a5,0(s0)
    51d2:	8b85                	andi	a5,a5,1
    51d4:	dbdd                	beqz	a5,518a <_printf_float+0x266>
    51d6:	86e2                	mv	a3,s8
    51d8:	865e                	mv	a2,s7
    51da:	85ca                	mv	a1,s2
    51dc:	8526                	mv	a0,s1
    51de:	9982                	jalr	s3
    51e0:	57fd                	li	a5,-1
    51e2:	e2f50fe3          	beq	a0,a5,5020 <_printf_float+0xfc>
    51e6:	4a01                	li	s4,0
    51e8:	01a40a93          	addi	s5,s0,26
    51ec:	5b7d                	li	s6,-1
    51ee:	57e2                	lw	a5,56(sp)
    51f0:	17fd                	addi	a5,a5,-1
    51f2:	f8fa5ce3          	bge	s4,a5,518a <_printf_float+0x266>
    51f6:	4685                	li	a3,1
    51f8:	8656                	mv	a2,s5
    51fa:	85ca                	mv	a1,s2
    51fc:	8526                	mv	a0,s1
    51fe:	9982                	jalr	s3
    5200:	e36500e3          	beq	a0,s6,5020 <_printf_float+0xfc>
    5204:	0a05                	addi	s4,s4,1
    5206:	b7e5                	j	51ee <_printf_float+0x2ca>
    5208:	57d2                	lw	a5,52(sp)
    520a:	06f04663          	bgtz	a5,5276 <_printf_float+0x352>
    520e:	4685                	li	a3,1
    5210:	00005617          	auipc	a2,0x5
    5214:	8a860613          	addi	a2,a2,-1880 # 9ab8 <__clz_tab+0x11c>
    5218:	85ca                	mv	a1,s2
    521a:	8526                	mv	a0,s1
    521c:	9982                	jalr	s3
    521e:	e19501e3          	beq	a0,s9,5020 <_printf_float+0xfc>
    5222:	57d2                	lw	a5,52(sp)
    5224:	5762                	lw	a4,56(sp)
    5226:	8fd9                	or	a5,a5,a4
    5228:	e781                	bnez	a5,5230 <_printf_float+0x30c>
    522a:	401c                	lw	a5,0(s0)
    522c:	8b85                	andi	a5,a5,1
    522e:	dfb1                	beqz	a5,518a <_printf_float+0x266>
    5230:	86e2                	mv	a3,s8
    5232:	865e                	mv	a2,s7
    5234:	85ca                	mv	a1,s2
    5236:	8526                	mv	a0,s1
    5238:	9982                	jalr	s3
    523a:	57fd                	li	a5,-1
    523c:	def502e3          	beq	a0,a5,5020 <_printf_float+0xfc>
    5240:	4a01                	li	s4,0
    5242:	01a40b13          	addi	s6,s0,26
    5246:	5bfd                	li	s7,-1
    5248:	57d2                	lw	a5,52(sp)
    524a:	40f007b3          	neg	a5,a5
    524e:	00fa4b63          	blt	s4,a5,5264 <_printf_float+0x340>
    5252:	56e2                	lw	a3,56(sp)
    5254:	8656                	mv	a2,s5
    5256:	85ca                	mv	a1,s2
    5258:	8526                	mv	a0,s1
    525a:	9982                	jalr	s3
    525c:	57fd                	li	a5,-1
    525e:	f2f516e3          	bne	a0,a5,518a <_printf_float+0x266>
    5262:	bb7d                	j	5020 <_printf_float+0xfc>
    5264:	4685                	li	a3,1
    5266:	865a                	mv	a2,s6
    5268:	85ca                	mv	a1,s2
    526a:	8526                	mv	a0,s1
    526c:	9982                	jalr	s3
    526e:	db7509e3          	beq	a0,s7,5020 <_printf_float+0xfc>
    5272:	0a05                	addi	s4,s4,1
    5274:	bfd1                	j	5248 <_printf_float+0x324>
    5276:	4c3c                	lw	a5,88(s0)
    5278:	5a62                	lw	s4,56(sp)
    527a:	0147d363          	bge	a5,s4,5280 <_printf_float+0x35c>
    527e:	8a3e                	mv	s4,a5
    5280:	01405a63          	blez	s4,5294 <_printf_float+0x370>
    5284:	86d2                	mv	a3,s4
    5286:	8656                	mv	a2,s5
    5288:	85ca                	mv	a1,s2
    528a:	8526                	mv	a0,s1
    528c:	9982                	jalr	s3
    528e:	57fd                	li	a5,-1
    5290:	d8f508e3          	beq	a0,a5,5020 <_printf_float+0xfc>
    5294:	4c81                	li	s9,0
    5296:	01a40d13          	addi	s10,s0,26
    529a:	5dfd                	li	s11,-1
    529c:	a809                	j	52ae <_printf_float+0x38a>
    529e:	4685                	li	a3,1
    52a0:	866a                	mv	a2,s10
    52a2:	85ca                	mv	a1,s2
    52a4:	8526                	mv	a0,s1
    52a6:	9982                	jalr	s3
    52a8:	d7b50ce3          	beq	a0,s11,5020 <_printf_float+0xfc>
    52ac:	0c85                	addi	s9,s9,1
    52ae:	05842b03          	lw	s6,88(s0)
    52b2:	87d2                	mv	a5,s4
    52b4:	000a5363          	bgez	s4,52ba <_printf_float+0x396>
    52b8:	4781                	li	a5,0
    52ba:	40fb07b3          	sub	a5,s6,a5
    52be:	fefcc0e3          	blt	s9,a5,529e <_printf_float+0x37a>
    52c2:	5752                	lw	a4,52(sp)
    52c4:	57e2                	lw	a5,56(sp)
    52c6:	02f74d63          	blt	a4,a5,5300 <_printf_float+0x3dc>
    52ca:	401c                	lw	a5,0(s0)
    52cc:	8b85                	andi	a5,a5,1
    52ce:	eb8d                	bnez	a5,5300 <_printf_float+0x3dc>
    52d0:	57e2                	lw	a5,56(sp)
    52d2:	5752                	lw	a4,52(sp)
    52d4:	40e78a33          	sub	s4,a5,a4
    52d8:	00eb4463          	blt	s6,a4,52e0 <_printf_float+0x3bc>
    52dc:	41678a33          	sub	s4,a5,s6
    52e0:	01405b63          	blez	s4,52f6 <_printf_float+0x3d2>
    52e4:	86d2                	mv	a3,s4
    52e6:	016a8633          	add	a2,s5,s6
    52ea:	85ca                	mv	a1,s2
    52ec:	8526                	mv	a0,s1
    52ee:	9982                	jalr	s3
    52f0:	57fd                	li	a5,-1
    52f2:	d2f507e3          	beq	a0,a5,5020 <_printf_float+0xfc>
    52f6:	4a81                	li	s5,0
    52f8:	01a40b13          	addi	s6,s0,26
    52fc:	5bfd                	li	s7,-1
    52fe:	a015                	j	5322 <_printf_float+0x3fe>
    5300:	86e2                	mv	a3,s8
    5302:	865e                	mv	a2,s7
    5304:	85ca                	mv	a1,s2
    5306:	8526                	mv	a0,s1
    5308:	9982                	jalr	s3
    530a:	57fd                	li	a5,-1
    530c:	fcf512e3          	bne	a0,a5,52d0 <_printf_float+0x3ac>
    5310:	bb01                	j	5020 <_printf_float+0xfc>
    5312:	4685                	li	a3,1
    5314:	865a                	mv	a2,s6
    5316:	85ca                	mv	a1,s2
    5318:	8526                	mv	a0,s1
    531a:	9982                	jalr	s3
    531c:	d17502e3          	beq	a0,s7,5020 <_printf_float+0xfc>
    5320:	0a85                	addi	s5,s5,1
    5322:	5752                	lw	a4,52(sp)
    5324:	57e2                	lw	a5,56(sp)
    5326:	8f99                	sub	a5,a5,a4
    5328:	8752                	mv	a4,s4
    532a:	000a5363          	bgez	s4,5330 <_printf_float+0x40c>
    532e:	4701                	li	a4,0
    5330:	8f99                	sub	a5,a5,a4
    5332:	fefac0e3          	blt	s5,a5,5312 <_printf_float+0x3ee>
    5336:	bd91                	j	518a <_printf_float+0x266>
    5338:	56e2                	lw	a3,56(sp)
    533a:	4705                	li	a4,1
    533c:	00d74463          	blt	a4,a3,5344 <_printf_float+0x420>
    5340:	8b85                	andi	a5,a5,1
    5342:	c7b5                	beqz	a5,53ae <_printf_float+0x48a>
    5344:	4685                	li	a3,1
    5346:	8656                	mv	a2,s5
    5348:	85ca                	mv	a1,s2
    534a:	8526                	mv	a0,s1
    534c:	9982                	jalr	s3
    534e:	5a7d                	li	s4,-1
    5350:	cd4508e3          	beq	a0,s4,5020 <_printf_float+0xfc>
    5354:	86e2                	mv	a3,s8
    5356:	865e                	mv	a2,s7
    5358:	85ca                	mv	a1,s2
    535a:	8526                	mv	a0,s1
    535c:	9982                	jalr	s3
    535e:	cd4501e3          	beq	a0,s4,5020 <_printf_float+0xfc>
    5362:	4428                	lw	a0,72(s0)
    5364:	446c                	lw	a1,76(s0)
    5366:	4601                	li	a2,0
    5368:	4681                	li	a3,0
    536a:	4e3030ef          	jal	ra,904c <__eqdf2>
    536e:	c91d                	beqz	a0,53a4 <_printf_float+0x480>
    5370:	56e2                	lw	a3,56(sp)
    5372:	001a8613          	addi	a2,s5,1
    5376:	85ca                	mv	a1,s2
    5378:	16fd                	addi	a3,a3,-1
    537a:	8526                	mv	a0,s1
    537c:	9982                	jalr	s3
    537e:	cb4501e3          	beq	a0,s4,5020 <_printf_float+0xfc>
    5382:	86da                	mv	a3,s6
    5384:	05040613          	addi	a2,s0,80
    5388:	b5f9                	j	5256 <_printf_float+0x332>
    538a:	4685                	li	a3,1
    538c:	8656                	mv	a2,s5
    538e:	85ca                	mv	a1,s2
    5390:	8526                	mv	a0,s1
    5392:	9982                	jalr	s3
    5394:	c97506e3          	beq	a0,s7,5020 <_printf_float+0xfc>
    5398:	0a05                	addi	s4,s4,1
    539a:	57e2                	lw	a5,56(sp)
    539c:	17fd                	addi	a5,a5,-1
    539e:	fefa46e3          	blt	s4,a5,538a <_printf_float+0x466>
    53a2:	b7c5                	j	5382 <_printf_float+0x45e>
    53a4:	4a01                	li	s4,0
    53a6:	01a40a93          	addi	s5,s0,26
    53aa:	5bfd                	li	s7,-1
    53ac:	b7fd                	j	539a <_printf_float+0x476>
    53ae:	4685                	li	a3,1
    53b0:	8656                	mv	a2,s5
    53b2:	85ca                	mv	a1,s2
    53b4:	8526                	mv	a0,s1
    53b6:	9982                	jalr	s3
    53b8:	fd9515e3          	bne	a0,s9,5382 <_printf_float+0x45e>
    53bc:	b195                	j	5020 <_printf_float+0xfc>
    53be:	4685                	li	a3,1
    53c0:	8656                	mv	a2,s5
    53c2:	85ca                	mv	a1,s2
    53c4:	8526                	mv	a0,s1
    53c6:	9982                	jalr	s3
    53c8:	c5650ce3          	beq	a0,s6,5020 <_printf_float+0xfc>
    53cc:	0a05                	addi	s4,s4,1
    53ce:	445c                	lw	a5,12(s0)
    53d0:	5772                	lw	a4,60(sp)
    53d2:	8f99                	sub	a5,a5,a4
    53d4:	fefa45e3          	blt	s4,a5,53be <_printf_float+0x49a>
    53d8:	bb6d                	j	5192 <_printf_float+0x26e>
    53da:	4a01                	li	s4,0
    53dc:	01940a93          	addi	s5,s0,25
    53e0:	5b7d                	li	s6,-1
    53e2:	b7f5                	j	53ce <_printf_float+0x4aa>

000053e4 <_printf_common>:
    53e4:	7179                	addi	sp,sp,-48
    53e6:	ca56                	sw	s5,20(sp)
    53e8:	499c                	lw	a5,16(a1)
    53ea:	8aba                	mv	s5,a4
    53ec:	4598                	lw	a4,8(a1)
    53ee:	d422                	sw	s0,40(sp)
    53f0:	d226                	sw	s1,36(sp)
    53f2:	ce4e                	sw	s3,28(sp)
    53f4:	cc52                	sw	s4,24(sp)
    53f6:	d606                	sw	ra,44(sp)
    53f8:	d04a                	sw	s2,32(sp)
    53fa:	c85a                	sw	s6,16(sp)
    53fc:	c65e                	sw	s7,12(sp)
    53fe:	89aa                	mv	s3,a0
    5400:	842e                	mv	s0,a1
    5402:	84b2                	mv	s1,a2
    5404:	8a36                	mv	s4,a3
    5406:	00e7d363          	bge	a5,a4,540c <_printf_common+0x28>
    540a:	87ba                	mv	a5,a4
    540c:	c09c                	sw	a5,0(s1)
    540e:	04344703          	lbu	a4,67(s0)
    5412:	c319                	beqz	a4,5418 <_printf_common+0x34>
    5414:	0785                	addi	a5,a5,1
    5416:	c09c                	sw	a5,0(s1)
    5418:	401c                	lw	a5,0(s0)
    541a:	0207f793          	andi	a5,a5,32
    541e:	c781                	beqz	a5,5426 <_printf_common+0x42>
    5420:	409c                	lw	a5,0(s1)
    5422:	0789                	addi	a5,a5,2
    5424:	c09c                	sw	a5,0(s1)
    5426:	00042903          	lw	s2,0(s0)
    542a:	00697913          	andi	s2,s2,6
    542e:	00091a63          	bnez	s2,5442 <_printf_common+0x5e>
    5432:	01940b13          	addi	s6,s0,25
    5436:	5bfd                	li	s7,-1
    5438:	445c                	lw	a5,12(s0)
    543a:	4098                	lw	a4,0(s1)
    543c:	8f99                	sub	a5,a5,a4
    543e:	04f94c63          	blt	s2,a5,5496 <_printf_common+0xb2>
    5442:	401c                	lw	a5,0(s0)
    5444:	04344683          	lbu	a3,67(s0)
    5448:	0207f793          	andi	a5,a5,32
    544c:	00d036b3          	snez	a3,a3
    5450:	eba5                	bnez	a5,54c0 <_printf_common+0xdc>
    5452:	04340613          	addi	a2,s0,67
    5456:	85d2                	mv	a1,s4
    5458:	854e                	mv	a0,s3
    545a:	9a82                	jalr	s5
    545c:	57fd                	li	a5,-1
    545e:	04f50363          	beq	a0,a5,54a4 <_printf_common+0xc0>
    5462:	401c                	lw	a5,0(s0)
    5464:	4611                	li	a2,4
    5466:	4098                	lw	a4,0(s1)
    5468:	8b99                	andi	a5,a5,6
    546a:	4454                	lw	a3,12(s0)
    546c:	4481                	li	s1,0
    546e:	00c79763          	bne	a5,a2,547c <_printf_common+0x98>
    5472:	40e684b3          	sub	s1,a3,a4
    5476:	0004d363          	bgez	s1,547c <_printf_common+0x98>
    547a:	4481                	li	s1,0
    547c:	441c                	lw	a5,8(s0)
    547e:	4818                	lw	a4,16(s0)
    5480:	00f75463          	bge	a4,a5,5488 <_printf_common+0xa4>
    5484:	8f99                	sub	a5,a5,a4
    5486:	94be                	add	s1,s1,a5
    5488:	4901                	li	s2,0
    548a:	0469                	addi	s0,s0,26
    548c:	5b7d                	li	s6,-1
    548e:	05249863          	bne	s1,s2,54de <_printf_common+0xfa>
    5492:	4501                	li	a0,0
    5494:	a809                	j	54a6 <_printf_common+0xc2>
    5496:	4685                	li	a3,1
    5498:	865a                	mv	a2,s6
    549a:	85d2                	mv	a1,s4
    549c:	854e                	mv	a0,s3
    549e:	9a82                	jalr	s5
    54a0:	01751e63          	bne	a0,s7,54bc <_printf_common+0xd8>
    54a4:	557d                	li	a0,-1
    54a6:	50b2                	lw	ra,44(sp)
    54a8:	5422                	lw	s0,40(sp)
    54aa:	5492                	lw	s1,36(sp)
    54ac:	5902                	lw	s2,32(sp)
    54ae:	49f2                	lw	s3,28(sp)
    54b0:	4a62                	lw	s4,24(sp)
    54b2:	4ad2                	lw	s5,20(sp)
    54b4:	4b42                	lw	s6,16(sp)
    54b6:	4bb2                	lw	s7,12(sp)
    54b8:	6145                	addi	sp,sp,48
    54ba:	8082                	ret
    54bc:	0905                	addi	s2,s2,1
    54be:	bfad                	j	5438 <_printf_common+0x54>
    54c0:	00d40733          	add	a4,s0,a3
    54c4:	03000613          	li	a2,48
    54c8:	04c701a3          	sb	a2,67(a4)
    54cc:	04544703          	lbu	a4,69(s0)
    54d0:	00168793          	addi	a5,a3,1
    54d4:	97a2                	add	a5,a5,s0
    54d6:	0689                	addi	a3,a3,2
    54d8:	04e781a3          	sb	a4,67(a5)
    54dc:	bf9d                	j	5452 <_printf_common+0x6e>
    54de:	4685                	li	a3,1
    54e0:	8622                	mv	a2,s0
    54e2:	85d2                	mv	a1,s4
    54e4:	854e                	mv	a0,s3
    54e6:	9a82                	jalr	s5
    54e8:	fb650ee3          	beq	a0,s6,54a4 <_printf_common+0xc0>
    54ec:	0905                	addi	s2,s2,1
    54ee:	b745                	j	548e <_printf_common+0xaa>

000054f0 <_printf_i>:
    54f0:	7179                	addi	sp,sp,-48
    54f2:	d422                	sw	s0,40(sp)
    54f4:	d226                	sw	s1,36(sp)
    54f6:	d04a                	sw	s2,32(sp)
    54f8:	ce4e                	sw	s3,28(sp)
    54fa:	d606                	sw	ra,44(sp)
    54fc:	cc52                	sw	s4,24(sp)
    54fe:	ca56                	sw	s5,20(sp)
    5500:	c85a                	sw	s6,16(sp)
    5502:	89b6                	mv	s3,a3
    5504:	0185c683          	lbu	a3,24(a1)
    5508:	06900793          	li	a5,105
    550c:	8932                	mv	s2,a2
    550e:	84aa                	mv	s1,a0
    5510:	842e                	mv	s0,a1
    5512:	04358613          	addi	a2,a1,67
    5516:	02f68d63          	beq	a3,a5,5550 <_printf_i+0x60>
    551a:	06d7e263          	bltu	a5,a3,557e <_printf_i+0x8e>
    551e:	05800793          	li	a5,88
    5522:	18f68863          	beq	a3,a5,56b2 <_printf_i+0x1c2>
    5526:	00d7ed63          	bltu	a5,a3,5540 <_printf_i+0x50>
    552a:	22068163          	beqz	a3,574c <_printf_i+0x25c>
    552e:	04300793          	li	a5,67
    5532:	0af68f63          	beq	a3,a5,55f0 <_printf_i+0x100>
    5536:	04240a93          	addi	s5,s0,66
    553a:	04d40123          	sb	a3,66(s0)
    553e:	a0d1                	j	5602 <_printf_i+0x112>
    5540:	06300793          	li	a5,99
    5544:	0af68663          	beq	a3,a5,55f0 <_printf_i+0x100>
    5548:	06400793          	li	a5,100
    554c:	fef695e3          	bne	a3,a5,5536 <_printf_i+0x46>
    5550:	401c                	lw	a5,0(s0)
    5552:	4308                	lw	a0,0(a4)
    5554:	0807f693          	andi	a3,a5,128
    5558:	00450593          	addi	a1,a0,4
    555c:	c6cd                	beqz	a3,5606 <_printf_i+0x116>
    555e:	411c                	lw	a5,0(a0)
    5560:	c30c                	sw	a1,0(a4)
    5562:	0007d863          	bgez	a5,5572 <_printf_i+0x82>
    5566:	02d00713          	li	a4,45
    556a:	40f007b3          	neg	a5,a5
    556e:	04e401a3          	sb	a4,67(s0)
    5572:	00004697          	auipc	a3,0x4
    5576:	54a68693          	addi	a3,a3,1354 # 9abc <__clz_tab+0x120>
    557a:	4729                	li	a4,10
    557c:	a875                	j	5638 <_printf_i+0x148>
    557e:	07000793          	li	a5,112
    5582:	16f68463          	beq	a3,a5,56ea <_printf_i+0x1fa>
    5586:	02d7e563          	bltu	a5,a3,55b0 <_printf_i+0xc0>
    558a:	06e00793          	li	a5,110
    558e:	18f68b63          	beq	a3,a5,5724 <_printf_i+0x234>
    5592:	06f00793          	li	a5,111
    5596:	faf690e3          	bne	a3,a5,5536 <_printf_i+0x46>
    559a:	400c                	lw	a1,0(s0)
    559c:	431c                	lw	a5,0(a4)
    559e:	0805f813          	andi	a6,a1,128
    55a2:	00478513          	addi	a0,a5,4
    55a6:	06080863          	beqz	a6,5616 <_printf_i+0x126>
    55aa:	c308                	sw	a0,0(a4)
    55ac:	439c                	lw	a5,0(a5)
    55ae:	a895                	j	5622 <_printf_i+0x132>
    55b0:	07500793          	li	a5,117
    55b4:	fef683e3          	beq	a3,a5,559a <_printf_i+0xaa>
    55b8:	07800793          	li	a5,120
    55bc:	12f68b63          	beq	a3,a5,56f2 <_printf_i+0x202>
    55c0:	07300793          	li	a5,115
    55c4:	f6f699e3          	bne	a3,a5,5536 <_printf_i+0x46>
    55c8:	431c                	lw	a5,0(a4)
    55ca:	41d0                	lw	a2,4(a1)
    55cc:	4581                	li	a1,0
    55ce:	00478693          	addi	a3,a5,4
    55d2:	c314                	sw	a3,0(a4)
    55d4:	0007aa83          	lw	s5,0(a5)
    55d8:	8556                	mv	a0,s5
    55da:	1e7020ef          	jal	ra,7fc0 <memchr>
    55de:	c501                	beqz	a0,55e6 <_printf_i+0xf6>
    55e0:	41550533          	sub	a0,a0,s5
    55e4:	c048                	sw	a0,4(s0)
    55e6:	405c                	lw	a5,4(s0)
    55e8:	c81c                	sw	a5,16(s0)
    55ea:	040401a3          	sb	zero,67(s0)
    55ee:	a871                	j	568a <_printf_i+0x19a>
    55f0:	431c                	lw	a5,0(a4)
    55f2:	04240a93          	addi	s5,s0,66
    55f6:	00478693          	addi	a3,a5,4
    55fa:	439c                	lw	a5,0(a5)
    55fc:	c314                	sw	a3,0(a4)
    55fe:	04f40123          	sb	a5,66(s0)
    5602:	4785                	li	a5,1
    5604:	b7d5                	j	55e8 <_printf_i+0xf8>
    5606:	0407f693          	andi	a3,a5,64
    560a:	411c                	lw	a5,0(a0)
    560c:	c30c                	sw	a1,0(a4)
    560e:	dab1                	beqz	a3,5562 <_printf_i+0x72>
    5610:	07c2                	slli	a5,a5,0x10
    5612:	87c1                	srai	a5,a5,0x10
    5614:	b7b9                	j	5562 <_printf_i+0x72>
    5616:	0405f593          	andi	a1,a1,64
    561a:	c308                	sw	a0,0(a4)
    561c:	d9c1                	beqz	a1,55ac <_printf_i+0xbc>
    561e:	0007d783          	lhu	a5,0(a5)
    5622:	06f00713          	li	a4,111
    5626:	0ee68763          	beq	a3,a4,5714 <_printf_i+0x224>
    562a:	00004697          	auipc	a3,0x4
    562e:	49268693          	addi	a3,a3,1170 # 9abc <__clz_tab+0x120>
    5632:	4729                	li	a4,10
    5634:	040401a3          	sb	zero,67(s0)
    5638:	404c                	lw	a1,4(s0)
    563a:	c40c                	sw	a1,8(s0)
    563c:	0005c563          	bltz	a1,5646 <_printf_i+0x156>
    5640:	4008                	lw	a0,0(s0)
    5642:	996d                	andi	a0,a0,-5
    5644:	c008                	sw	a0,0(s0)
    5646:	e399                	bnez	a5,564c <_printf_i+0x15c>
    5648:	8ab2                	mv	s5,a2
    564a:	cd91                	beqz	a1,5666 <_printf_i+0x176>
    564c:	8ab2                	mv	s5,a2
    564e:	02e7f5b3          	remu	a1,a5,a4
    5652:	1afd                	addi	s5,s5,-1
    5654:	95b6                	add	a1,a1,a3
    5656:	0005c583          	lbu	a1,0(a1)
    565a:	00ba8023          	sb	a1,0(s5)
    565e:	02e7d5b3          	divu	a1,a5,a4
    5662:	0ae7ff63          	bgeu	a5,a4,5720 <_printf_i+0x230>
    5666:	47a1                	li	a5,8
    5668:	00f71e63          	bne	a4,a5,5684 <_printf_i+0x194>
    566c:	401c                	lw	a5,0(s0)
    566e:	8b85                	andi	a5,a5,1
    5670:	cb91                	beqz	a5,5684 <_printf_i+0x194>
    5672:	4058                	lw	a4,4(s0)
    5674:	481c                	lw	a5,16(s0)
    5676:	00e7c763          	blt	a5,a4,5684 <_printf_i+0x194>
    567a:	03000793          	li	a5,48
    567e:	fefa8fa3          	sb	a5,-1(s5)
    5682:	1afd                	addi	s5,s5,-1
    5684:	41560633          	sub	a2,a2,s5
    5688:	c810                	sw	a2,16(s0)
    568a:	874e                	mv	a4,s3
    568c:	86ca                	mv	a3,s2
    568e:	0070                	addi	a2,sp,12
    5690:	85a2                	mv	a1,s0
    5692:	8526                	mv	a0,s1
    5694:	3b81                	jal	53e4 <_printf_common>
    5696:	5a7d                	li	s4,-1
    5698:	0b451e63          	bne	a0,s4,5754 <_printf_i+0x264>
    569c:	557d                	li	a0,-1
    569e:	50b2                	lw	ra,44(sp)
    56a0:	5422                	lw	s0,40(sp)
    56a2:	5492                	lw	s1,36(sp)
    56a4:	5902                	lw	s2,32(sp)
    56a6:	49f2                	lw	s3,28(sp)
    56a8:	4a62                	lw	s4,24(sp)
    56aa:	4ad2                	lw	s5,20(sp)
    56ac:	4b42                	lw	s6,16(sp)
    56ae:	6145                	addi	sp,sp,48
    56b0:	8082                	ret
    56b2:	04d582a3          	sb	a3,69(a1)
    56b6:	00004697          	auipc	a3,0x4
    56ba:	40668693          	addi	a3,a3,1030 # 9abc <__clz_tab+0x120>
    56be:	400c                	lw	a1,0(s0)
    56c0:	4308                	lw	a0,0(a4)
    56c2:	0805f813          	andi	a6,a1,128
    56c6:	411c                	lw	a5,0(a0)
    56c8:	0511                	addi	a0,a0,4
    56ca:	02080d63          	beqz	a6,5704 <_printf_i+0x214>
    56ce:	c308                	sw	a0,0(a4)
    56d0:	0015f713          	andi	a4,a1,1
    56d4:	c701                	beqz	a4,56dc <_printf_i+0x1ec>
    56d6:	0205e593          	ori	a1,a1,32
    56da:	c00c                	sw	a1,0(s0)
    56dc:	4741                	li	a4,16
    56de:	fbb9                	bnez	a5,5634 <_printf_i+0x144>
    56e0:	400c                	lw	a1,0(s0)
    56e2:	fdf5f593          	andi	a1,a1,-33
    56e6:	c00c                	sw	a1,0(s0)
    56e8:	b7b1                	j	5634 <_printf_i+0x144>
    56ea:	419c                	lw	a5,0(a1)
    56ec:	0207e793          	ori	a5,a5,32
    56f0:	c19c                	sw	a5,0(a1)
    56f2:	07800793          	li	a5,120
    56f6:	04f402a3          	sb	a5,69(s0)
    56fa:	00004697          	auipc	a3,0x4
    56fe:	3d668693          	addi	a3,a3,982 # 9ad0 <__clz_tab+0x134>
    5702:	bf75                	j	56be <_printf_i+0x1ce>
    5704:	0405f813          	andi	a6,a1,64
    5708:	c308                	sw	a0,0(a4)
    570a:	fc0803e3          	beqz	a6,56d0 <_printf_i+0x1e0>
    570e:	07c2                	slli	a5,a5,0x10
    5710:	83c1                	srli	a5,a5,0x10
    5712:	bf7d                	j	56d0 <_printf_i+0x1e0>
    5714:	00004697          	auipc	a3,0x4
    5718:	3a868693          	addi	a3,a3,936 # 9abc <__clz_tab+0x120>
    571c:	4721                	li	a4,8
    571e:	bf19                	j	5634 <_printf_i+0x144>
    5720:	87ae                	mv	a5,a1
    5722:	b735                	j	564e <_printf_i+0x15e>
    5724:	4194                	lw	a3,0(a1)
    5726:	431c                	lw	a5,0(a4)
    5728:	49cc                	lw	a1,20(a1)
    572a:	0806f813          	andi	a6,a3,128
    572e:	00478513          	addi	a0,a5,4
    5732:	00080663          	beqz	a6,573e <_printf_i+0x24e>
    5736:	c308                	sw	a0,0(a4)
    5738:	439c                	lw	a5,0(a5)
    573a:	c38c                	sw	a1,0(a5)
    573c:	a801                	j	574c <_printf_i+0x25c>
    573e:	c308                	sw	a0,0(a4)
    5740:	0406f693          	andi	a3,a3,64
    5744:	439c                	lw	a5,0(a5)
    5746:	daf5                	beqz	a3,573a <_printf_i+0x24a>
    5748:	00b79023          	sh	a1,0(a5)
    574c:	00042823          	sw	zero,16(s0)
    5750:	8ab2                	mv	s5,a2
    5752:	bf25                	j	568a <_printf_i+0x19a>
    5754:	4814                	lw	a3,16(s0)
    5756:	8656                	mv	a2,s5
    5758:	85ca                	mv	a1,s2
    575a:	8526                	mv	a0,s1
    575c:	9982                	jalr	s3
    575e:	f3450fe3          	beq	a0,s4,569c <_printf_i+0x1ac>
    5762:	401c                	lw	a5,0(s0)
    5764:	8b89                	andi	a5,a5,2
    5766:	e78d                	bnez	a5,5790 <_printf_i+0x2a0>
    5768:	47b2                	lw	a5,12(sp)
    576a:	4448                	lw	a0,12(s0)
    576c:	f2f559e3          	bge	a0,a5,569e <_printf_i+0x1ae>
    5770:	853e                	mv	a0,a5
    5772:	b735                	j	569e <_printf_i+0x1ae>
    5774:	4685                	li	a3,1
    5776:	8656                	mv	a2,s5
    5778:	85ca                	mv	a1,s2
    577a:	8526                	mv	a0,s1
    577c:	9982                	jalr	s3
    577e:	f1650fe3          	beq	a0,s6,569c <_printf_i+0x1ac>
    5782:	0a05                	addi	s4,s4,1
    5784:	445c                	lw	a5,12(s0)
    5786:	4732                	lw	a4,12(sp)
    5788:	8f99                	sub	a5,a5,a4
    578a:	fefa45e3          	blt	s4,a5,5774 <_printf_i+0x284>
    578e:	bfe9                	j	5768 <_printf_i+0x278>
    5790:	4a01                	li	s4,0
    5792:	01940a93          	addi	s5,s0,25
    5796:	5b7d                	li	s6,-1
    5798:	b7f5                	j	5784 <_printf_i+0x294>

0000579a <_scanf_float>:
    579a:	459c                	lw	a5,8(a1)
    579c:	711d                	addi	sp,sp,-96
    579e:	cca2                	sw	s0,88(sp)
    57a0:	c6ce                	sw	s3,76(sp)
    57a2:	c0da                	sw	s6,64(sp)
    57a4:	da66                	sw	s9,52(sp)
    57a6:	ce86                	sw	ra,92(sp)
    57a8:	8cb2                	mv	s9,a2
    57aa:	caa6                	sw	s1,84(sp)
    57ac:	c8ca                	sw	s2,80(sp)
    57ae:	c4d2                	sw	s4,72(sp)
    57b0:	c2d6                	sw	s5,68(sp)
    57b2:	de5e                	sw	s7,60(sp)
    57b4:	dc62                	sw	s8,56(sp)
    57b6:	d86a                	sw	s10,48(sp)
    57b8:	d66e                	sw	s11,44(sp)
    57ba:	fff78613          	addi	a2,a5,-1
    57be:	15c00713          	li	a4,348
    57c2:	8b36                	mv	s6,a3
    57c4:	89aa                	mv	s3,a0
    57c6:	842e                	mv	s0,a1
    57c8:	4681                	li	a3,0
    57ca:	00c77763          	bgeu	a4,a2,57d8 <_scanf_float+0x3e>
    57ce:	ea378693          	addi	a3,a5,-349
    57d2:	15d00793          	li	a5,349
    57d6:	c59c                	sw	a5,8(a1)
    57d8:	401c                	lw	a5,0(s0)
    57da:	01c40a93          	addi	s5,s0,28
    57de:	84d6                	mv	s1,s5
    57e0:	7807e793          	ori	a5,a5,1920
    57e4:	c01c                	sw	a5,0(s0)
    57e6:	4901                	li	s2,0
    57e8:	4d81                	li	s11,0
    57ea:	4c01                	li	s8,0
    57ec:	4a01                	li	s4,0
    57ee:	4d01                	li	s10,0
    57f0:	4b81                	li	s7,0
    57f2:	04900613          	li	a2,73
    57f6:	70000813          	li	a6,1792
    57fa:	4885                	li	a7,1
    57fc:	40000e93          	li	t4,1024
    5800:	4309                	li	t1,2
    5802:	06500e13          	li	t3,101
    5806:	4f1d                	li	t5,7
    5808:	4418                	lw	a4,8(s0)
    580a:	cb1d                	beqz	a4,5840 <_scanf_float+0xa6>
    580c:	000ca783          	lw	a5,0(s9)
    5810:	0007c783          	lbu	a5,0(a5)
    5814:	12c78b63          	beq	a5,a2,594a <_scanf_float+0x1b0>
    5818:	0cf66863          	bltu	a2,a5,58e8 <_scanf_float+0x14e>
    581c:	03900593          	li	a1,57
    5820:	0af5e463          	bltu	a1,a5,58c8 <_scanf_float+0x12e>
    5824:	03100593          	li	a1,49
    5828:	14b7fb63          	bgeu	a5,a1,597e <_scanf_float+0x1e4>
    582c:	02d00593          	li	a1,45
    5830:	16b78363          	beq	a5,a1,5996 <_scanf_float+0x1fc>
    5834:	04f5e363          	bltu	a1,a5,587a <_scanf_float+0xe0>
    5838:	02b00713          	li	a4,43
    583c:	14e78d63          	beq	a5,a4,5996 <_scanf_float+0x1fc>
    5840:	000d0663          	beqz	s10,584c <_scanf_float+0xb2>
    5844:	401c                	lw	a5,0(s0)
    5846:	eff7f793          	andi	a5,a5,-257
    584a:	c01c                	sw	a5,0(s0)
    584c:	1dfd                	addi	s11,s11,-1
    584e:	4785                	li	a5,1
    5850:	21b7eb63          	bltu	a5,s11,5a66 <_scanf_float+0x2cc>
    5854:	1e9aed63          	bltu	s5,s1,5a4e <_scanf_float+0x2b4>
    5858:	4905                	li	s2,1
    585a:	40f6                	lw	ra,92(sp)
    585c:	4466                	lw	s0,88(sp)
    585e:	854a                	mv	a0,s2
    5860:	44d6                	lw	s1,84(sp)
    5862:	4946                	lw	s2,80(sp)
    5864:	49b6                	lw	s3,76(sp)
    5866:	4a26                	lw	s4,72(sp)
    5868:	4a96                	lw	s5,68(sp)
    586a:	4b06                	lw	s6,64(sp)
    586c:	5bf2                	lw	s7,60(sp)
    586e:	5c62                	lw	s8,56(sp)
    5870:	5cd2                	lw	s9,52(sp)
    5872:	5d42                	lw	s10,48(sp)
    5874:	5db2                	lw	s11,44(sp)
    5876:	6125                	addi	sp,sp,96
    5878:	8082                	ret
    587a:	02e00593          	li	a1,46
    587e:	14b78f63          	beq	a5,a1,59dc <_scanf_float+0x242>
    5882:	03000593          	li	a1,48
    5886:	fab79de3          	bne	a5,a1,5840 <_scanf_float+0xa6>
    588a:	400c                	lw	a1,0(s0)
    588c:	1005f513          	andi	a0,a1,256
    5890:	c57d                	beqz	a0,597e <_scanf_float+0x1e4>
    5892:	f7f5f593          	andi	a1,a1,-129
    5896:	c00c                	sw	a1,0(s0)
    5898:	0d05                	addi	s10,s10,1
    589a:	c681                	beqz	a3,58a2 <_scanf_float+0x108>
    589c:	0705                	addi	a4,a4,1
    589e:	16fd                	addi	a3,a3,-1
    58a0:	c418                	sw	a4,8(s0)
    58a2:	441c                	lw	a5,8(s0)
    58a4:	17fd                	addi	a5,a5,-1
    58a6:	c41c                	sw	a5,8(s0)
    58a8:	481c                	lw	a5,16(s0)
    58aa:	0785                	addi	a5,a5,1
    58ac:	c81c                	sw	a5,16(s0)
    58ae:	004ca783          	lw	a5,4(s9)
    58b2:	17fd                	addi	a5,a5,-1
    58b4:	00fca223          	sw	a5,4(s9)
    58b8:	16f05663          	blez	a5,5a24 <_scanf_float+0x28a>
    58bc:	000ca783          	lw	a5,0(s9)
    58c0:	0785                	addi	a5,a5,1
    58c2:	00fca023          	sw	a5,0(s9)
    58c6:	b789                	j	5808 <_scanf_float+0x6e>
    58c8:	04500713          	li	a4,69
    58cc:	12e78263          	beq	a5,a4,59f0 <_scanf_float+0x256>
    58d0:	04600713          	li	a4,70
    58d4:	0ee78b63          	beq	a5,a4,59ca <_scanf_float+0x230>
    58d8:	04100713          	li	a4,65
    58dc:	f6e792e3          	bne	a5,a4,5840 <_scanf_float+0xa6>
    58e0:	f71d90e3          	bne	s11,a7,5840 <_scanf_float+0xa6>
    58e4:	4d89                	li	s11,2
    58e6:	a065                	j	598e <_scanf_float+0x1f4>
    58e8:	11c78463          	beq	a5,t3,59f0 <_scanf_float+0x256>
    58ec:	04fe6163          	bltu	t3,a5,592e <_scanf_float+0x194>
    58f0:	05400713          	li	a4,84
    58f4:	0ce78f63          	beq	a5,a4,59d2 <_scanf_float+0x238>
    58f8:	02f76463          	bltu	a4,a5,5920 <_scanf_float+0x186>
    58fc:	04e00713          	li	a4,78
    5900:	f4e790e3          	bne	a5,a4,5840 <_scanf_float+0xa6>
    5904:	0a0d9163          	bnez	s11,59a6 <_scanf_float+0x20c>
    5908:	0a0d1163          	bnez	s10,59aa <_scanf_float+0x210>
    590c:	4018                	lw	a4,0(s0)
    590e:	70077593          	andi	a1,a4,1792
    5912:	09059c63          	bne	a1,a6,59aa <_scanf_float+0x210>
    5916:	87f77713          	andi	a4,a4,-1921
    591a:	c018                	sw	a4,0(s0)
    591c:	4d85                	li	s11,1
    591e:	a885                	j	598e <_scanf_float+0x1f4>
    5920:	05900713          	li	a4,89
    5924:	04e78963          	beq	a5,a4,5976 <_scanf_float+0x1dc>
    5928:	06100713          	li	a4,97
    592c:	bf45                	j	58dc <_scanf_float+0x142>
    592e:	06e00713          	li	a4,110
    5932:	fce789e3          	beq	a5,a4,5904 <_scanf_float+0x16a>
    5936:	02f76863          	bltu	a4,a5,5966 <_scanf_float+0x1cc>
    593a:	06600713          	li	a4,102
    593e:	08e78663          	beq	a5,a4,59ca <_scanf_float+0x230>
    5942:	06900713          	li	a4,105
    5946:	eee79de3          	bne	a5,a4,5840 <_scanf_float+0xa6>
    594a:	06091963          	bnez	s2,59bc <_scanf_float+0x222>
    594e:	ee0d1be3          	bnez	s10,5844 <_scanf_float+0xaa>
    5952:	4018                	lw	a4,0(s0)
    5954:	70077593          	andi	a1,a4,1792
    5958:	ef059ae3          	bne	a1,a6,584c <_scanf_float+0xb2>
    595c:	87f77713          	andi	a4,a4,-1921
    5960:	c018                	sw	a4,0(s0)
    5962:	4905                	li	s2,1
    5964:	a02d                	j	598e <_scanf_float+0x1f4>
    5966:	07400713          	li	a4,116
    596a:	06e78463          	beq	a5,a4,59d2 <_scanf_float+0x238>
    596e:	07900713          	li	a4,121
    5972:	ece797e3          	bne	a5,a4,5840 <_scanf_float+0xa6>
    5976:	ede915e3          	bne	s2,t5,5840 <_scanf_float+0xa6>
    597a:	4921                	li	s2,8
    597c:	a809                	j	598e <_scanf_float+0x1f4>
    597e:	012d8733          	add	a4,s11,s2
    5982:	ea071fe3          	bnez	a4,5840 <_scanf_float+0xa6>
    5986:	4018                	lw	a4,0(s0)
    5988:	e7f77713          	andi	a4,a4,-385
    598c:	c018                	sw	a4,0(s0)
    598e:	00f48023          	sb	a5,0(s1)
    5992:	0485                	addi	s1,s1,1
    5994:	b739                	j	58a2 <_scanf_float+0x108>
    5996:	4018                	lw	a4,0(s0)
    5998:	08077593          	andi	a1,a4,128
    599c:	ea0582e3          	beqz	a1,5840 <_scanf_float+0xa6>
    59a0:	f7f77713          	andi	a4,a4,-129
    59a4:	b7e5                	j	598c <_scanf_float+0x1f2>
    59a6:	066d8d63          	beq	s11,t1,5a20 <_scanf_float+0x286>
    59aa:	01190563          	beq	s2,a7,59b4 <_scanf_float+0x21a>
    59ae:	4711                	li	a4,4
    59b0:	e8e918e3          	bne	s2,a4,5840 <_scanf_float+0xa6>
    59b4:	0905                	addi	s2,s2,1
    59b6:	0ff97913          	andi	s2,s2,255
    59ba:	bfd1                	j	598e <_scanf_float+0x1f4>
    59bc:	ffd90713          	addi	a4,s2,-3
    59c0:	0fd77713          	andi	a4,a4,253
    59c4:	e6071ee3          	bnez	a4,5840 <_scanf_float+0xa6>
    59c8:	b7f5                	j	59b4 <_scanf_float+0x21a>
    59ca:	e6691be3          	bne	s2,t1,5840 <_scanf_float+0xa6>
    59ce:	490d                	li	s2,3
    59d0:	bf7d                	j	598e <_scanf_float+0x1f4>
    59d2:	4719                	li	a4,6
    59d4:	e6e916e3          	bne	s2,a4,5840 <_scanf_float+0xa6>
    59d8:	491d                	li	s2,7
    59da:	bf55                	j	598e <_scanf_float+0x1f4>
    59dc:	4018                	lw	a4,0(s0)
    59de:	20077593          	andi	a1,a4,512
    59e2:	e4058fe3          	beqz	a1,5840 <_scanf_float+0xa6>
    59e6:	d7f77713          	andi	a4,a4,-641
    59ea:	c018                	sw	a4,0(s0)
    59ec:	8bea                	mv	s7,s10
    59ee:	b745                	j	598e <_scanf_float+0x1f4>
    59f0:	4018                	lw	a4,0(s0)
    59f2:	50077593          	andi	a1,a4,1280
    59f6:	01d58863          	beq	a1,t4,5a06 <_scanf_float+0x26c>
    59fa:	40077593          	andi	a1,a4,1024
    59fe:	e40581e3          	beqz	a1,5840 <_scanf_float+0xa6>
    5a02:	e40d05e3          	beqz	s10,584c <_scanf_float+0xb2>
    5a06:	20077593          	andi	a1,a4,512
    5a0a:	e581                	bnez	a1,5a12 <_scanf_float+0x278>
    5a0c:	417d0a33          	sub	s4,s10,s7
    5a10:	8c26                	mv	s8,s1
    5a12:	87f77713          	andi	a4,a4,-1921
    5a16:	18076713          	ori	a4,a4,384
    5a1a:	c018                	sw	a4,0(s0)
    5a1c:	4d01                	li	s10,0
    5a1e:	bf85                	j	598e <_scanf_float+0x1f4>
    5a20:	4d8d                	li	s11,3
    5a22:	b7b5                	j	598e <_scanf_float+0x1f4>
    5a24:	18042783          	lw	a5,384(s0)
    5a28:	85e6                	mv	a1,s9
    5a2a:	854e                	mv	a0,s3
    5a2c:	c636                	sw	a3,12(sp)
    5a2e:	9782                	jalr	a5
    5a30:	46b2                	lw	a3,12(sp)
    5a32:	04900613          	li	a2,73
    5a36:	70000813          	li	a6,1792
    5a3a:	4885                	li	a7,1
    5a3c:	40000e93          	li	t4,1024
    5a40:	4309                	li	t1,2
    5a42:	06500e13          	li	t3,101
    5a46:	4f1d                	li	t5,7
    5a48:	dc0500e3          	beqz	a0,5808 <_scanf_float+0x6e>
    5a4c:	bbd5                	j	5840 <_scanf_float+0xa6>
    5a4e:	14fd                	addi	s1,s1,-1
    5a50:	17c42783          	lw	a5,380(s0)
    5a54:	0004c583          	lbu	a1,0(s1)
    5a58:	8666                	mv	a2,s9
    5a5a:	854e                	mv	a0,s3
    5a5c:	9782                	jalr	a5
    5a5e:	481c                	lw	a5,16(s0)
    5a60:	17fd                	addi	a5,a5,-1
    5a62:	c81c                	sw	a5,16(s0)
    5a64:	bbc5                	j	5854 <_scanf_float+0xba>
    5a66:	fff90793          	addi	a5,s2,-1
    5a6a:	4719                	li	a4,6
    5a6c:	02f76663          	bltu	a4,a5,5a98 <_scanf_float+0x2fe>
    5a70:	4789                	li	a5,2
    5a72:	8da6                	mv	s11,s1
    5a74:	0927f163          	bgeu	a5,s2,5af6 <_scanf_float+0x35c>
    5a78:	40990733          	sub	a4,s2,s1
    5a7c:	0ff77713          	andi	a4,a4,255
    5a80:	468d                	li	a3,3
    5a82:	00ed87b3          	add	a5,s11,a4
    5a86:	0ff7f793          	andi	a5,a5,255
    5a8a:	02f6ec63          	bltu	a3,a5,5ac2 <_scanf_float+0x328>
    5a8e:	1975                	addi	s2,s2,-3
    5a90:	0ff97913          	andi	s2,s2,255
    5a94:	412484b3          	sub	s1,s1,s2
    5a98:	401c                	lw	a5,0(s0)
    5a9a:	1007f713          	andi	a4,a5,256
    5a9e:	c345                	beqz	a4,5b3e <_scanf_float+0x3a4>
    5aa0:	4007f793          	andi	a5,a5,1024
    5aa4:	cfa1                	beqz	a5,5afc <_scanf_float+0x362>
    5aa6:	da9af9e3          	bgeu	s5,s1,5858 <_scanf_float+0xbe>
    5aaa:	14fd                	addi	s1,s1,-1
    5aac:	17c42783          	lw	a5,380(s0)
    5ab0:	0004c583          	lbu	a1,0(s1)
    5ab4:	8666                	mv	a2,s9
    5ab6:	854e                	mv	a0,s3
    5ab8:	9782                	jalr	a5
    5aba:	481c                	lw	a5,16(s0)
    5abc:	17fd                	addi	a5,a5,-1
    5abe:	c81c                	sw	a5,16(s0)
    5ac0:	b7dd                	j	5aa6 <_scanf_float+0x30c>
    5ac2:	1dfd                	addi	s11,s11,-1
    5ac4:	17c42783          	lw	a5,380(s0)
    5ac8:	000dc583          	lbu	a1,0(s11)
    5acc:	8666                	mv	a2,s9
    5ace:	854e                	mv	a0,s3
    5ad0:	c63a                	sw	a4,12(sp)
    5ad2:	9782                	jalr	a5
    5ad4:	481c                	lw	a5,16(s0)
    5ad6:	468d                	li	a3,3
    5ad8:	4732                	lw	a4,12(sp)
    5ada:	17fd                	addi	a5,a5,-1
    5adc:	c81c                	sw	a5,16(s0)
    5ade:	b755                	j	5a82 <_scanf_float+0x2e8>
    5ae0:	14fd                	addi	s1,s1,-1
    5ae2:	17c42783          	lw	a5,380(s0)
    5ae6:	0004c583          	lbu	a1,0(s1)
    5aea:	8666                	mv	a2,s9
    5aec:	854e                	mv	a0,s3
    5aee:	9782                	jalr	a5
    5af0:	481c                	lw	a5,16(s0)
    5af2:	17fd                	addi	a5,a5,-1
    5af4:	c81c                	sw	a5,16(s0)
    5af6:	fe9ae5e3          	bltu	s5,s1,5ae0 <_scanf_float+0x346>
    5afa:	bbb9                	j	5858 <_scanf_float+0xbe>
    5afc:	481c                	lw	a5,16(s0)
    5afe:	fff4c583          	lbu	a1,-1(s1)
    5b02:	fff48913          	addi	s2,s1,-1
    5b06:	17fd                	addi	a5,a5,-1
    5b08:	c81c                	sw	a5,16(s0)
    5b0a:	06500793          	li	a5,101
    5b0e:	02f58263          	beq	a1,a5,5b32 <_scanf_float+0x398>
    5b12:	04500793          	li	a5,69
    5b16:	00f58e63          	beq	a1,a5,5b32 <_scanf_float+0x398>
    5b1a:	17c42783          	lw	a5,380(s0)
    5b1e:	8666                	mv	a2,s9
    5b20:	854e                	mv	a0,s3
    5b22:	9782                	jalr	a5
    5b24:	481c                	lw	a5,16(s0)
    5b26:	ffe4c583          	lbu	a1,-2(s1)
    5b2a:	ffe48913          	addi	s2,s1,-2
    5b2e:	17fd                	addi	a5,a5,-1
    5b30:	c81c                	sw	a5,16(s0)
    5b32:	17c42783          	lw	a5,380(s0)
    5b36:	8666                	mv	a2,s9
    5b38:	854e                	mv	a0,s3
    5b3a:	9782                	jalr	a5
    5b3c:	84ca                	mv	s1,s2
    5b3e:	00042903          	lw	s2,0(s0)
    5b42:	01097913          	andi	s2,s2,16
    5b46:	0c091363          	bnez	s2,5c0c <_scanf_float+0x472>
    5b4a:	00048023          	sb	zero,0(s1)
    5b4e:	401c                	lw	a5,0(s0)
    5b50:	40000713          	li	a4,1024
    5b54:	6007f793          	andi	a5,a5,1536
    5b58:	02e79e63          	bne	a5,a4,5b94 <_scanf_float+0x3fa>
    5b5c:	41ab8633          	sub	a2,s7,s10
    5b60:	05ab9663          	bne	s7,s10,5bac <_scanf_float+0x412>
    5b64:	85d6                	mv	a1,s5
    5b66:	4601                	li	a2,0
    5b68:	854e                	mv	a0,s3
    5b6a:	5d9000ef          	jal	ra,6942 <_strtod_r>
    5b6e:	4018                	lw	a4,0(s0)
    5b70:	8a2a                	mv	s4,a0
    5b72:	8aae                	mv	s5,a1
    5b74:	00277693          	andi	a3,a4,2
    5b78:	000b2783          	lw	a5,0(s6)
    5b7c:	c6a9                	beqz	a3,5bc6 <_scanf_float+0x42c>
    5b7e:	00478713          	addi	a4,a5,4
    5b82:	00eb2023          	sw	a4,0(s6)
    5b86:	439c                	lw	a5,0(a5)
    5b88:	c388                	sw	a0,0(a5)
    5b8a:	c3cc                	sw	a1,4(a5)
    5b8c:	445c                	lw	a5,12(s0)
    5b8e:	0785                	addi	a5,a5,1
    5b90:	c45c                	sw	a5,12(s0)
    5b92:	b1e1                	j	585a <_scanf_float+0xc0>
    5b94:	fc0a08e3          	beqz	s4,5b64 <_scanf_float+0x3ca>
    5b98:	4601                	li	a2,0
    5b9a:	46a9                	li	a3,10
    5b9c:	001c0593          	addi	a1,s8,1
    5ba0:	854e                	mv	a0,s3
    5ba2:	6ff000ef          	jal	ra,6aa0 <_strtol_r>
    5ba6:	41450633          	sub	a2,a0,s4
    5baa:	84e2                	mv	s1,s8
    5bac:	16f40793          	addi	a5,s0,367
    5bb0:	00f4e463          	bltu	s1,a5,5bb8 <_scanf_float+0x41e>
    5bb4:	16e40493          	addi	s1,s0,366
    5bb8:	00004597          	auipc	a1,0x4
    5bbc:	f2c58593          	addi	a1,a1,-212 # 9ae4 <__clz_tab+0x148>
    5bc0:	8526                	mv	a0,s1
    5bc2:	28a9                	jal	5c1c <siprintf>
    5bc4:	b745                	j	5b64 <_scanf_float+0x3ca>
    5bc6:	00478693          	addi	a3,a5,4
    5bca:	00db2023          	sw	a3,0(s6)
    5bce:	8b11                	andi	a4,a4,4
    5bd0:	4384                	lw	s1,0(a5)
    5bd2:	cf19                	beqz	a4,5bf0 <_scanf_float+0x456>
    5bd4:	85aa                	mv	a1,a0
    5bd6:	8656                	mv	a2,s5
    5bd8:	0808                	addi	a0,sp,16
    5bda:	7a8030ef          	jal	ra,9382 <__extenddftf2>
    5bde:	46d2                	lw	a3,20(sp)
    5be0:	4762                	lw	a4,24(sp)
    5be2:	47f2                	lw	a5,28(sp)
    5be4:	4642                	lw	a2,16(sp)
    5be6:	c0d4                	sw	a3,4(s1)
    5be8:	c498                	sw	a4,8(s1)
    5bea:	c090                	sw	a2,0(s1)
    5bec:	c4dc                	sw	a5,12(s1)
    5bee:	bf79                	j	5b8c <_scanf_float+0x3f2>
    5bf0:	862a                	mv	a2,a0
    5bf2:	86ae                	mv	a3,a1
    5bf4:	626030ef          	jal	ra,921a <__unorddf2>
    5bf8:	c509                	beqz	a0,5c02 <_scanf_float+0x468>
    5bfa:	4501                	li	a0,0
    5bfc:	2811                	jal	5c10 <nanf>
    5bfe:	c088                	sw	a0,0(s1)
    5c00:	b771                	j	5b8c <_scanf_float+0x3f2>
    5c02:	8552                	mv	a0,s4
    5c04:	85d6                	mv	a1,s5
    5c06:	fc5fe0ef          	jal	ra,4bca <__truncdfsf2>
    5c0a:	bfd5                	j	5bfe <_scanf_float+0x464>
    5c0c:	4901                	li	s2,0
    5c0e:	b1b1                	j	585a <_scanf_float+0xc0>

00005c10 <nanf>:
    5c10:	00004797          	auipc	a5,0x4
    5c14:	edc78793          	addi	a5,a5,-292 # 9aec <__clz_tab+0x150>
    5c18:	4388                	lw	a0,0(a5)
    5c1a:	8082                	ret

00005c1c <siprintf>:
    5c1c:	7135                	addi	sp,sp,-160
    5c1e:	cb3e                	sw	a5,148(sp)
    5c20:	800007b7          	lui	a5,0x80000
    5c24:	fff7c793          	not	a5,a5
    5c28:	ce3e                	sw	a5,28(sp)
    5c2a:	c83e                	sw	a5,16(sp)
    5c2c:	77c1                	lui	a5,0xffff0
    5c2e:	20878793          	addi	a5,a5,520 # ffff0208 <_eusrstack+0xdffe8208>
    5c32:	c532                	sw	a2,136(sp)
    5c34:	c736                	sw	a3,140(sp)
    5c36:	c93a                	sw	a4,144(sp)
    5c38:	cd42                	sw	a6,152(sp)
    5c3a:	cf46                	sw	a7,156(sp)
    5c3c:	ca3e                	sw	a5,20(sp)
    5c3e:	1fffb797          	auipc	a5,0x1fffb
    5c42:	d9278793          	addi	a5,a5,-622 # 200009d0 <_impure_ptr>
    5c46:	c42a                	sw	a0,8(sp)
    5c48:	cc2a                	sw	a0,24(sp)
    5c4a:	4388                	lw	a0,0(a5)
    5c4c:	0134                	addi	a3,sp,136
    5c4e:	862e                	mv	a2,a1
    5c50:	002c                	addi	a1,sp,8
    5c52:	de86                	sw	ra,124(sp)
    5c54:	c236                	sw	a3,4(sp)
    5c56:	048030ef          	jal	ra,8c9e <_svfiprintf_r>
    5c5a:	47a2                	lw	a5,8(sp)
    5c5c:	00078023          	sb	zero,0(a5)
    5c60:	50f6                	lw	ra,124(sp)
    5c62:	610d                	addi	sp,sp,160
    5c64:	8082                	ret

00005c66 <strlen>:
    5c66:	87aa                	mv	a5,a0
    5c68:	0785                	addi	a5,a5,1
    5c6a:	fff7c703          	lbu	a4,-1(a5)
    5c6e:	ff6d                	bnez	a4,5c68 <strlen+0x2>
    5c70:	40a78533          	sub	a0,a5,a0
    5c74:	157d                	addi	a0,a0,-1
    5c76:	8082                	ret

00005c78 <sulp>:
    5c78:	1101                	addi	sp,sp,-32
    5c7a:	cc22                	sw	s0,24(sp)
    5c7c:	872a                	mv	a4,a0
    5c7e:	842e                	mv	s0,a1
    5c80:	853a                	mv	a0,a4
    5c82:	85a2                	mv	a1,s0
    5c84:	c632                	sw	a2,12(sp)
    5c86:	ce06                	sw	ra,28(sp)
    5c88:	2d7020ef          	jal	ra,875e <__ulp>
    5c8c:	4632                	lw	a2,12(sp)
    5c8e:	882a                	mv	a6,a0
    5c90:	88ae                	mv	a7,a1
    5c92:	c605                	beqz	a2,5cba <sulp+0x42>
    5c94:	8051                	srli	s0,s0,0x14
    5c96:	7ff47413          	andi	s0,s0,2047
    5c9a:	06b00793          	li	a5,107
    5c9e:	8f81                	sub	a5,a5,s0
    5ca0:	00f05d63          	blez	a5,5cba <sulp+0x42>
    5ca4:	07d2                	slli	a5,a5,0x14
    5ca6:	3ff00737          	lui	a4,0x3ff00
    5caa:	4801                	li	a6,0
    5cac:	973e                	add	a4,a4,a5
    5cae:	8642                	mv	a2,a6
    5cb0:	86ba                	mv	a3,a4
    5cb2:	cfefd0ef          	jal	ra,31b0 <__muldf3>
    5cb6:	882a                	mv	a6,a0
    5cb8:	88ae                	mv	a7,a1
    5cba:	40f2                	lw	ra,28(sp)
    5cbc:	4462                	lw	s0,24(sp)
    5cbe:	8542                	mv	a0,a6
    5cc0:	85c6                	mv	a1,a7
    5cc2:	6105                	addi	sp,sp,32
    5cc4:	8082                	ret

00005cc6 <_strtod_l>:
    5cc6:	7135                	addi	sp,sp,-160
    5cc8:	c94a                	sw	s2,144(sp)
    5cca:	892a                	mv	s2,a0
    5ccc:	8536                	mv	a0,a3
    5cce:	d432                	sw	a2,40(sp)
    5cd0:	c636                	sw	a3,12(sp)
    5cd2:	cf06                	sw	ra,156(sp)
    5cd4:	cd22                	sw	s0,152(sp)
    5cd6:	cb26                	sw	s1,148(sp)
    5cd8:	c74e                	sw	s3,140(sp)
    5cda:	d8ea                	sw	s10,112(sp)
    5cdc:	d6ee                	sw	s11,108(sp)
    5cde:	8d2e                	mv	s10,a1
    5ce0:	c552                	sw	s4,136(sp)
    5ce2:	c356                	sw	s5,132(sp)
    5ce4:	c15a                	sw	s6,128(sp)
    5ce6:	dede                	sw	s7,124(sp)
    5ce8:	dce2                	sw	s8,120(sp)
    5cea:	dae6                	sw	s9,116(sp)
    5cec:	c882                	sw	zero,80(sp)
    5cee:	266020ef          	jal	ra,7f54 <__localeconv_l>
    5cf2:	8daa                	mv	s11,a0
    5cf4:	4108                	lw	a0,0(a0)
    5cf6:	4481                	li	s1,0
    5cf8:	4401                	li	s0,0
    5cfa:	37b5                	jal	5c66 <strlen>
    5cfc:	46b2                	lw	a3,12(sp)
    5cfe:	89aa                	mv	s3,a0
    5d00:	c6ea                	sw	s10,76(sp)
    5d02:	4635                	li	a2,13
    5d04:	02b00593          	li	a1,43
    5d08:	02d00513          	li	a0,45
    5d0c:	02000813          	li	a6,32
    5d10:	48a5                	li	a7,9
    5d12:	47b6                	lw	a5,76(sp)
    5d14:	0007c703          	lbu	a4,0(a5)
    5d18:	08e66b63          	bltu	a2,a4,5dae <_strtod_l+0xe8>
    5d1c:	09177f63          	bgeu	a4,a7,5dba <_strtod_l+0xf4>
    5d20:	c75d                	beqz	a4,5dce <_strtod_l+0x108>
    5d22:	c802                	sw	zero,16(sp)
    5d24:	4a36                	lw	s4,76(sp)
    5d26:	03000793          	li	a5,48
    5d2a:	4a81                	li	s5,0
    5d2c:	000a4703          	lbu	a4,0(s4)
    5d30:	12f71d63          	bne	a4,a5,5e6a <_strtod_l+0x1a4>
    5d34:	001a4783          	lbu	a5,1(s4)
    5d38:	05800713          	li	a4,88
    5d3c:	00e78863          	beq	a5,a4,5d4c <_strtod_l+0x86>
    5d40:	07800613          	li	a2,120
    5d44:	03000713          	li	a4,48
    5d48:	10c79763          	bne	a5,a2,5e56 <_strtod_l+0x190>
    5d4c:	47c2                	lw	a5,16(sp)
    5d4e:	8836                	mv	a6,a3
    5d50:	0898                	addi	a4,sp,80
    5d52:	08d4                	addi	a3,sp,84
    5d54:	00004617          	auipc	a2,0x4
    5d58:	df460613          	addi	a2,a2,-524 # 9b48 <fpi.3395>
    5d5c:	00ec                	addi	a1,sp,76
    5d5e:	854a                	mv	a0,s2
    5d60:	369010ef          	jal	ra,78c8 <__gethex>
    5d64:	00757993          	andi	s3,a0,7
    5d68:	8aaa                	mv	s5,a0
    5d6a:	00098863          	beqz	s3,5d7a <_strtod_l+0xb4>
    5d6e:	4799                	li	a5,6
    5d70:	06f99863          	bne	s3,a5,5de0 <_strtod_l+0x11a>
    5d74:	0a05                	addi	s4,s4,1
    5d76:	c6d2                	sw	s4,76(sp)
    5d78:	c802                	sw	zero,16(sp)
    5d7a:	57a2                	lw	a5,40(sp)
    5d7c:	c781                	beqz	a5,5d84 <_strtod_l+0xbe>
    5d7e:	47b6                	lw	a5,76(sp)
    5d80:	5722                	lw	a4,40(sp)
    5d82:	c31c                	sw	a5,0(a4)
    5d84:	47c2                	lw	a5,16(sp)
    5d86:	cba1                	beqz	a5,5dd6 <_strtod_l+0x110>
    5d88:	800005b7          	lui	a1,0x80000
    5d8c:	8da1                	xor	a1,a1,s0
    5d8e:	40fa                	lw	ra,156(sp)
    5d90:	446a                	lw	s0,152(sp)
    5d92:	8526                	mv	a0,s1
    5d94:	494a                	lw	s2,144(sp)
    5d96:	44da                	lw	s1,148(sp)
    5d98:	49ba                	lw	s3,140(sp)
    5d9a:	4a2a                	lw	s4,136(sp)
    5d9c:	4a9a                	lw	s5,132(sp)
    5d9e:	4b0a                	lw	s6,128(sp)
    5da0:	5bf6                	lw	s7,124(sp)
    5da2:	5c66                	lw	s8,120(sp)
    5da4:	5cd6                	lw	s9,116(sp)
    5da6:	5d46                	lw	s10,112(sp)
    5da8:	5db6                	lw	s11,108(sp)
    5daa:	610d                	addi	sp,sp,160
    5dac:	8082                	ret
    5dae:	00b70963          	beq	a4,a1,5dc0 <_strtod_l+0xfa>
    5db2:	02a70463          	beq	a4,a0,5dda <_strtod_l+0x114>
    5db6:	f70716e3          	bne	a4,a6,5d22 <_strtod_l+0x5c>
    5dba:	0785                	addi	a5,a5,1
    5dbc:	c6be                	sw	a5,76(sp)
    5dbe:	bf91                	j	5d12 <_strtod_l+0x4c>
    5dc0:	c802                	sw	zero,16(sp)
    5dc2:	00178713          	addi	a4,a5,1
    5dc6:	c6ba                	sw	a4,76(sp)
    5dc8:	0017c783          	lbu	a5,1(a5)
    5dcc:	ffa1                	bnez	a5,5d24 <_strtod_l+0x5e>
    5dce:	57a2                	lw	a5,40(sp)
    5dd0:	c6ea                	sw	s10,76(sp)
    5dd2:	c802                	sw	zero,16(sp)
    5dd4:	f7cd                	bnez	a5,5d7e <_strtod_l+0xb8>
    5dd6:	85a2                	mv	a1,s0
    5dd8:	bf5d                	j	5d8e <_strtod_l+0xc8>
    5dda:	4705                	li	a4,1
    5ddc:	c83a                	sw	a4,16(sp)
    5dde:	b7d5                	j	5dc2 <_strtod_l+0xfc>
    5de0:	4646                	lw	a2,80(sp)
    5de2:	ca11                	beqz	a2,5df6 <_strtod_l+0x130>
    5de4:	03500593          	li	a1,53
    5de8:	08a8                	addi	a0,sp,88
    5dea:	3b7020ef          	jal	ra,89a0 <__copybits>
    5dee:	45c6                	lw	a1,80(sp)
    5df0:	854a                	mv	a0,s2
    5df2:	32a020ef          	jal	ra,811c <_Bfree>
    5df6:	19fd                	addi	s3,s3,-1
    5df8:	4791                	li	a5,4
    5dfa:	0137ee63          	bltu	a5,s3,5e16 <_strtod_l+0x150>
    5dfe:	00004717          	auipc	a4,0x4
    5e02:	cf270713          	addi	a4,a4,-782 # 9af0 <__clz_tab+0x154>
    5e06:	098a                	slli	s3,s3,0x2
    5e08:	99ba                	add	s3,s3,a4
    5e0a:	0009a783          	lw	a5,0(s3)
    5e0e:	97ba                	add	a5,a5,a4
    5e10:	8782                	jr	a5
    5e12:	44e6                	lw	s1,88(sp)
    5e14:	4476                	lw	s0,92(sp)
    5e16:	008afa93          	andi	s5,s5,8
    5e1a:	f60a80e3          	beqz	s5,5d7a <_strtod_l+0xb4>
    5e1e:	800007b7          	lui	a5,0x80000
    5e22:	8c5d                	or	s0,s0,a5
    5e24:	bf99                	j	5d7a <_strtod_l+0xb4>
    5e26:	45f6                	lw	a1,92(sp)
    5e28:	fff00437          	lui	s0,0xfff00
    5e2c:	147d                	addi	s0,s0,-1
    5e2e:	0085f7b3          	and	a5,a1,s0
    5e32:	4456                	lw	s0,84(sp)
    5e34:	44e6                	lw	s1,88(sp)
    5e36:	43340413          	addi	s0,s0,1075 # fff00433 <_eusrstack+0xdfef8433>
    5e3a:	01441593          	slli	a1,s0,0x14
    5e3e:	00b7e433          	or	s0,a5,a1
    5e42:	bfd1                	j	5e16 <_strtod_l+0x150>
    5e44:	7ff00437          	lui	s0,0x7ff00
    5e48:	b7f9                	j	5e16 <_strtod_l+0x150>
    5e4a:	800005b7          	lui	a1,0x80000
    5e4e:	fff5c413          	not	s0,a1
    5e52:	54fd                	li	s1,-1
    5e54:	b7c9                	j	5e16 <_strtod_l+0x150>
    5e56:	47b6                	lw	a5,76(sp)
    5e58:	00178693          	addi	a3,a5,1 # 80000001 <_eusrstack+0x5fff8001>
    5e5c:	c6b6                	sw	a3,76(sp)
    5e5e:	0017c783          	lbu	a5,1(a5)
    5e62:	fee78ae3          	beq	a5,a4,5e56 <_strtod_l+0x190>
    5e66:	db91                	beqz	a5,5d7a <_strtod_l+0xb4>
    5e68:	4a85                	li	s5,1
    5e6a:	4cb6                	lw	s9,76(sp)
    5e6c:	4a01                	li	s4,0
    5e6e:	4b81                	li	s7,0
    5e70:	4c01                	li	s8,0
    5e72:	46a5                	li	a3,9
    5e74:	45a1                	li	a1,8
    5e76:	47a9                	li	a5,10
    5e78:	4536                	lw	a0,76(sp)
    5e7a:	00054b03          	lbu	s6,0(a0)
    5e7e:	fd0b0713          	addi	a4,s6,-48
    5e82:	0ff77613          	andi	a2,a4,255
    5e86:	04c6fd63          	bgeu	a3,a2,5ee0 <_strtod_l+0x21a>
    5e8a:	000da583          	lw	a1,0(s11)
    5e8e:	864e                	mv	a2,s3
    5e90:	0b6030ef          	jal	ra,8f46 <strncmp>
    5e94:	c13d                	beqz	a0,5efa <_strtod_l+0x234>
    5e96:	87da                	mv	a5,s6
    5e98:	8de2                	mv	s11,s8
    5e9a:	4681                	li	a3,0
    5e9c:	4b01                	li	s6,0
    5e9e:	4501                	li	a0,0
    5ea0:	06500713          	li	a4,101
    5ea4:	00e78763          	beq	a5,a4,5eb2 <_strtod_l+0x1ec>
    5ea8:	04500713          	li	a4,69
    5eac:	4981                	li	s3,0
    5eae:	16e79963          	bne	a5,a4,6020 <_strtod_l+0x35a>
    5eb2:	000d9663          	bnez	s11,5ebe <_strtod_l+0x1f8>
    5eb6:	0156e7b3          	or	a5,a3,s5
    5eba:	db91                	beqz	a5,5dce <_strtod_l+0x108>
    5ebc:	4d81                	li	s11,0
    5ebe:	4d36                	lw	s10,76(sp)
    5ec0:	02b00713          	li	a4,43
    5ec4:	001d0793          	addi	a5,s10,1
    5ec8:	c6be                	sw	a5,76(sp)
    5eca:	001d4783          	lbu	a5,1(s10)
    5ece:	0ee78263          	beq	a5,a4,5fb2 <_strtod_l+0x2ec>
    5ed2:	02d00713          	li	a4,45
    5ed6:	4801                	li	a6,0
    5ed8:	0ee79363          	bne	a5,a4,5fbe <_strtod_l+0x2f8>
    5edc:	4805                	li	a6,1
    5ede:	a8d9                	j	5fb4 <_strtod_l+0x2ee>
    5ee0:	0185c963          	blt	a1,s8,5ef2 <_strtod_l+0x22c>
    5ee4:	02fb8bb3          	mul	s7,s7,a5
    5ee8:	9bba                	add	s7,s7,a4
    5eea:	0505                	addi	a0,a0,1
    5eec:	0c05                	addi	s8,s8,1
    5eee:	c6aa                	sw	a0,76(sp)
    5ef0:	b761                	j	5e78 <_strtod_l+0x1b2>
    5ef2:	02fa0a33          	mul	s4,s4,a5
    5ef6:	9a3a                	add	s4,s4,a4
    5ef8:	bfcd                	j	5eea <_strtod_l+0x224>
    5efa:	4536                	lw	a0,76(sp)
    5efc:	4681                	li	a3,0
    5efe:	954e                	add	a0,a0,s3
    5f00:	c6aa                	sw	a0,76(sp)
    5f02:	00054783          	lbu	a5,0(a0)
    5f06:	060c0d63          	beqz	s8,5f80 <_strtod_l+0x2ba>
    5f0a:	4b01                	li	s6,0
    5f0c:	8de2                	mv	s11,s8
    5f0e:	fd078713          	addi	a4,a5,-48
    5f12:	4625                	li	a2,9
    5f14:	02e67663          	bgeu	a2,a4,5f40 <_strtod_l+0x27a>
    5f18:	4505                	li	a0,1
    5f1a:	b759                	j	5ea0 <_strtod_l+0x1da>
    5f1c:	47b6                	lw	a5,76(sp)
    5f1e:	0685                	addi	a3,a3,1
    5f20:	00178613          	addi	a2,a5,1
    5f24:	c6b2                	sw	a2,76(sp)
    5f26:	0017c783          	lbu	a5,1(a5)
    5f2a:	fee789e3          	beq	a5,a4,5f1c <_strtod_l+0x256>
    5f2e:	fcf78713          	addi	a4,a5,-49
    5f32:	4621                	li	a2,8
    5f34:	1ee66ae3          	bltu	a2,a4,6928 <_strtod_l+0xc62>
    5f38:	4cb6                	lw	s9,76(sp)
    5f3a:	8b36                	mv	s6,a3
    5f3c:	4d81                	li	s11,0
    5f3e:	4681                	li	a3,0
    5f40:	fd078793          	addi	a5,a5,-48
    5f44:	00168713          	addi	a4,a3,1
    5f48:	c785                	beqz	a5,5f70 <_strtod_l+0x2aa>
    5f4a:	9b3a                	add	s6,s6,a4
    5f4c:	01b68533          	add	a0,a3,s11
    5f50:	876e                	mv	a4,s11
    5f52:	4821                	li	a6,8
    5f54:	48c1                	li	a7,16
    5f56:	4629                	li	a2,10
    5f58:	02a71763          	bne	a4,a0,5f86 <_strtod_l+0x2c0>
    5f5c:	0d85                	addi	s11,s11,1
    5f5e:	9db6                	add	s11,s11,a3
    5f60:	46a1                	li	a3,8
    5f62:	02e6cf63          	blt	a3,a4,5fa0 <_strtod_l+0x2da>
    5f66:	4729                	li	a4,10
    5f68:	02eb8bb3          	mul	s7,s7,a4
    5f6c:	4701                	li	a4,0
    5f6e:	9bbe                	add	s7,s7,a5
    5f70:	47b6                	lw	a5,76(sp)
    5f72:	00178693          	addi	a3,a5,1
    5f76:	c6b6                	sw	a3,76(sp)
    5f78:	0017c783          	lbu	a5,1(a5)
    5f7c:	86ba                	mv	a3,a4
    5f7e:	bf41                	j	5f0e <_strtod_l+0x248>
    5f80:	03000713          	li	a4,48
    5f84:	b75d                	j	5f2a <_strtod_l+0x264>
    5f86:	00170593          	addi	a1,a4,1
    5f8a:	00e84663          	blt	a6,a4,5f96 <_strtod_l+0x2d0>
    5f8e:	02cb8bb3          	mul	s7,s7,a2
    5f92:	872e                	mv	a4,a1
    5f94:	b7d1                	j	5f58 <_strtod_l+0x292>
    5f96:	feb8cee3          	blt	a7,a1,5f92 <_strtod_l+0x2cc>
    5f9a:	02ca0a33          	mul	s4,s4,a2
    5f9e:	bfd5                	j	5f92 <_strtod_l+0x2cc>
    5fa0:	46c1                	li	a3,16
    5fa2:	4701                	li	a4,0
    5fa4:	fdb6c6e3          	blt	a3,s11,5f70 <_strtod_l+0x2aa>
    5fa8:	46a9                	li	a3,10
    5faa:	02da0a33          	mul	s4,s4,a3
    5fae:	9a3e                	add	s4,s4,a5
    5fb0:	b7c1                	j	5f70 <_strtod_l+0x2aa>
    5fb2:	4801                	li	a6,0
    5fb4:	002d0793          	addi	a5,s10,2
    5fb8:	c6be                	sw	a5,76(sp)
    5fba:	002d4783          	lbu	a5,2(s10)
    5fbe:	fd078713          	addi	a4,a5,-48
    5fc2:	4625                	li	a2,9
    5fc4:	0ce66763          	bltu	a2,a4,6092 <_strtod_l+0x3cc>
    5fc8:	03000713          	li	a4,48
    5fcc:	0ae78663          	beq	a5,a4,6078 <_strtod_l+0x3b2>
    5fd0:	fcf78713          	addi	a4,a5,-49
    5fd4:	4621                	li	a2,8
    5fd6:	4981                	li	s3,0
    5fd8:	04e66463          	bltu	a2,a4,6020 <_strtod_l+0x35a>
    5fdc:	48b6                	lw	a7,76(sp)
    5fde:	fd078713          	addi	a4,a5,-48
    5fe2:	4325                	li	t1,9
    5fe4:	4e29                	li	t3,10
    5fe6:	47b6                	lw	a5,76(sp)
    5fe8:	00178613          	addi	a2,a5,1
    5fec:	c6b2                	sw	a2,76(sp)
    5fee:	0017c783          	lbu	a5,1(a5)
    5ff2:	fd078593          	addi	a1,a5,-48
    5ff6:	0ff5f593          	andi	a1,a1,255
    5ffa:	08b37663          	bgeu	t1,a1,6086 <_strtod_l+0x3c0>
    5ffe:	6995                	lui	s3,0x5
    6000:	41160633          	sub	a2,a2,a7
    6004:	e1f98993          	addi	s3,s3,-481 # 4e1f <__cvt+0x75>
    6008:	48a1                	li	a7,8
    600a:	85ce                	mv	a1,s3
    600c:	00c8c663          	blt	a7,a2,6018 <_strtod_l+0x352>
    6010:	89ba                	mv	s3,a4
    6012:	00e5d363          	bge	a1,a4,6018 <_strtod_l+0x352>
    6016:	89ae                	mv	s3,a1
    6018:	00080463          	beqz	a6,6020 <_strtod_l+0x35a>
    601c:	413009b3          	neg	s3,s3
    6020:	0c0d9863          	bnez	s11,60f0 <_strtod_l+0x42a>
    6024:	00dae6b3          	or	a3,s5,a3
    6028:	d40699e3          	bnez	a3,5d7a <_strtod_l+0xb4>
    602c:	da0511e3          	bnez	a0,5dce <_strtod_l+0x108>
    6030:	04e00713          	li	a4,78
    6034:	06e78a63          	beq	a5,a4,60a8 <_strtod_l+0x3e2>
    6038:	06f74063          	blt	a4,a5,6098 <_strtod_l+0x3d2>
    603c:	04900713          	li	a4,73
    6040:	d8e797e3          	bne	a5,a4,5dce <_strtod_l+0x108>
    6044:	00004597          	auipc	a1,0x4
    6048:	af458593          	addi	a1,a1,-1292 # 9b38 <__clz_tab+0x19c>
    604c:	00e8                	addi	a0,sp,76
    604e:	571010ef          	jal	ra,7dbe <__match>
    6052:	d6050ee3          	beqz	a0,5dce <_strtod_l+0x108>
    6056:	47b6                	lw	a5,76(sp)
    6058:	00004597          	auipc	a1,0x4
    605c:	ae458593          	addi	a1,a1,-1308 # 9b3c <__clz_tab+0x1a0>
    6060:	00e8                	addi	a0,sp,76
    6062:	17fd                	addi	a5,a5,-1
    6064:	c6be                	sw	a5,76(sp)
    6066:	559010ef          	jal	ra,7dbe <__match>
    606a:	e501                	bnez	a0,6072 <_strtod_l+0x3ac>
    606c:	47b6                	lw	a5,76(sp)
    606e:	0785                	addi	a5,a5,1
    6070:	c6be                	sw	a5,76(sp)
    6072:	7ff00437          	lui	s0,0x7ff00
    6076:	b311                	j	5d7a <_strtod_l+0xb4>
    6078:	47b6                	lw	a5,76(sp)
    607a:	00178613          	addi	a2,a5,1
    607e:	c6b2                	sw	a2,76(sp)
    6080:	0017c783          	lbu	a5,1(a5)
    6084:	b7a1                	j	5fcc <_strtod_l+0x306>
    6086:	03c70733          	mul	a4,a4,t3
    608a:	97ba                	add	a5,a5,a4
    608c:	fd078713          	addi	a4,a5,-48
    6090:	bf99                	j	5fe6 <_strtod_l+0x320>
    6092:	c6ea                	sw	s10,76(sp)
    6094:	4981                	li	s3,0
    6096:	b769                	j	6020 <_strtod_l+0x35a>
    6098:	06900713          	li	a4,105
    609c:	fae784e3          	beq	a5,a4,6044 <_strtod_l+0x37e>
    60a0:	06e00713          	li	a4,110
    60a4:	d2e795e3          	bne	a5,a4,5dce <_strtod_l+0x108>
    60a8:	00004597          	auipc	a1,0x4
    60ac:	a9c58593          	addi	a1,a1,-1380 # 9b44 <__clz_tab+0x1a8>
    60b0:	00e8                	addi	a0,sp,76
    60b2:	50d010ef          	jal	ra,7dbe <__match>
    60b6:	d0050ce3          	beqz	a0,5dce <_strtod_l+0x108>
    60ba:	47b6                	lw	a5,76(sp)
    60bc:	0007c703          	lbu	a4,0(a5)
    60c0:	02800793          	li	a5,40
    60c4:	02f71363          	bne	a4,a5,60ea <_strtod_l+0x424>
    60c8:	08b0                	addi	a2,sp,88
    60ca:	00004597          	auipc	a1,0x4
    60ce:	a9258593          	addi	a1,a1,-1390 # 9b5c <fpinan.3431>
    60d2:	00e8                	addi	a0,sp,76
    60d4:	51b010ef          	jal	ra,7dee <__hexnan>
    60d8:	4795                	li	a5,5
    60da:	00f51863          	bne	a0,a5,60ea <_strtod_l+0x424>
    60de:	45f6                	lw	a1,92(sp)
    60e0:	7ff00437          	lui	s0,0x7ff00
    60e4:	44e6                	lw	s1,88(sp)
    60e6:	8c4d                	or	s0,s0,a1
    60e8:	b949                	j	5d7a <_strtod_l+0xb4>
    60ea:	fff80437          	lui	s0,0xfff80
    60ee:	b171                	j	5d7a <_strtod_l+0xb4>
    60f0:	41698ab3          	sub	s5,s3,s6
    60f4:	000c1363          	bnez	s8,60fa <_strtod_l+0x434>
    60f8:	8c6e                	mv	s8,s11
    60fa:	47c1                	li	a5,16
    60fc:	8d6e                	mv	s10,s11
    60fe:	01b7d363          	bge	a5,s11,6104 <_strtod_l+0x43e>
    6102:	4d41                	li	s10,16
    6104:	855e                	mv	a0,s7
    6106:	214030ef          	jal	ra,931a <__floatunsidf>
    610a:	47a5                	li	a5,9
    610c:	84aa                	mv	s1,a0
    610e:	842e                	mv	s0,a1
    6110:	03b7dc63          	bge	a5,s11,6148 <_strtod_l+0x482>
    6114:	ff7d0793          	addi	a5,s10,-9
    6118:	00379713          	slli	a4,a5,0x3
    611c:	00004797          	auipc	a5,0x4
    6120:	afc78793          	addi	a5,a5,-1284 # 9c18 <__mprec_tens>
    6124:	97ba                	add	a5,a5,a4
    6126:	4390                	lw	a2,0(a5)
    6128:	43d4                	lw	a3,4(a5)
    612a:	886fd0ef          	jal	ra,31b0 <__muldf3>
    612e:	842a                	mv	s0,a0
    6130:	8552                	mv	a0,s4
    6132:	84ae                	mv	s1,a1
    6134:	1e6030ef          	jal	ra,931a <__floatunsidf>
    6138:	862a                	mv	a2,a0
    613a:	86ae                	mv	a3,a1
    613c:	8522                	mv	a0,s0
    613e:	85a6                	mv	a1,s1
    6140:	b8cfc0ef          	jal	ra,24cc <__adddf3>
    6144:	84aa                	mv	s1,a0
    6146:	842e                	mv	s0,a1
    6148:	47bd                	li	a5,15
    614a:	09b7cd63          	blt	a5,s11,61e4 <_strtod_l+0x51e>
    614e:	c20a86e3          	beqz	s5,5d7a <_strtod_l+0xb4>
    6152:	07505463          	blez	s5,61ba <_strtod_l+0x4f4>
    6156:	4759                	li	a4,22
    6158:	03574363          	blt	a4,s5,617e <_strtod_l+0x4b8>
    615c:	0a8e                	slli	s5,s5,0x3
    615e:	00004797          	auipc	a5,0x4
    6162:	aba78793          	addi	a5,a5,-1350 # 9c18 <__mprec_tens>
    6166:	9abe                	add	s5,s5,a5
    6168:	000aa503          	lw	a0,0(s5)
    616c:	004aa583          	lw	a1,4(s5)
    6170:	8626                	mv	a2,s1
    6172:	86a2                	mv	a3,s0
    6174:	83cfd0ef          	jal	ra,31b0 <__muldf3>
    6178:	84aa                	mv	s1,a0
    617a:	842e                	mv	s0,a1
    617c:	befd                	j	5d7a <_strtod_l+0xb4>
    617e:	02500713          	li	a4,37
    6182:	41b70733          	sub	a4,a4,s11
    6186:	05574f63          	blt	a4,s5,61e4 <_strtod_l+0x51e>
    618a:	41b78db3          	sub	s11,a5,s11
    618e:	00004917          	auipc	s2,0x4
    6192:	a8a90913          	addi	s2,s2,-1398 # 9c18 <__mprec_tens>
    6196:	003d9793          	slli	a5,s11,0x3
    619a:	97ca                	add	a5,a5,s2
    619c:	4388                	lw	a0,0(a5)
    619e:	43cc                	lw	a1,4(a5)
    61a0:	41ba8db3          	sub	s11,s5,s11
    61a4:	8626                	mv	a2,s1
    61a6:	86a2                	mv	a3,s0
    61a8:	0d8e                	slli	s11,s11,0x3
    61aa:	806fd0ef          	jal	ra,31b0 <__muldf3>
    61ae:	9dca                	add	s11,s11,s2
    61b0:	000da603          	lw	a2,0(s11)
    61b4:	004da683          	lw	a3,4(s11)
    61b8:	bf75                	j	6174 <_strtod_l+0x4ae>
    61ba:	57a9                	li	a5,-22
    61bc:	02fac463          	blt	s5,a5,61e4 <_strtod_l+0x51e>
    61c0:	413b09b3          	sub	s3,s6,s3
    61c4:	00399b13          	slli	s6,s3,0x3
    61c8:	00004997          	auipc	s3,0x4
    61cc:	a5098993          	addi	s3,s3,-1456 # 9c18 <__mprec_tens>
    61d0:	99da                	add	s3,s3,s6
    61d2:	0009a603          	lw	a2,0(s3)
    61d6:	0049a683          	lw	a3,4(s3)
    61da:	8526                	mv	a0,s1
    61dc:	85a2                	mv	a1,s0
    61de:	a1ffc0ef          	jal	ra,2bfc <__divdf3>
    61e2:	bf59                	j	6178 <_strtod_l+0x4b2>
    61e4:	41ad8d33          	sub	s10,s11,s10
    61e8:	9d56                	add	s10,s10,s5
    61ea:	11a05763          	blez	s10,62f8 <_strtod_l+0x632>
    61ee:	00fd7793          	andi	a5,s10,15
    61f2:	cf99                	beqz	a5,6210 <_strtod_l+0x54a>
    61f4:	00004717          	auipc	a4,0x4
    61f8:	a2470713          	addi	a4,a4,-1500 # 9c18 <__mprec_tens>
    61fc:	078e                	slli	a5,a5,0x3
    61fe:	97ba                	add	a5,a5,a4
    6200:	4388                	lw	a0,0(a5)
    6202:	43cc                	lw	a1,4(a5)
    6204:	8626                	mv	a2,s1
    6206:	86a2                	mv	a3,s0
    6208:	fa9fc0ef          	jal	ra,31b0 <__muldf3>
    620c:	84aa                	mv	s1,a0
    620e:	842e                	mv	s0,a1
    6210:	ff0d7d13          	andi	s10,s10,-16
    6214:	0a0d0863          	beqz	s10,62c4 <_strtod_l+0x5fe>
    6218:	13400793          	li	a5,308
    621c:	05a7d563          	bge	a5,s10,6266 <_strtod_l+0x5a0>
    6220:	4b01                	li	s6,0
    6222:	4981                	li	s3,0
    6224:	c602                	sw	zero,12(sp)
    6226:	4b81                	li	s7,0
    6228:	02200793          	li	a5,34
    622c:	00f92023          	sw	a5,0(s2)
    6230:	7ff00437          	lui	s0,0x7ff00
    6234:	4481                	li	s1,0
    6236:	47b2                	lw	a5,12(sp)
    6238:	b40781e3          	beqz	a5,5d7a <_strtod_l+0xb4>
    623c:	45c6                	lw	a1,80(sp)
    623e:	854a                	mv	a0,s2
    6240:	6dd010ef          	jal	ra,811c <_Bfree>
    6244:	85de                	mv	a1,s7
    6246:	854a                	mv	a0,s2
    6248:	6d5010ef          	jal	ra,811c <_Bfree>
    624c:	85ce                	mv	a1,s3
    624e:	854a                	mv	a0,s2
    6250:	6cd010ef          	jal	ra,811c <_Bfree>
    6254:	45b2                	lw	a1,12(sp)
    6256:	854a                	mv	a0,s2
    6258:	6c5010ef          	jal	ra,811c <_Bfree>
    625c:	85da                	mv	a1,s6
    625e:	854a                	mv	a0,s2
    6260:	6bd010ef          	jal	ra,811c <_Bfree>
    6264:	be19                	j	5d7a <_strtod_l+0xb4>
    6266:	404d5d13          	srai	s10,s10,0x4
    626a:	8526                	mv	a0,s1
    626c:	85a2                	mv	a1,s0
    626e:	4781                	li	a5,0
    6270:	4a01                	li	s4,0
    6272:	4805                	li	a6,1
    6274:	00004897          	auipc	a7,0x4
    6278:	97c88893          	addi	a7,a7,-1668 # 9bf0 <__mprec_bigtens>
    627c:	05a84663          	blt	a6,s10,62c8 <_strtod_l+0x602>
    6280:	c399                	beqz	a5,6286 <_strtod_l+0x5c0>
    6282:	84aa                	mv	s1,a0
    6284:	842e                	mv	s0,a1
    6286:	00004717          	auipc	a4,0x4
    628a:	96a70713          	addi	a4,a4,-1686 # 9bf0 <__mprec_bigtens>
    628e:	003a1793          	slli	a5,s4,0x3
    6292:	97ba                	add	a5,a5,a4
    6294:	4388                	lw	a0,0(a5)
    6296:	43cc                	lw	a1,4(a5)
    6298:	fcb00737          	lui	a4,0xfcb00
    629c:	9722                	add	a4,a4,s0
    629e:	8626                	mv	a2,s1
    62a0:	86ba                	mv	a3,a4
    62a2:	f0ffc0ef          	jal	ra,31b0 <__muldf3>
    62a6:	7ff00437          	lui	s0,0x7ff00
    62aa:	00b477b3          	and	a5,s0,a1
    62ae:	7ca00737          	lui	a4,0x7ca00
    62b2:	84aa                	mv	s1,a0
    62b4:	f6f766e3          	bltu	a4,a5,6220 <_strtod_l+0x55a>
    62b8:	7c900737          	lui	a4,0x7c900
    62bc:	02f77a63          	bgeu	a4,a5,62f0 <_strtod_l+0x62a>
    62c0:	147d                	addi	s0,s0,-1
    62c2:	54fd                	li	s1,-1
    62c4:	4a01                	li	s4,0
    62c6:	a8dd                	j	63bc <_strtod_l+0x6f6>
    62c8:	001d7713          	andi	a4,s10,1
    62cc:	cf11                	beqz	a4,62e8 <_strtod_l+0x622>
    62ce:	003a1713          	slli	a4,s4,0x3
    62d2:	9746                	add	a4,a4,a7
    62d4:	4310                	lw	a2,0(a4)
    62d6:	4354                	lw	a3,4(a4)
    62d8:	ed9fc0ef          	jal	ra,31b0 <__muldf3>
    62dc:	4785                	li	a5,1
    62de:	4805                	li	a6,1
    62e0:	00004897          	auipc	a7,0x4
    62e4:	91088893          	addi	a7,a7,-1776 # 9bf0 <__mprec_bigtens>
    62e8:	0a05                	addi	s4,s4,1
    62ea:	401d5d13          	srai	s10,s10,0x1
    62ee:	b779                	j	627c <_strtod_l+0x5b6>
    62f0:	03500437          	lui	s0,0x3500
    62f4:	942e                	add	s0,s0,a1
    62f6:	b7f9                	j	62c4 <_strtod_l+0x5fe>
    62f8:	fc0d06e3          	beqz	s10,62c4 <_strtod_l+0x5fe>
    62fc:	41a00d33          	neg	s10,s10
    6300:	00fd7793          	andi	a5,s10,15
    6304:	cf99                	beqz	a5,6322 <_strtod_l+0x65c>
    6306:	00004717          	auipc	a4,0x4
    630a:	91270713          	addi	a4,a4,-1774 # 9c18 <__mprec_tens>
    630e:	078e                	slli	a5,a5,0x3
    6310:	97ba                	add	a5,a5,a4
    6312:	4390                	lw	a2,0(a5)
    6314:	43d4                	lw	a3,4(a5)
    6316:	8526                	mv	a0,s1
    6318:	85a2                	mv	a1,s0
    631a:	8e3fc0ef          	jal	ra,2bfc <__divdf3>
    631e:	84aa                	mv	s1,a0
    6320:	842e                	mv	s0,a1
    6322:	404d5d13          	srai	s10,s10,0x4
    6326:	f80d0fe3          	beqz	s10,62c4 <_strtod_l+0x5fe>
    632a:	47fd                	li	a5,31
    632c:	01a7dd63          	bge	a5,s10,6346 <_strtod_l+0x680>
    6330:	4b01                	li	s6,0
    6332:	4981                	li	s3,0
    6334:	c602                	sw	zero,12(sp)
    6336:	4b81                	li	s7,0
    6338:	02200793          	li	a5,34
    633c:	4481                	li	s1,0
    633e:	4401                	li	s0,0
    6340:	00f92023          	sw	a5,0(s2)
    6344:	bdcd                	j	6236 <_strtod_l+0x570>
    6346:	010d7a13          	andi	s4,s10,16
    634a:	000a0463          	beqz	s4,6352 <_strtod_l+0x68c>
    634e:	06a00a13          	li	s4,106
    6352:	8526                	mv	a0,s1
    6354:	85a2                	mv	a1,s0
    6356:	00004797          	auipc	a5,0x4
    635a:	81a78793          	addi	a5,a5,-2022 # 9b70 <tinytens>
    635e:	4701                	li	a4,0
    6360:	001d7693          	andi	a3,s10,1
    6364:	ca81                	beqz	a3,6374 <_strtod_l+0x6ae>
    6366:	4390                	lw	a2,0(a5)
    6368:	43d4                	lw	a3,4(a5)
    636a:	c63e                	sw	a5,12(sp)
    636c:	e45fc0ef          	jal	ra,31b0 <__muldf3>
    6370:	47b2                	lw	a5,12(sp)
    6372:	4705                	li	a4,1
    6374:	401d5d13          	srai	s10,s10,0x1
    6378:	07a1                	addi	a5,a5,8
    637a:	fe0d13e3          	bnez	s10,6360 <_strtod_l+0x69a>
    637e:	c319                	beqz	a4,6384 <_strtod_l+0x6be>
    6380:	84aa                	mv	s1,a0
    6382:	842e                	mv	s0,a1
    6384:	020a0563          	beqz	s4,63ae <_strtod_l+0x6e8>
    6388:	01445793          	srli	a5,s0,0x14
    638c:	7ff7f713          	andi	a4,a5,2047
    6390:	06b00793          	li	a5,107
    6394:	8f99                	sub	a5,a5,a4
    6396:	00f05c63          	blez	a5,63ae <_strtod_l+0x6e8>
    639a:	477d                	li	a4,31
    639c:	22f75463          	bge	a4,a5,65c4 <_strtod_l+0x8fe>
    63a0:	03400713          	li	a4,52
    63a4:	4481                	li	s1,0
    63a6:	20f75963          	bge	a4,a5,65b8 <_strtod_l+0x8f2>
    63aa:	03700437          	lui	s0,0x3700
    63ae:	4601                	li	a2,0
    63b0:	4681                	li	a3,0
    63b2:	8526                	mv	a0,s1
    63b4:	85a2                	mv	a1,s0
    63b6:	497020ef          	jal	ra,904c <__eqdf2>
    63ba:	d93d                	beqz	a0,6330 <_strtod_l+0x66a>
    63bc:	875e                	mv	a4,s7
    63be:	86ee                	mv	a3,s11
    63c0:	8662                	mv	a2,s8
    63c2:	85e6                	mv	a1,s9
    63c4:	854a                	mv	a0,s2
    63c6:	633010ef          	jal	ra,81f8 <__s2b>
    63ca:	c62a                	sw	a0,12(sp)
    63cc:	e4050ae3          	beqz	a0,6220 <_strtod_l+0x55a>
    63d0:	41fad793          	srai	a5,s5,0x1f
    63d4:	413b09b3          	sub	s3,s6,s3
    63d8:	00f9f7b3          	and	a5,s3,a5
    63dc:	d03e                	sw	a5,32(sp)
    63de:	ce56                	sw	s5,28(sp)
    63e0:	000ad363          	bgez	s5,63e6 <_strtod_l+0x720>
    63e4:	ce02                	sw	zero,28(sp)
    63e6:	47b2                	lw	a5,12(sp)
    63e8:	4b01                	li	s6,0
    63ea:	4981                	li	s3,0
    63ec:	07b1                	addi	a5,a5,12
    63ee:	d83e                	sw	a5,48(sp)
    63f0:	001007b7          	lui	a5,0x100
    63f4:	17fd                	addi	a5,a5,-1
    63f6:	d63e                	sw	a5,44(sp)
    63f8:	47b2                	lw	a5,12(sp)
    63fa:	854a                	mv	a0,s2
    63fc:	43cc                	lw	a1,4(a5)
    63fe:	493010ef          	jal	ra,8090 <_Balloc>
    6402:	8baa                	mv	s7,a0
    6404:	e20502e3          	beqz	a0,6228 <_strtod_l+0x562>
    6408:	47b2                	lw	a5,12(sp)
    640a:	55c2                	lw	a1,48(sp)
    640c:	0531                	addi	a0,a0,12
    640e:	4b90                	lw	a2,16(a5)
    6410:	0609                	addi	a2,a2,2
    6412:	060a                	slli	a2,a2,0x2
    6414:	3c7010ef          	jal	ra,7fda <memcpy>
    6418:	08b8                	addi	a4,sp,88
    641a:	08d4                	addi	a3,sp,84
    641c:	8622                	mv	a2,s0
    641e:	85a6                	mv	a1,s1
    6420:	854a                	mv	a0,s2
    6422:	ca26                	sw	s1,20(sp)
    6424:	cc22                	sw	s0,24(sp)
    6426:	432020ef          	jal	ra,8858 <__d2b>
    642a:	c8aa                	sw	a0,80(sp)
    642c:	de050ee3          	beqz	a0,6228 <_strtod_l+0x562>
    6430:	4585                	li	a1,1
    6432:	854a                	mv	a0,s2
    6434:	71b010ef          	jal	ra,834e <__i2b>
    6438:	89aa                	mv	s3,a0
    643a:	de0507e3          	beqz	a0,6228 <_strtod_l+0x562>
    643e:	47d6                	lw	a5,84(sp)
    6440:	1807c763          	bltz	a5,65ce <_strtod_l+0x908>
    6444:	5702                	lw	a4,32(sp)
    6446:	4c72                	lw	s8,28(sp)
    6448:	00e78d33          	add	s10,a5,a4
    644c:	4766                	lw	a4,88(sp)
    644e:	414787b3          	sub	a5,a5,s4
    6452:	03600693          	li	a3,54
    6456:	97ba                	add	a5,a5,a4
    6458:	17fd                	addi	a5,a5,-1
    645a:	c0200d93          	li	s11,-1022
    645e:	8e99                	sub	a3,a3,a4
    6460:	19b7d663          	bge	a5,s11,65ec <_strtod_l+0x926>
    6464:	40fd8733          	sub	a4,s11,a5
    6468:	467d                	li	a2,31
    646a:	8e99                	sub	a3,a3,a4
    646c:	16e64663          	blt	a2,a4,65d8 <_strtod_l+0x912>
    6470:	4d85                	li	s11,1
    6472:	00ed97b3          	sll	a5,s11,a4
    6476:	d23e                	sw	a5,36(sp)
    6478:	4c81                	li	s9,0
    647a:	9c36                	add	s8,s8,a3
    647c:	00dd0db3          	add	s11,s10,a3
    6480:	9c52                	add	s8,s8,s4
    6482:	87ea                	mv	a5,s10
    6484:	01add363          	bge	s11,s10,648a <_strtod_l+0x7c4>
    6488:	87ee                	mv	a5,s11
    648a:	00fc5363          	bge	s8,a5,6490 <_strtod_l+0x7ca>
    648e:	87e2                	mv	a5,s8
    6490:	00f05863          	blez	a5,64a0 <_strtod_l+0x7da>
    6494:	40fd8db3          	sub	s11,s11,a5
    6498:	40fc0c33          	sub	s8,s8,a5
    649c:	40fd0d33          	sub	s10,s10,a5
    64a0:	5782                	lw	a5,32(sp)
    64a2:	02f05863          	blez	a5,64d2 <_strtod_l+0x80c>
    64a6:	85ce                	mv	a1,s3
    64a8:	863e                	mv	a2,a5
    64aa:	854a                	mv	a0,s2
    64ac:	002020ef          	jal	ra,84ae <__pow5mult>
    64b0:	89aa                	mv	s3,a0
    64b2:	d6050be3          	beqz	a0,6228 <_strtod_l+0x562>
    64b6:	4646                	lw	a2,80(sp)
    64b8:	85aa                	mv	a1,a0
    64ba:	854a                	mv	a0,s2
    64bc:	6af010ef          	jal	ra,836a <__multiply>
    64c0:	da2a                	sw	a0,52(sp)
    64c2:	d60503e3          	beqz	a0,6228 <_strtod_l+0x562>
    64c6:	45c6                	lw	a1,80(sp)
    64c8:	854a                	mv	a0,s2
    64ca:	453010ef          	jal	ra,811c <_Bfree>
    64ce:	57d2                	lw	a5,52(sp)
    64d0:	c8be                	sw	a5,80(sp)
    64d2:	11b04f63          	bgtz	s11,65f0 <_strtod_l+0x92a>
    64d6:	01505a63          	blez	s5,64ea <_strtod_l+0x824>
    64da:	4672                	lw	a2,28(sp)
    64dc:	85de                	mv	a1,s7
    64de:	854a                	mv	a0,s2
    64e0:	7cf010ef          	jal	ra,84ae <__pow5mult>
    64e4:	8baa                	mv	s7,a0
    64e6:	d40501e3          	beqz	a0,6228 <_strtod_l+0x562>
    64ea:	01805a63          	blez	s8,64fe <_strtod_l+0x838>
    64ee:	85de                	mv	a1,s7
    64f0:	8662                	mv	a2,s8
    64f2:	854a                	mv	a0,s2
    64f4:	078020ef          	jal	ra,856c <__lshift>
    64f8:	8baa                	mv	s7,a0
    64fa:	d20507e3          	beqz	a0,6228 <_strtod_l+0x562>
    64fe:	01a05a63          	blez	s10,6512 <_strtod_l+0x84c>
    6502:	85ce                	mv	a1,s3
    6504:	866a                	mv	a2,s10
    6506:	854a                	mv	a0,s2
    6508:	064020ef          	jal	ra,856c <__lshift>
    650c:	89aa                	mv	s3,a0
    650e:	d0050de3          	beqz	a0,6228 <_strtod_l+0x562>
    6512:	45c6                	lw	a1,80(sp)
    6514:	865e                	mv	a2,s7
    6516:	854a                	mv	a0,s2
    6518:	154020ef          	jal	ra,866c <__mdiff>
    651c:	8b2a                	mv	s6,a0
    651e:	d00505e3          	beqz	a0,6228 <_strtod_l+0x562>
    6522:	00c52c03          	lw	s8,12(a0)
    6526:	85ce                	mv	a1,s3
    6528:	00052623          	sw	zero,12(a0)
    652c:	10e020ef          	jal	ra,863a <__mcmp>
    6530:	0c055963          	bgez	a0,6602 <_strtod_l+0x93c>
    6534:	009c6c33          	or	s8,s8,s1
    6538:	120c1163          	bnez	s8,665a <_strtod_l+0x994>
    653c:	00c41793          	slli	a5,s0,0xc
    6540:	10079d63          	bnez	a5,665a <_strtod_l+0x994>
    6544:	7ff007b7          	lui	a5,0x7ff00
    6548:	8fe1                	and	a5,a5,s0
    654a:	06b00737          	lui	a4,0x6b00
    654e:	10f77663          	bgeu	a4,a5,665a <_strtod_l+0x994>
    6552:	014b2783          	lw	a5,20(s6)
    6556:	e791                	bnez	a5,6562 <_strtod_l+0x89c>
    6558:	010b2703          	lw	a4,16(s6)
    655c:	4785                	li	a5,1
    655e:	0ee7de63          	bge	a5,a4,665a <_strtod_l+0x994>
    6562:	85da                	mv	a1,s6
    6564:	4605                	li	a2,1
    6566:	854a                	mv	a0,s2
    6568:	004020ef          	jal	ra,856c <__lshift>
    656c:	85ce                	mv	a1,s3
    656e:	8b2a                	mv	s6,a0
    6570:	0ca020ef          	jal	ra,863a <__mcmp>
    6574:	0ea05363          	blez	a0,665a <_strtod_l+0x994>
    6578:	100a0c63          	beqz	s4,6690 <_strtod_l+0x9ca>
    657c:	7ff007b7          	lui	a5,0x7ff00
    6580:	8fe1                	and	a5,a5,s0
    6582:	06b00737          	lui	a4,0x6b00
    6586:	10f74563          	blt	a4,a5,6690 <_strtod_l+0x9ca>
    658a:	03700737          	lui	a4,0x3700
    658e:	daf755e3          	bge	a4,a5,6338 <_strtod_l+0x672>
    6592:	4701                	li	a4,0
    6594:	395007b7          	lui	a5,0x39500
    6598:	8526                	mv	a0,s1
    659a:	85a2                	mv	a1,s0
    659c:	863a                	mv	a2,a4
    659e:	86be                	mv	a3,a5
    65a0:	c11fc0ef          	jal	ra,31b0 <__muldf3>
    65a4:	842e                	mv	s0,a1
    65a6:	8dc9                	or	a1,a1,a0
    65a8:	84aa                	mv	s1,a0
    65aa:	c80599e3          	bnez	a1,623c <_strtod_l+0x576>
    65ae:	02200793          	li	a5,34
    65b2:	00f92023          	sw	a5,0(s2)
    65b6:	b159                	j	623c <_strtod_l+0x576>
    65b8:	1781                	addi	a5,a5,-32
    65ba:	577d                	li	a4,-1
    65bc:	00f717b3          	sll	a5,a4,a5
    65c0:	8c7d                	and	s0,s0,a5
    65c2:	b3f5                	j	63ae <_strtod_l+0x6e8>
    65c4:	577d                	li	a4,-1
    65c6:	00f717b3          	sll	a5,a4,a5
    65ca:	8cfd                	and	s1,s1,a5
    65cc:	b3cd                	j	63ae <_strtod_l+0x6e8>
    65ce:	4772                	lw	a4,28(sp)
    65d0:	5d02                	lw	s10,32(sp)
    65d2:	40f70c33          	sub	s8,a4,a5
    65d6:	bd9d                	j	644c <_strtod_l+0x786>
    65d8:	be200c93          	li	s9,-1054
    65dc:	40fc87b3          	sub	a5,s9,a5
    65e0:	4c85                	li	s9,1
    65e2:	00fc9cb3          	sll	s9,s9,a5
    65e6:	4785                	li	a5,1
    65e8:	d23e                	sw	a5,36(sp)
    65ea:	bd41                	j	647a <_strtod_l+0x7b4>
    65ec:	4c81                	li	s9,0
    65ee:	bfe5                	j	65e6 <_strtod_l+0x920>
    65f0:	45c6                	lw	a1,80(sp)
    65f2:	866e                	mv	a2,s11
    65f4:	854a                	mv	a0,s2
    65f6:	777010ef          	jal	ra,856c <__lshift>
    65fa:	c8aa                	sw	a0,80(sp)
    65fc:	ec051de3          	bnez	a0,64d6 <_strtod_l+0x810>
    6600:	b125                	j	6228 <_strtod_l+0x562>
    6602:	e969                	bnez	a0,66d4 <_strtod_l+0xa0e>
    6604:	00100737          	lui	a4,0x100
    6608:	177d                	addi	a4,a4,-1
    660a:	00e477b3          	and	a5,s0,a4
    660e:	040c0963          	beqz	s8,6660 <_strtod_l+0x99a>
    6612:	04e79963          	bne	a5,a4,6664 <_strtod_l+0x99e>
    6616:	577d                	li	a4,-1
    6618:	020a0063          	beqz	s4,6638 <_strtod_l+0x972>
    661c:	7ff007b7          	lui	a5,0x7ff00
    6620:	8fe1                	and	a5,a5,s0
    6622:	06a006b7          	lui	a3,0x6a00
    6626:	00f6e963          	bltu	a3,a5,6638 <_strtod_l+0x972>
    662a:	83d1                	srli	a5,a5,0x14
    662c:	06b00693          	li	a3,107
    6630:	40f687b3          	sub	a5,a3,a5
    6634:	00f71733          	sll	a4,a4,a5
    6638:	02e49663          	bne	s1,a4,6664 <_strtod_l+0x99e>
    663c:	7ff007b7          	lui	a5,0x7ff00
    6640:	17fd                	addi	a5,a5,-1
    6642:	00f41563          	bne	s0,a5,664c <_strtod_l+0x986>
    6646:	57fd                	li	a5,-1
    6648:	bef480e3          	beq	s1,a5,6228 <_strtod_l+0x562>
    664c:	7ff005b7          	lui	a1,0x7ff00
    6650:	8de1                	and	a1,a1,s0
    6652:	00100437          	lui	s0,0x100
    6656:	942e                	add	s0,s0,a1
    6658:	4481                	li	s1,0
    665a:	f20a1ce3          	bnez	s4,6592 <_strtod_l+0x8cc>
    665e:	bef9                	j	623c <_strtod_l+0x576>
    6660:	8fc5                	or	a5,a5,s1
    6662:	db99                	beqz	a5,6578 <_strtod_l+0x8b2>
    6664:	040c8263          	beqz	s9,66a8 <_strtod_l+0x9e2>
    6668:	008cfcb3          	and	s9,s9,s0
    666c:	fe0c87e3          	beqz	s9,665a <_strtod_l+0x994>
    6670:	8652                	mv	a2,s4
    6672:	8526                	mv	a0,s1
    6674:	85a2                	mv	a1,s0
    6676:	020c0f63          	beqz	s8,66b4 <_strtod_l+0x9ee>
    667a:	dfeff0ef          	jal	ra,5c78 <sulp>
    667e:	862a                	mv	a2,a0
    6680:	86ae                	mv	a3,a1
    6682:	4552                	lw	a0,20(sp)
    6684:	45e2                	lw	a1,24(sp)
    6686:	e47fb0ef          	jal	ra,24cc <__adddf3>
    668a:	84aa                	mv	s1,a0
    668c:	842e                	mv	s0,a1
    668e:	b7f1                	j	665a <_strtod_l+0x994>
    6690:	7ff005b7          	lui	a1,0x7ff00
    6694:	8de1                	and	a1,a1,s0
    6696:	fff00437          	lui	s0,0xfff00
    669a:	95a2                	add	a1,a1,s0
    669c:	00100437          	lui	s0,0x100
    66a0:	147d                	addi	s0,s0,-1
    66a2:	8c4d                	or	s0,s0,a1
    66a4:	54fd                	li	s1,-1
    66a6:	bf55                	j	665a <_strtod_l+0x994>
    66a8:	5792                	lw	a5,36(sp)
    66aa:	0097fdb3          	and	s11,a5,s1
    66ae:	fa0d86e3          	beqz	s11,665a <_strtod_l+0x994>
    66b2:	bf7d                	j	6670 <_strtod_l+0x9aa>
    66b4:	dc4ff0ef          	jal	ra,5c78 <sulp>
    66b8:	862a                	mv	a2,a0
    66ba:	86ae                	mv	a3,a1
    66bc:	4552                	lw	a0,20(sp)
    66be:	45e2                	lw	a1,24(sp)
    66c0:	fa9fc0ef          	jal	ra,3668 <__subdf3>
    66c4:	4601                	li	a2,0
    66c6:	4681                	li	a3,0
    66c8:	84aa                	mv	s1,a0
    66ca:	842e                	mv	s0,a1
    66cc:	181020ef          	jal	ra,904c <__eqdf2>
    66d0:	f549                	bnez	a0,665a <_strtod_l+0x994>
    66d2:	b19d                	j	6338 <_strtod_l+0x672>
    66d4:	85ce                	mv	a1,s3
    66d6:	855a                	mv	a0,s6
    66d8:	254020ef          	jal	ra,892c <__ratio>
    66dc:	00003797          	auipc	a5,0x3
    66e0:	43478793          	addi	a5,a5,1076 # 9b10 <__clz_tab+0x174>
    66e4:	4390                	lw	a2,0(a5)
    66e6:	43d4                	lw	a3,4(a5)
    66e8:	8d2a                	mv	s10,a0
    66ea:	8dae                	mv	s11,a1
    66ec:	279020ef          	jal	ra,9164 <__ledf2>
    66f0:	10a04263          	bgtz	a0,67f4 <_strtod_l+0xb2e>
    66f4:	0a0c0163          	beqz	s8,6796 <_strtod_l+0xad0>
    66f8:	4d81                	li	s11,0
    66fa:	3ff00d37          	lui	s10,0x3ff00
    66fe:	4701                	li	a4,0
    6700:	3ff007b7          	lui	a5,0x3ff00
    6704:	7ff006b7          	lui	a3,0x7ff00
    6708:	00d47cb3          	and	s9,s0,a3
    670c:	7fe006b7          	lui	a3,0x7fe00
    6710:	16dc9f63          	bne	s9,a3,688e <_strtod_l+0xbc8>
    6714:	d26a                	sw	s10,36(sp)
    6716:	fcb00d37          	lui	s10,0xfcb00
    671a:	9d22                	add	s10,s10,s0
    671c:	8526                	mv	a0,s1
    671e:	85ea                	mv	a1,s10
    6720:	de3e                	sw	a5,60(sp)
    6722:	dc3a                	sw	a4,56(sp)
    6724:	da6e                	sw	s11,52(sp)
    6726:	038020ef          	jal	ra,875e <__ulp>
    672a:	58d2                	lw	a7,52(sp)
    672c:	5812                	lw	a6,36(sp)
    672e:	862a                	mv	a2,a0
    6730:	86ae                	mv	a3,a1
    6732:	8546                	mv	a0,a7
    6734:	85c2                	mv	a1,a6
    6736:	a7bfc0ef          	jal	ra,31b0 <__muldf3>
    673a:	8626                	mv	a2,s1
    673c:	86ea                	mv	a3,s10
    673e:	d8ffb0ef          	jal	ra,24cc <__adddf3>
    6742:	84aa                	mv	s1,a0
    6744:	7ff00537          	lui	a0,0x7ff00
    6748:	00b57633          	and	a2,a0,a1
    674c:	7ca006b7          	lui	a3,0x7ca00
    6750:	5762                	lw	a4,56(sp)
    6752:	57f2                	lw	a5,60(sp)
    6754:	0cd66563          	bltu	a2,a3,681e <_strtod_l+0xb58>
    6758:	4762                	lw	a4,24(sp)
    675a:	fff50793          	addi	a5,a0,-1 # 7fefffff <_eusrstack+0x5fef7fff>
    675e:	00e79663          	bne	a5,a4,676a <_strtod_l+0xaa4>
    6762:	4752                	lw	a4,20(sp)
    6764:	57fd                	li	a5,-1
    6766:	ace781e3          	beq	a5,a4,6228 <_strtod_l+0x562>
    676a:	7ff007b7          	lui	a5,0x7ff00
    676e:	fff78413          	addi	s0,a5,-1 # 7fefffff <_eusrstack+0x5fef7fff>
    6772:	54fd                	li	s1,-1
    6774:	45c6                	lw	a1,80(sp)
    6776:	854a                	mv	a0,s2
    6778:	1a5010ef          	jal	ra,811c <_Bfree>
    677c:	85de                	mv	a1,s7
    677e:	854a                	mv	a0,s2
    6780:	19d010ef          	jal	ra,811c <_Bfree>
    6784:	85ce                	mv	a1,s3
    6786:	854a                	mv	a0,s2
    6788:	195010ef          	jal	ra,811c <_Bfree>
    678c:	85da                	mv	a1,s6
    678e:	854a                	mv	a0,s2
    6790:	18d010ef          	jal	ra,811c <_Bfree>
    6794:	b195                	j	63f8 <_strtod_l+0x732>
    6796:	e0b1                	bnez	s1,67da <_strtod_l+0xb14>
    6798:	57b2                	lw	a5,44(sp)
    679a:	8fe1                	and	a5,a5,s0
    679c:	e7a1                	bnez	a5,67e4 <_strtod_l+0xb1e>
    679e:	00003797          	auipc	a5,0x3
    67a2:	36a78793          	addi	a5,a5,874 # 9b08 <__clz_tab+0x16c>
    67a6:	4390                	lw	a2,0(a5)
    67a8:	43d4                	lw	a3,4(a5)
    67aa:	856a                	mv	a0,s10
    67ac:	85ee                	mv	a1,s11
    67ae:	1b7020ef          	jal	ra,9164 <__ledf2>
    67b2:	02054d63          	bltz	a0,67ec <_strtod_l+0xb26>
    67b6:	00003797          	auipc	a5,0x3
    67ba:	0a278793          	addi	a5,a5,162 # 9858 <COS_Factor+0xd4>
    67be:	4390                	lw	a2,0(a5)
    67c0:	43d4                	lw	a3,4(a5)
    67c2:	856a                	mv	a0,s10
    67c4:	85ee                	mv	a1,s11
    67c6:	9ebfc0ef          	jal	ra,31b0 <__muldf3>
    67ca:	872a                	mv	a4,a0
    67cc:	87ae                	mv	a5,a1
    67ce:	80000d37          	lui	s10,0x80000
    67d2:	8dba                	mv	s11,a4
    67d4:	00fd4d33          	xor	s10,s10,a5
    67d8:	b735                	j	6704 <_strtod_l+0xa3e>
    67da:	4785                	li	a5,1
    67dc:	00f49463          	bne	s1,a5,67e4 <_strtod_l+0xb1e>
    67e0:	b4040ce3          	beqz	s0,6338 <_strtod_l+0x672>
    67e4:	4d81                	li	s11,0
    67e6:	bff00d37          	lui	s10,0xbff00
    67ea:	bf11                	j	66fe <_strtod_l+0xa38>
    67ec:	4701                	li	a4,0
    67ee:	3fe007b7          	lui	a5,0x3fe00
    67f2:	bff1                	j	67ce <_strtod_l+0xb08>
    67f4:	00003797          	auipc	a5,0x3
    67f8:	06478793          	addi	a5,a5,100 # 9858 <COS_Factor+0xd4>
    67fc:	4390                	lw	a2,0(a5)
    67fe:	43d4                	lw	a3,4(a5)
    6800:	856a                	mv	a0,s10
    6802:	85ee                	mv	a1,s11
    6804:	9adfc0ef          	jal	ra,31b0 <__muldf3>
    6808:	872a                	mv	a4,a0
    680a:	87ae                	mv	a5,a1
    680c:	8d2e                	mv	s10,a1
    680e:	000c1663          	bnez	s8,681a <_strtod_l+0xb54>
    6812:	80000d37          	lui	s10,0x80000
    6816:	00bd4d33          	xor	s10,s10,a1
    681a:	8daa                	mv	s11,a0
    681c:	b5e5                	j	6704 <_strtod_l+0xa3e>
    681e:	03500437          	lui	s0,0x3500
    6822:	942e                	add	s0,s0,a1
    6824:	f40a18e3          	bnez	s4,6774 <_strtod_l+0xaae>
    6828:	7ff006b7          	lui	a3,0x7ff00
    682c:	8ee1                	and	a3,a3,s0
    682e:	f4dc93e3          	bne	s9,a3,6774 <_strtod_l+0xaae>
    6832:	85be                	mv	a1,a5
    6834:	853a                	mv	a0,a4
    6836:	8d3a                	mv	s10,a4
    6838:	8cbe                	mv	s9,a5
    683a:	21d020ef          	jal	ra,9256 <__fixdfsi>
    683e:	d68fd0ef          	jal	ra,3da6 <__floatsidf>
    6842:	862a                	mv	a2,a0
    6844:	86ae                	mv	a3,a1
    6846:	856a                	mv	a0,s10
    6848:	85e6                	mv	a1,s9
    684a:	e1ffc0ef          	jal	ra,3668 <__subdf3>
    684e:	57b2                	lw	a5,44(sp)
    6850:	8d2a                	mv	s10,a0
    6852:	8dae                	mv	s11,a1
    6854:	8fe1                	and	a5,a5,s0
    6856:	8fc5                	or	a5,a5,s1
    6858:	0187ec33          	or	s8,a5,s8
    685c:	0a0c0b63          	beqz	s8,6912 <_strtod_l+0xc4c>
    6860:	00003797          	auipc	a5,0x3
    6864:	2c078793          	addi	a5,a5,704 # 9b20 <__clz_tab+0x184>
    6868:	4390                	lw	a2,0(a5)
    686a:	43d4                	lw	a3,4(a5)
    686c:	0f9020ef          	jal	ra,9164 <__ledf2>
    6870:	9c0546e3          	bltz	a0,623c <_strtod_l+0x576>
    6874:	00003797          	auipc	a5,0x3
    6878:	2b478793          	addi	a5,a5,692 # 9b28 <__clz_tab+0x18c>
    687c:	4390                	lw	a2,0(a5)
    687e:	43d4                	lw	a3,4(a5)
    6880:	856a                	mv	a0,s10
    6882:	85ee                	mv	a1,s11
    6884:	033020ef          	jal	ra,90b6 <__gedf2>
    6888:	eea056e3          	blez	a0,6774 <_strtod_l+0xaae>
    688c:	ba45                	j	623c <_strtod_l+0x576>
    688e:	040a0d63          	beqz	s4,68e8 <_strtod_l+0xc22>
    6892:	06a006b7          	lui	a3,0x6a00
    6896:	0596e963          	bltu	a3,s9,68e8 <_strtod_l+0xc22>
    689a:	00003697          	auipc	a3,0x3
    689e:	27e68693          	addi	a3,a3,638 # 9b18 <__clz_tab+0x17c>
    68a2:	4290                	lw	a2,0(a3)
    68a4:	42d4                	lw	a3,4(a3)
    68a6:	853a                	mv	a0,a4
    68a8:	85be                	mv	a1,a5
    68aa:	da3a                	sw	a4,52(sp)
    68ac:	d23e                	sw	a5,36(sp)
    68ae:	0b7020ef          	jal	ra,9164 <__ledf2>
    68b2:	5792                	lw	a5,36(sp)
    68b4:	5752                	lw	a4,52(sp)
    68b6:	02a04463          	bgtz	a0,68de <_strtod_l+0xc18>
    68ba:	853a                	mv	a0,a4
    68bc:	85be                	mv	a1,a5
    68be:	201020ef          	jal	ra,92be <__fixunsdfsi>
    68c2:	e111                	bnez	a0,68c6 <_strtod_l+0xc00>
    68c4:	4505                	li	a0,1
    68c6:	255020ef          	jal	ra,931a <__floatunsidf>
    68ca:	872a                	mv	a4,a0
    68cc:	87ae                	mv	a5,a1
    68ce:	8d2e                	mv	s10,a1
    68d0:	000c1663          	bnez	s8,68dc <_strtod_l+0xc16>
    68d4:	80000d37          	lui	s10,0x80000
    68d8:	00bd4d33          	xor	s10,s10,a1
    68dc:	8daa                	mv	s11,a0
    68de:	06b005b7          	lui	a1,0x6b00
    68e2:	9d2e                	add	s10,s10,a1
    68e4:	419d0d33          	sub	s10,s10,s9
    68e8:	4552                	lw	a0,20(sp)
    68ea:	45e2                	lw	a1,24(sp)
    68ec:	da3e                	sw	a5,52(sp)
    68ee:	d23a                	sw	a4,36(sp)
    68f0:	66f010ef          	jal	ra,875e <__ulp>
    68f4:	862a                	mv	a2,a0
    68f6:	86ae                	mv	a3,a1
    68f8:	856e                	mv	a0,s11
    68fa:	85ea                	mv	a1,s10
    68fc:	8b5fc0ef          	jal	ra,31b0 <__muldf3>
    6900:	4652                	lw	a2,20(sp)
    6902:	46e2                	lw	a3,24(sp)
    6904:	bc9fb0ef          	jal	ra,24cc <__adddf3>
    6908:	84aa                	mv	s1,a0
    690a:	842e                	mv	s0,a1
    690c:	57d2                	lw	a5,52(sp)
    690e:	5712                	lw	a4,36(sp)
    6910:	bf11                	j	6824 <_strtod_l+0xb5e>
    6912:	00003797          	auipc	a5,0x3
    6916:	21e78793          	addi	a5,a5,542 # 9b30 <__clz_tab+0x194>
    691a:	4390                	lw	a2,0(a5)
    691c:	43d4                	lw	a3,4(a5)
    691e:	047020ef          	jal	ra,9164 <__ledf2>
    6922:	e40559e3          	bgez	a0,6774 <_strtod_l+0xaae>
    6926:	ba19                	j	623c <_strtod_l+0x576>
    6928:	06500713          	li	a4,101
    692c:	00e78763          	beq	a5,a4,693a <_strtod_l+0xc74>
    6930:	04500713          	li	a4,69
    6934:	4505                	li	a0,1
    6936:	eee79763          	bne	a5,a4,6024 <_strtod_l+0x35e>
    693a:	4b01                	li	s6,0
    693c:	4505                	li	a0,1
    693e:	d78ff06f          	j	5eb6 <_strtod_l+0x1f0>

00006942 <_strtod_r>:
    6942:	1fffa797          	auipc	a5,0x1fffa
    6946:	08e78793          	addi	a5,a5,142 # 200009d0 <_impure_ptr>
    694a:	439c                	lw	a5,0(a5)
    694c:	5394                	lw	a3,32(a5)
    694e:	e689                	bnez	a3,6958 <_strtod_r+0x16>
    6950:	1fffa697          	auipc	a3,0x1fffa
    6954:	f1068693          	addi	a3,a3,-240 # 20000860 <__global_locale>
    6958:	b6eff06f          	j	5cc6 <_strtod_l>

0000695c <_strtol_l.isra.0>:
    695c:	7179                	addi	sp,sp,-48
    695e:	d04a                	sw	s2,32(sp)
    6960:	ce4e                	sw	s3,28(sp)
    6962:	d606                	sw	ra,44(sp)
    6964:	d422                	sw	s0,40(sp)
    6966:	d226                	sw	s1,36(sp)
    6968:	89aa                	mv	s3,a0
    696a:	892e                	mv	s2,a1
    696c:	00190493          	addi	s1,s2,1
    6970:	fff4c403          	lbu	s0,-1(s1)
    6974:	853a                	mv	a0,a4
    6976:	c636                	sw	a3,12(sp)
    6978:	c432                	sw	a2,8(sp)
    697a:	c22e                	sw	a1,4(sp)
    697c:	c03a                	sw	a4,0(sp)
    697e:	5d0010ef          	jal	ra,7f4e <__locale_ctype_ptr_l>
    6982:	9522                	add	a0,a0,s0
    6984:	00154783          	lbu	a5,1(a0)
    6988:	4702                	lw	a4,0(sp)
    698a:	4592                	lw	a1,4(sp)
    698c:	8ba1                	andi	a5,a5,8
    698e:	4622                	lw	a2,8(sp)
    6990:	46b2                	lw	a3,12(sp)
    6992:	e7c9                	bnez	a5,6a1c <_strtol_l.isra.0+0xc0>
    6994:	02d00793          	li	a5,45
    6998:	08f41463          	bne	s0,a5,6a20 <_strtol_l.isra.0+0xc4>
    699c:	0004c783          	lbu	a5,0(s1)
    69a0:	4305                	li	t1,1
    69a2:	00290493          	addi	s1,s2,2
    69a6:	c6fd                	beqz	a3,6a94 <_strtol_l.isra.0+0x138>
    69a8:	4741                	li	a4,16
    69aa:	02e69263          	bne	a3,a4,69ce <_strtol_l.isra.0+0x72>
    69ae:	03000713          	li	a4,48
    69b2:	00e79e63          	bne	a5,a4,69ce <_strtol_l.isra.0+0x72>
    69b6:	0004c783          	lbu	a5,0(s1)
    69ba:	05800713          	li	a4,88
    69be:	0df7f793          	andi	a5,a5,223
    69c2:	0ce79463          	bne	a5,a4,6a8a <_strtol_l.isra.0+0x12e>
    69c6:	0014c783          	lbu	a5,1(s1)
    69ca:	46c1                	li	a3,16
    69cc:	0489                	addi	s1,s1,2
    69ce:	800008b7          	lui	a7,0x80000
    69d2:	00031463          	bnez	t1,69da <_strtol_l.isra.0+0x7e>
    69d6:	fff8c893          	not	a7,a7
    69da:	02d8ff33          	remu	t5,a7,a3
    69de:	4801                	li	a6,0
    69e0:	4501                	li	a0,0
    69e2:	4fa5                	li	t6,9
    69e4:	4ee5                	li	t4,25
    69e6:	52fd                	li	t0,-1
    69e8:	02d8de33          	divu	t3,a7,a3
    69ec:	fd078713          	addi	a4,a5,-48
    69f0:	04efe463          	bltu	t6,a4,6a38 <_strtol_l.isra.0+0xdc>
    69f4:	87ba                	mv	a5,a4
    69f6:	04d7df63          	bge	a5,a3,6a54 <_strtol_l.isra.0+0xf8>
    69fa:	00580d63          	beq	a6,t0,6a14 <_strtol_l.isra.0+0xb8>
    69fe:	587d                	li	a6,-1
    6a00:	00ae6a63          	bltu	t3,a0,6a14 <_strtol_l.isra.0+0xb8>
    6a04:	00ae1463          	bne	t3,a0,6a0c <_strtol_l.isra.0+0xb0>
    6a08:	00ff4663          	blt	t5,a5,6a14 <_strtol_l.isra.0+0xb8>
    6a0c:	4805                	li	a6,1
    6a0e:	02a68533          	mul	a0,a3,a0
    6a12:	953e                	add	a0,a0,a5
    6a14:	0485                	addi	s1,s1,1
    6a16:	fff4c783          	lbu	a5,-1(s1)
    6a1a:	bfc9                	j	69ec <_strtol_l.isra.0+0x90>
    6a1c:	8926                	mv	s2,s1
    6a1e:	b7b9                	j	696c <_strtol_l.isra.0+0x10>
    6a20:	02b00793          	li	a5,43
    6a24:	00f40563          	beq	s0,a5,6a2e <_strtol_l.isra.0+0xd2>
    6a28:	87a2                	mv	a5,s0
    6a2a:	4301                	li	t1,0
    6a2c:	bfad                	j	69a6 <_strtol_l.isra.0+0x4a>
    6a2e:	0004c783          	lbu	a5,0(s1)
    6a32:	00290493          	addi	s1,s2,2
    6a36:	bfd5                	j	6a2a <_strtol_l.isra.0+0xce>
    6a38:	fbf78713          	addi	a4,a5,-65
    6a3c:	00eee563          	bltu	t4,a4,6a46 <_strtol_l.isra.0+0xea>
    6a40:	fc978793          	addi	a5,a5,-55
    6a44:	bf4d                	j	69f6 <_strtol_l.isra.0+0x9a>
    6a46:	f9f78713          	addi	a4,a5,-97
    6a4a:	00eee563          	bltu	t4,a4,6a54 <_strtol_l.isra.0+0xf8>
    6a4e:	fa978793          	addi	a5,a5,-87
    6a52:	b755                	j	69f6 <_strtol_l.isra.0+0x9a>
    6a54:	57fd                	li	a5,-1
    6a56:	00f81f63          	bne	a6,a5,6a74 <_strtol_l.isra.0+0x118>
    6a5a:	02200793          	li	a5,34
    6a5e:	00f9a023          	sw	a5,0(s3)
    6a62:	8546                	mv	a0,a7
    6a64:	ee19                	bnez	a2,6a82 <_strtol_l.isra.0+0x126>
    6a66:	50b2                	lw	ra,44(sp)
    6a68:	5422                	lw	s0,40(sp)
    6a6a:	5492                	lw	s1,36(sp)
    6a6c:	5902                	lw	s2,32(sp)
    6a6e:	49f2                	lw	s3,28(sp)
    6a70:	6145                	addi	sp,sp,48
    6a72:	8082                	ret
    6a74:	00030463          	beqz	t1,6a7c <_strtol_l.isra.0+0x120>
    6a78:	40a00533          	neg	a0,a0
    6a7c:	d66d                	beqz	a2,6a66 <_strtol_l.isra.0+0x10a>
    6a7e:	00080463          	beqz	a6,6a86 <_strtol_l.isra.0+0x12a>
    6a82:	fff48593          	addi	a1,s1,-1
    6a86:	c20c                	sw	a1,0(a2)
    6a88:	bff9                	j	6a66 <_strtol_l.isra.0+0x10a>
    6a8a:	03000793          	li	a5,48
    6a8e:	f2a1                	bnez	a3,69ce <_strtol_l.isra.0+0x72>
    6a90:	46a1                	li	a3,8
    6a92:	bf35                	j	69ce <_strtol_l.isra.0+0x72>
    6a94:	03000713          	li	a4,48
    6a98:	f0e78fe3          	beq	a5,a4,69b6 <_strtol_l.isra.0+0x5a>
    6a9c:	46a9                	li	a3,10
    6a9e:	bf05                	j	69ce <_strtol_l.isra.0+0x72>

00006aa0 <_strtol_r>:
    6aa0:	1fffa797          	auipc	a5,0x1fffa
    6aa4:	f3078793          	addi	a5,a5,-208 # 200009d0 <_impure_ptr>
    6aa8:	439c                	lw	a5,0(a5)
    6aaa:	5398                	lw	a4,32(a5)
    6aac:	e709                	bnez	a4,6ab6 <_strtol_r+0x16>
    6aae:	1fffa717          	auipc	a4,0x1fffa
    6ab2:	db270713          	addi	a4,a4,-590 # 20000860 <__global_locale>
    6ab6:	b55d                	j	695c <_strtol_l.isra.0>

00006ab8 <quorem>:
    6ab8:	1101                	addi	sp,sp,-32
    6aba:	cc22                	sw	s0,24(sp)
    6abc:	491c                	lw	a5,16(a0)
    6abe:	4980                	lw	s0,16(a1)
    6ac0:	ce06                	sw	ra,28(sp)
    6ac2:	ca26                	sw	s1,20(sp)
    6ac4:	c84a                	sw	s2,16(sp)
    6ac6:	c64e                	sw	s3,12(sp)
    6ac8:	c452                	sw	s4,8(sp)
    6aca:	c256                	sw	s5,4(sp)
    6acc:	1287c163          	blt	a5,s0,6bee <quorem+0x136>
    6ad0:	147d                	addi	s0,s0,-1
    6ad2:	00241813          	slli	a6,s0,0x2
    6ad6:	01458993          	addi	s3,a1,20 # 6b00014 <_data_lma+0x6af6210>
    6ada:	01098a33          	add	s4,s3,a6
    6ade:	01450913          	addi	s2,a0,20
    6ae2:	984a                	add	a6,a6,s2
    6ae4:	000a2783          	lw	a5,0(s4)
    6ae8:	00082703          	lw	a4,0(a6)
    6aec:	0785                	addi	a5,a5,1
    6aee:	02f754b3          	divu	s1,a4,a5
    6af2:	06f76663          	bltu	a4,a5,6b5e <quorem+0xa6>
    6af6:	68c1                	lui	a7,0x10
    6af8:	834e                	mv	t1,s3
    6afa:	8e4a                	mv	t3,s2
    6afc:	4e81                	li	t4,0
    6afe:	4f01                	li	t5,0
    6b00:	18fd                	addi	a7,a7,-1
    6b02:	0311                	addi	t1,t1,4
    6b04:	ffc32603          	lw	a2,-4(t1)
    6b08:	0e11                	addi	t3,t3,4
    6b0a:	01167733          	and	a4,a2,a7
    6b0e:	8241                	srli	a2,a2,0x10
    6b10:	02970733          	mul	a4,a4,s1
    6b14:	02960633          	mul	a2,a2,s1
    6b18:	9776                	add	a4,a4,t4
    6b1a:	01075693          	srli	a3,a4,0x10
    6b1e:	011777b3          	and	a5,a4,a7
    6b22:	40ff07b3          	sub	a5,t5,a5
    6b26:	9636                	add	a2,a2,a3
    6b28:	ffce2683          	lw	a3,-4(t3)
    6b2c:	01065e93          	srli	t4,a2,0x10
    6b30:	01167633          	and	a2,a2,a7
    6b34:	0116f733          	and	a4,a3,a7
    6b38:	97ba                	add	a5,a5,a4
    6b3a:	82c1                	srli	a3,a3,0x10
    6b3c:	4107d713          	srai	a4,a5,0x10
    6b40:	8e91                	sub	a3,a3,a2
    6b42:	96ba                	add	a3,a3,a4
    6b44:	4106df13          	srai	t5,a3,0x10
    6b48:	0117f7b3          	and	a5,a5,a7
    6b4c:	06c2                	slli	a3,a3,0x10
    6b4e:	8fd5                	or	a5,a5,a3
    6b50:	fefe2e23          	sw	a5,-4(t3)
    6b54:	fa6a77e3          	bgeu	s4,t1,6b02 <quorem+0x4a>
    6b58:	00082783          	lw	a5,0(a6)
    6b5c:	cbbd                	beqz	a5,6bd2 <quorem+0x11a>
    6b5e:	8aaa                	mv	s5,a0
    6b60:	2db010ef          	jal	ra,863a <__mcmp>
    6b64:	04054963          	bltz	a0,6bb6 <quorem+0xfe>
    6b68:	6641                	lui	a2,0x10
    6b6a:	0485                	addi	s1,s1,1
    6b6c:	85ca                	mv	a1,s2
    6b6e:	4501                	li	a0,0
    6b70:	167d                	addi	a2,a2,-1
    6b72:	0991                	addi	s3,s3,4
    6b74:	ffc9a803          	lw	a6,-4(s3)
    6b78:	4198                	lw	a4,0(a1)
    6b7a:	0591                	addi	a1,a1,4
    6b7c:	00c876b3          	and	a3,a6,a2
    6b80:	8d15                	sub	a0,a0,a3
    6b82:	00c776b3          	and	a3,a4,a2
    6b86:	96aa                	add	a3,a3,a0
    6b88:	01075793          	srli	a5,a4,0x10
    6b8c:	01085813          	srli	a6,a6,0x10
    6b90:	4106d713          	srai	a4,a3,0x10
    6b94:	410787b3          	sub	a5,a5,a6
    6b98:	97ba                	add	a5,a5,a4
    6b9a:	4107d513          	srai	a0,a5,0x10
    6b9e:	8ef1                	and	a3,a3,a2
    6ba0:	07c2                	slli	a5,a5,0x10
    6ba2:	8fd5                	or	a5,a5,a3
    6ba4:	fef5ae23          	sw	a5,-4(a1)
    6ba8:	fd3a75e3          	bgeu	s4,s3,6b72 <quorem+0xba>
    6bac:	00241793          	slli	a5,s0,0x2
    6bb0:	97ca                	add	a5,a5,s2
    6bb2:	4398                	lw	a4,0(a5)
    6bb4:	c71d                	beqz	a4,6be2 <quorem+0x12a>
    6bb6:	8526                	mv	a0,s1
    6bb8:	40f2                	lw	ra,28(sp)
    6bba:	4462                	lw	s0,24(sp)
    6bbc:	44d2                	lw	s1,20(sp)
    6bbe:	4942                	lw	s2,16(sp)
    6bc0:	49b2                	lw	s3,12(sp)
    6bc2:	4a22                	lw	s4,8(sp)
    6bc4:	4a92                	lw	s5,4(sp)
    6bc6:	6105                	addi	sp,sp,32
    6bc8:	8082                	ret
    6bca:	00082783          	lw	a5,0(a6)
    6bce:	e789                	bnez	a5,6bd8 <quorem+0x120>
    6bd0:	147d                	addi	s0,s0,-1
    6bd2:	1871                	addi	a6,a6,-4
    6bd4:	ff096be3          	bltu	s2,a6,6bca <quorem+0x112>
    6bd8:	c900                	sw	s0,16(a0)
    6bda:	b751                	j	6b5e <quorem+0xa6>
    6bdc:	4398                	lw	a4,0(a5)
    6bde:	e709                	bnez	a4,6be8 <quorem+0x130>
    6be0:	147d                	addi	s0,s0,-1
    6be2:	17f1                	addi	a5,a5,-4
    6be4:	fef96ce3          	bltu	s2,a5,6bdc <quorem+0x124>
    6be8:	008aa823          	sw	s0,16(s5)
    6bec:	b7e9                	j	6bb6 <quorem+0xfe>
    6bee:	4501                	li	a0,0
    6bf0:	b7e1                	j	6bb8 <quorem+0x100>

00006bf2 <_dtoa_r>:
    6bf2:	7175                	addi	sp,sp,-144
    6bf4:	d83e                	sw	a5,48(sp)
    6bf6:	515c                	lw	a5,36(a0)
    6bf8:	c522                	sw	s0,136(sp)
    6bfa:	c326                	sw	s1,132(sp)
    6bfc:	c14a                	sw	s2,128(sp)
    6bfe:	dece                	sw	s3,124(sp)
    6c00:	dcd2                	sw	s4,120(sp)
    6c02:	d4e2                	sw	s8,104(sp)
    6c04:	c706                	sw	ra,140(sp)
    6c06:	dad6                	sw	s5,116(sp)
    6c08:	d8da                	sw	s6,112(sp)
    6c0a:	d6de                	sw	s7,108(sp)
    6c0c:	d2e6                	sw	s9,100(sp)
    6c0e:	d0ea                	sw	s10,96(sp)
    6c10:	ceee                	sw	s11,92(sp)
    6c12:	c236                	sw	a3,4(sp)
    6c14:	c63a                	sw	a4,12(sp)
    6c16:	ca46                	sw	a7,20(sp)
    6c18:	84aa                	mv	s1,a0
    6c1a:	842e                	mv	s0,a1
    6c1c:	8932                	mv	s2,a2
    6c1e:	89c2                	mv	s3,a6
    6c20:	8a2e                	mv	s4,a1
    6c22:	8c32                	mv	s8,a2
    6c24:	ef89                	bnez	a5,6c3e <_dtoa_r+0x4c>
    6c26:	4541                	li	a0,16
    6c28:	34e010ef          	jal	ra,7f76 <malloc>
    6c2c:	d0c8                	sw	a0,36(s1)
    6c2e:	00052223          	sw	zero,4(a0)
    6c32:	00052423          	sw	zero,8(a0)
    6c36:	00052023          	sw	zero,0(a0)
    6c3a:	00052623          	sw	zero,12(a0)
    6c3e:	50dc                	lw	a5,36(s1)
    6c40:	438c                	lw	a1,0(a5)
    6c42:	cd89                	beqz	a1,6c5c <_dtoa_r+0x6a>
    6c44:	43d8                	lw	a4,4(a5)
    6c46:	4785                	li	a5,1
    6c48:	8526                	mv	a0,s1
    6c4a:	00e797b3          	sll	a5,a5,a4
    6c4e:	c59c                	sw	a5,8(a1)
    6c50:	c1d8                	sw	a4,4(a1)
    6c52:	4ca010ef          	jal	ra,811c <_Bfree>
    6c56:	50dc                	lw	a5,36(s1)
    6c58:	0007a023          	sw	zero,0(a5)
    6c5c:	04095363          	bgez	s2,6ca2 <_dtoa_r+0xb0>
    6c60:	4785                	li	a5,1
    6c62:	00191c13          	slli	s8,s2,0x1
    6c66:	00f9a023          	sw	a5,0(s3)
    6c6a:	001c5c13          	srli	s8,s8,0x1
    6c6e:	7ff007b7          	lui	a5,0x7ff00
    6c72:	00fc7733          	and	a4,s8,a5
    6c76:	06f71463          	bne	a4,a5,6cde <_dtoa_r+0xec>
    6c7a:	5742                	lw	a4,48(sp)
    6c7c:	6789                	lui	a5,0x2
    6c7e:	0c32                	slli	s8,s8,0xc
    6c80:	70f78793          	addi	a5,a5,1807 # 270f <__adddf3+0x243>
    6c84:	00cc5c13          	srli	s8,s8,0xc
    6c88:	c31c                	sw	a5,0(a4)
    6c8a:	008c6c33          	or	s8,s8,s0
    6c8e:	320c05e3          	beqz	s8,77b8 <_dtoa_r+0xbc6>
    6c92:	47d2                	lw	a5,20(sp)
    6c94:	eb91                	bnez	a5,6ca8 <_dtoa_r+0xb6>
    6c96:	00003797          	auipc	a5,0x3
    6c9a:	f4678793          	addi	a5,a5,-186 # 9bdc <tinytens+0x6c>
    6c9e:	c03e                	sw	a5,0(sp)
    6ca0:	a839                	j	6cbe <_dtoa_r+0xcc>
    6ca2:	0009a023          	sw	zero,0(s3)
    6ca6:	b7e1                	j	6c6e <_dtoa_r+0x7c>
    6ca8:	00003797          	auipc	a5,0x3
    6cac:	f3478793          	addi	a5,a5,-204 # 9bdc <tinytens+0x6c>
    6cb0:	c03e                	sw	a5,0(sp)
    6cb2:	00003797          	auipc	a5,0x3
    6cb6:	f2d78793          	addi	a5,a5,-211 # 9bdf <tinytens+0x6f>
    6cba:	4752                	lw	a4,20(sp)
    6cbc:	c31c                	sw	a5,0(a4)
    6cbe:	40ba                	lw	ra,140(sp)
    6cc0:	442a                	lw	s0,136(sp)
    6cc2:	4502                	lw	a0,0(sp)
    6cc4:	449a                	lw	s1,132(sp)
    6cc6:	490a                	lw	s2,128(sp)
    6cc8:	59f6                	lw	s3,124(sp)
    6cca:	5a66                	lw	s4,120(sp)
    6ccc:	5ad6                	lw	s5,116(sp)
    6cce:	5b46                	lw	s6,112(sp)
    6cd0:	5bb6                	lw	s7,108(sp)
    6cd2:	5c26                	lw	s8,104(sp)
    6cd4:	5c96                	lw	s9,100(sp)
    6cd6:	5d06                	lw	s10,96(sp)
    6cd8:	4df6                	lw	s11,92(sp)
    6cda:	6149                	addi	sp,sp,144
    6cdc:	8082                	ret
    6cde:	4601                	li	a2,0
    6ce0:	4681                	li	a3,0
    6ce2:	8522                	mv	a0,s0
    6ce4:	85e2                	mv	a1,s8
    6ce6:	ce22                	sw	s0,28(sp)
    6ce8:	d462                	sw	s8,40(sp)
    6cea:	362020ef          	jal	ra,904c <__eqdf2>
    6cee:	e105                	bnez	a0,6d0e <_dtoa_r+0x11c>
    6cf0:	5742                	lw	a4,48(sp)
    6cf2:	4785                	li	a5,1
    6cf4:	c31c                	sw	a5,0(a4)
    6cf6:	00003797          	auipc	a5,0x3
    6cfa:	dc278793          	addi	a5,a5,-574 # 9ab8 <__clz_tab+0x11c>
    6cfe:	c03e                	sw	a5,0(sp)
    6d00:	47d2                	lw	a5,20(sp)
    6d02:	dfd5                	beqz	a5,6cbe <_dtoa_r+0xcc>
    6d04:	00003797          	auipc	a5,0x3
    6d08:	db578793          	addi	a5,a5,-587 # 9ab9 <__clz_tab+0x11d>
    6d0c:	b77d                	j	6cba <_dtoa_r+0xc8>
    6d0e:	00b8                	addi	a4,sp,72
    6d10:	00f4                	addi	a3,sp,76
    6d12:	8662                	mv	a2,s8
    6d14:	85a2                	mv	a1,s0
    6d16:	8526                	mv	a0,s1
    6d18:	014c5913          	srli	s2,s8,0x14
    6d1c:	33d010ef          	jal	ra,8858 <__d2b>
    6d20:	7ff97913          	andi	s2,s2,2047
    6d24:	89aa                	mv	s3,a0
    6d26:	4aa6                	lw	s5,72(sp)
    6d28:	10090d63          	beqz	s2,6e42 <_dtoa_r+0x250>
    6d2c:	57a2                	lw	a5,40(sp)
    6d2e:	4572                	lw	a0,28(sp)
    6d30:	c0190913          	addi	s2,s2,-1023
    6d34:	00c79593          	slli	a1,a5,0xc
    6d38:	81b1                	srli	a1,a1,0xc
    6d3a:	3ff007b7          	lui	a5,0x3ff00
    6d3e:	8ddd                	or	a1,a1,a5
    6d40:	dc02                	sw	zero,56(sp)
    6d42:	00003797          	auipc	a5,0x3
    6d46:	e5678793          	addi	a5,a5,-426 # 9b98 <tinytens+0x28>
    6d4a:	4390                	lw	a2,0(a5)
    6d4c:	43d4                	lw	a3,4(a5)
    6d4e:	91bfc0ef          	jal	ra,3668 <__subdf3>
    6d52:	00003797          	auipc	a5,0x3
    6d56:	e4e78793          	addi	a5,a5,-434 # 9ba0 <tinytens+0x30>
    6d5a:	4390                	lw	a2,0(a5)
    6d5c:	43d4                	lw	a3,4(a5)
    6d5e:	c52fc0ef          	jal	ra,31b0 <__muldf3>
    6d62:	00003797          	auipc	a5,0x3
    6d66:	e4678793          	addi	a5,a5,-442 # 9ba8 <tinytens+0x38>
    6d6a:	4390                	lw	a2,0(a5)
    6d6c:	43d4                	lw	a3,4(a5)
    6d6e:	f5efb0ef          	jal	ra,24cc <__adddf3>
    6d72:	8b2a                	mv	s6,a0
    6d74:	854a                	mv	a0,s2
    6d76:	8bae                	mv	s7,a1
    6d78:	82efd0ef          	jal	ra,3da6 <__floatsidf>
    6d7c:	00003797          	auipc	a5,0x3
    6d80:	e3478793          	addi	a5,a5,-460 # 9bb0 <tinytens+0x40>
    6d84:	4390                	lw	a2,0(a5)
    6d86:	43d4                	lw	a3,4(a5)
    6d88:	c28fc0ef          	jal	ra,31b0 <__muldf3>
    6d8c:	862a                	mv	a2,a0
    6d8e:	86ae                	mv	a3,a1
    6d90:	855a                	mv	a0,s6
    6d92:	85de                	mv	a1,s7
    6d94:	f38fb0ef          	jal	ra,24cc <__adddf3>
    6d98:	8b2a                	mv	s6,a0
    6d9a:	8bae                	mv	s7,a1
    6d9c:	4ba020ef          	jal	ra,9256 <__fixdfsi>
    6da0:	842a                	mv	s0,a0
    6da2:	4601                	li	a2,0
    6da4:	4681                	li	a3,0
    6da6:	855a                	mv	a0,s6
    6da8:	85de                	mv	a1,s7
    6daa:	3ba020ef          	jal	ra,9164 <__ledf2>
    6dae:	00055b63          	bgez	a0,6dc4 <_dtoa_r+0x1d2>
    6db2:	8522                	mv	a0,s0
    6db4:	ff3fc0ef          	jal	ra,3da6 <__floatsidf>
    6db8:	865a                	mv	a2,s6
    6dba:	86de                	mv	a3,s7
    6dbc:	290020ef          	jal	ra,904c <__eqdf2>
    6dc0:	c111                	beqz	a0,6dc4 <_dtoa_r+0x1d2>
    6dc2:	147d                	addi	s0,s0,-1
    6dc4:	4705                	li	a4,1
    6dc6:	47d9                	li	a5,22
    6dc8:	d63a                	sw	a4,44(sp)
    6dca:	0287e363          	bltu	a5,s0,6df0 <_dtoa_r+0x1fe>
    6dce:	00341713          	slli	a4,s0,0x3
    6dd2:	00003797          	auipc	a5,0x3
    6dd6:	e4678793          	addi	a5,a5,-442 # 9c18 <__mprec_tens>
    6dda:	97ba                	add	a5,a5,a4
    6ddc:	4390                	lw	a2,0(a5)
    6dde:	43d4                	lw	a3,4(a5)
    6de0:	4572                	lw	a0,28(sp)
    6de2:	55a2                	lw	a1,40(sp)
    6de4:	380020ef          	jal	ra,9164 <__ledf2>
    6de8:	00055363          	bgez	a0,6dee <_dtoa_r+0x1fc>
    6dec:	147d                	addi	s0,s0,-1
    6dee:	d602                	sw	zero,44(sp)
    6df0:	412a8933          	sub	s2,s5,s2
    6df4:	fff90b93          	addi	s7,s2,-1
    6df8:	4b01                	li	s6,0
    6dfa:	000bd663          	bgez	s7,6e06 <_dtoa_r+0x214>
    6dfe:	4b05                	li	s6,1
    6e00:	412b0b33          	sub	s6,s6,s2
    6e04:	4b81                	li	s7,0
    6e06:	06044e63          	bltz	s0,6e82 <_dtoa_r+0x290>
    6e0a:	9ba2                	add	s7,s7,s0
    6e0c:	cc22                	sw	s0,24(sp)
    6e0e:	4a81                	li	s5,0
    6e10:	4712                	lw	a4,4(sp)
    6e12:	47a5                	li	a5,9
    6e14:	14e7e563          	bltu	a5,a4,6f5e <_dtoa_r+0x36c>
    6e18:	4795                	li	a5,5
    6e1a:	4c85                	li	s9,1
    6e1c:	00e7d663          	bge	a5,a4,6e28 <_dtoa_r+0x236>
    6e20:	ffc70793          	addi	a5,a4,-4
    6e24:	c23e                	sw	a5,4(sp)
    6e26:	4c81                	li	s9,0
    6e28:	4712                	lw	a4,4(sp)
    6e2a:	478d                	li	a5,3
    6e2c:	10f70e63          	beq	a4,a5,6f48 <_dtoa_r+0x356>
    6e30:	04e7cf63          	blt	a5,a4,6e8e <_dtoa_r+0x29c>
    6e34:	4789                	li	a5,2
    6e36:	c802                	sw	zero,16(sp)
    6e38:	06f70d63          	beq	a4,a5,6eb2 <_dtoa_r+0x2c0>
    6e3c:	4785                	li	a5,1
    6e3e:	c83e                	sw	a5,16(sp)
    6e40:	a08d                	j	6ea2 <_dtoa_r+0x2b0>
    6e42:	4936                	lw	s2,76(sp)
    6e44:	02000793          	li	a5,32
    6e48:	9956                	add	s2,s2,s5
    6e4a:	43290713          	addi	a4,s2,1074
    6e4e:	02e7d563          	bge	a5,a4,6e78 <_dtoa_r+0x286>
    6e52:	04000513          	li	a0,64
    6e56:	8d19                	sub	a0,a0,a4
    6e58:	41290793          	addi	a5,s2,1042
    6e5c:	00ac1533          	sll	a0,s8,a0
    6e60:	00f45433          	srl	s0,s0,a5
    6e64:	8d41                	or	a0,a0,s0
    6e66:	4b4020ef          	jal	ra,931a <__floatunsidf>
    6e6a:	fe1007b7          	lui	a5,0xfe100
    6e6e:	95be                	add	a1,a1,a5
    6e70:	4785                	li	a5,1
    6e72:	197d                	addi	s2,s2,-1
    6e74:	dc3e                	sw	a5,56(sp)
    6e76:	b5f1                	j	6d42 <_dtoa_r+0x150>
    6e78:	40e78533          	sub	a0,a5,a4
    6e7c:	00a41533          	sll	a0,s0,a0
    6e80:	b7dd                	j	6e66 <_dtoa_r+0x274>
    6e82:	408b0b33          	sub	s6,s6,s0
    6e86:	40800ab3          	neg	s5,s0
    6e8a:	cc02                	sw	zero,24(sp)
    6e8c:	b751                	j	6e10 <_dtoa_r+0x21e>
    6e8e:	4712                	lw	a4,4(sp)
    6e90:	4791                	li	a5,4
    6e92:	00f70e63          	beq	a4,a5,6eae <_dtoa_r+0x2bc>
    6e96:	4705                	li	a4,1
    6e98:	c83a                	sw	a4,16(sp)
    6e9a:	4712                	lw	a4,4(sp)
    6e9c:	4795                	li	a5,5
    6e9e:	0af70663          	beq	a4,a5,6f4a <_dtoa_r+0x358>
    6ea2:	57fd                	li	a5,-1
    6ea4:	c43e                	sw	a5,8(sp)
    6ea6:	5dfd                	li	s11,-1
    6ea8:	47c9                	li	a5,18
    6eaa:	c602                	sw	zero,12(sp)
    6eac:	a819                	j	6ec2 <_dtoa_r+0x2d0>
    6eae:	4785                	li	a5,1
    6eb0:	c83e                	sw	a5,16(sp)
    6eb2:	47b2                	lw	a5,12(sp)
    6eb4:	0af04863          	bgtz	a5,6f64 <_dtoa_r+0x372>
    6eb8:	4785                	li	a5,1
    6eba:	4705                	li	a4,1
    6ebc:	c43e                	sw	a5,8(sp)
    6ebe:	4d85                	li	s11,1
    6ec0:	c63a                	sw	a4,12(sp)
    6ec2:	0244a903          	lw	s2,36(s1)
    6ec6:	4711                	li	a4,4
    6ec8:	00092223          	sw	zero,4(s2)
    6ecc:	01470693          	addi	a3,a4,20
    6ed0:	00492583          	lw	a1,4(s2)
    6ed4:	08d7fc63          	bgeu	a5,a3,6f6c <_dtoa_r+0x37a>
    6ed8:	8526                	mv	a0,s1
    6eda:	1b6010ef          	jal	ra,8090 <_Balloc>
    6ede:	50dc                	lw	a5,36(s1)
    6ee0:	00a92023          	sw	a0,0(s2)
    6ee4:	439c                	lw	a5,0(a5)
    6ee6:	c03e                	sw	a5,0(sp)
    6ee8:	47b9                	li	a5,14
    6eea:	1db7e663          	bltu	a5,s11,70b6 <_dtoa_r+0x4c4>
    6eee:	1c0c8463          	beqz	s9,70b6 <_dtoa_r+0x4c4>
    6ef2:	0a805e63          	blez	s0,6fae <_dtoa_r+0x3bc>
    6ef6:	00f47793          	andi	a5,s0,15
    6efa:	00379713          	slli	a4,a5,0x3
    6efe:	40445c93          	srai	s9,s0,0x4
    6f02:	00003797          	auipc	a5,0x3
    6f06:	d1678793          	addi	a5,a5,-746 # 9c18 <__mprec_tens>
    6f0a:	97ba                	add	a5,a5,a4
    6f0c:	010cf693          	andi	a3,s9,16
    6f10:	4398                	lw	a4,0(a5)
    6f12:	4909                	li	s2,2
    6f14:	43dc                	lw	a5,4(a5)
    6f16:	c685                	beqz	a3,6f3e <_dtoa_r+0x34c>
    6f18:	00003697          	auipc	a3,0x3
    6f1c:	cd868693          	addi	a3,a3,-808 # 9bf0 <__mprec_bigtens>
    6f20:	5290                	lw	a2,32(a3)
    6f22:	4572                	lw	a0,28(sp)
    6f24:	52d4                	lw	a3,36(a3)
    6f26:	55a2                	lw	a1,40(sp)
    6f28:	d03a                	sw	a4,32(sp)
    6f2a:	d23e                	sw	a5,36(sp)
    6f2c:	cd1fb0ef          	jal	ra,2bfc <__divdf3>
    6f30:	5702                	lw	a4,32(sp)
    6f32:	5792                	lw	a5,36(sp)
    6f34:	00fcfc93          	andi	s9,s9,15
    6f38:	8a2a                	mv	s4,a0
    6f3a:	8c2e                	mv	s8,a1
    6f3c:	490d                	li	s2,3
    6f3e:	00003d17          	auipc	s10,0x3
    6f42:	cb2d0d13          	addi	s10,s10,-846 # 9bf0 <__mprec_bigtens>
    6f46:	a889                	j	6f98 <_dtoa_r+0x3a6>
    6f48:	c802                	sw	zero,16(sp)
    6f4a:	47b2                	lw	a5,12(sp)
    6f4c:	97a2                	add	a5,a5,s0
    6f4e:	c43e                	sw	a5,8(sp)
    6f50:	00178d93          	addi	s11,a5,1
    6f54:	87ee                	mv	a5,s11
    6f56:	f7b046e3          	bgtz	s11,6ec2 <_dtoa_r+0x2d0>
    6f5a:	4785                	li	a5,1
    6f5c:	b79d                	j	6ec2 <_dtoa_r+0x2d0>
    6f5e:	4c85                	li	s9,1
    6f60:	c202                	sw	zero,4(sp)
    6f62:	bde9                	j	6e3c <_dtoa_r+0x24a>
    6f64:	47b2                	lw	a5,12(sp)
    6f66:	c43e                	sw	a5,8(sp)
    6f68:	8dbe                	mv	s11,a5
    6f6a:	bfa1                	j	6ec2 <_dtoa_r+0x2d0>
    6f6c:	0585                	addi	a1,a1,1
    6f6e:	00b92223          	sw	a1,4(s2)
    6f72:	0706                	slli	a4,a4,0x1
    6f74:	bfa1                	j	6ecc <_dtoa_r+0x2da>
    6f76:	001cf693          	andi	a3,s9,1
    6f7a:	ce81                	beqz	a3,6f92 <_dtoa_r+0x3a0>
    6f7c:	000d2603          	lw	a2,0(s10)
    6f80:	004d2683          	lw	a3,4(s10)
    6f84:	853a                	mv	a0,a4
    6f86:	85be                	mv	a1,a5
    6f88:	a28fc0ef          	jal	ra,31b0 <__muldf3>
    6f8c:	0905                	addi	s2,s2,1
    6f8e:	872a                	mv	a4,a0
    6f90:	87ae                	mv	a5,a1
    6f92:	401cdc93          	srai	s9,s9,0x1
    6f96:	0d21                	addi	s10,s10,8
    6f98:	fc0c9fe3          	bnez	s9,6f76 <_dtoa_r+0x384>
    6f9c:	863a                	mv	a2,a4
    6f9e:	86be                	mv	a3,a5
    6fa0:	8552                	mv	a0,s4
    6fa2:	85e2                	mv	a1,s8
    6fa4:	c59fb0ef          	jal	ra,2bfc <__divdf3>
    6fa8:	8a2a                	mv	s4,a0
    6faa:	8c2e                	mv	s8,a1
    6fac:	a081                	j	6fec <_dtoa_r+0x3fa>
    6fae:	4909                	li	s2,2
    6fb0:	cc15                	beqz	s0,6fec <_dtoa_r+0x3fa>
    6fb2:	40800cb3          	neg	s9,s0
    6fb6:	00fcf793          	andi	a5,s9,15
    6fba:	00379713          	slli	a4,a5,0x3
    6fbe:	00003797          	auipc	a5,0x3
    6fc2:	c5a78793          	addi	a5,a5,-934 # 9c18 <__mprec_tens>
    6fc6:	97ba                	add	a5,a5,a4
    6fc8:	4390                	lw	a2,0(a5)
    6fca:	43d4                	lw	a3,4(a5)
    6fcc:	4572                	lw	a0,28(sp)
    6fce:	55a2                	lw	a1,40(sp)
    6fd0:	404cdc93          	srai	s9,s9,0x4
    6fd4:	00003d17          	auipc	s10,0x3
    6fd8:	c1cd0d13          	addi	s10,s10,-996 # 9bf0 <__mprec_bigtens>
    6fdc:	9d4fc0ef          	jal	ra,31b0 <__muldf3>
    6fe0:	8a2a                	mv	s4,a0
    6fe2:	8c2e                	mv	s8,a1
    6fe4:	4781                	li	a5,0
    6fe6:	120c9c63          	bnez	s9,711e <_dtoa_r+0x52c>
    6fea:	ffdd                	bnez	a5,6fa8 <_dtoa_r+0x3b6>
    6fec:	57b2                	lw	a5,44(sp)
    6fee:	14078763          	beqz	a5,713c <_dtoa_r+0x54a>
    6ff2:	00003717          	auipc	a4,0x3
    6ff6:	b1670713          	addi	a4,a4,-1258 # 9b08 <__clz_tab+0x16c>
    6ffa:	4310                	lw	a2,0(a4)
    6ffc:	4354                	lw	a3,4(a4)
    6ffe:	8552                	mv	a0,s4
    7000:	85e2                	mv	a1,s8
    7002:	d052                	sw	s4,32(sp)
    7004:	160020ef          	jal	ra,9164 <__ledf2>
    7008:	12055a63          	bgez	a0,713c <_dtoa_r+0x54a>
    700c:	120d8b63          	beqz	s11,7142 <_dtoa_r+0x550>
    7010:	47a2                	lw	a5,8(sp)
    7012:	0af05063          	blez	a5,70b2 <_dtoa_r+0x4c0>
    7016:	00003717          	auipc	a4,0x3
    701a:	ba270713          	addi	a4,a4,-1118 # 9bb8 <tinytens+0x48>
    701e:	5782                	lw	a5,32(sp)
    7020:	4310                	lw	a2,0(a4)
    7022:	4354                	lw	a3,4(a4)
    7024:	853e                	mv	a0,a5
    7026:	85e2                	mv	a1,s8
    7028:	988fc0ef          	jal	ra,31b0 <__muldf3>
    702c:	47a2                	lw	a5,8(sp)
    702e:	fff40d13          	addi	s10,s0,-1 # 34fffff <_data_lma+0x34f61fb>
    7032:	8a2a                	mv	s4,a0
    7034:	8c2e                	mv	s8,a1
    7036:	0905                	addi	s2,s2,1
    7038:	8762                	mv	a4,s8
    703a:	854a                	mv	a0,s2
    703c:	de3e                	sw	a5,60(sp)
    703e:	da52                	sw	s4,52(sp)
    7040:	8cba                	mv	s9,a4
    7042:	d03a                	sw	a4,32(sp)
    7044:	d63fc0ef          	jal	ra,3da6 <__floatsidf>
    7048:	5852                	lw	a6,52(sp)
    704a:	5702                	lw	a4,32(sp)
    704c:	fcc00937          	lui	s2,0xfcc00
    7050:	8642                	mv	a2,a6
    7052:	86ba                	mv	a3,a4
    7054:	95cfc0ef          	jal	ra,31b0 <__muldf3>
    7058:	00003697          	auipc	a3,0x3
    705c:	b6868693          	addi	a3,a3,-1176 # 9bc0 <tinytens+0x50>
    7060:	4290                	lw	a2,0(a3)
    7062:	42d4                	lw	a3,4(a3)
    7064:	8c52                	mv	s8,s4
    7066:	c66fb0ef          	jal	ra,24cc <__adddf3>
    706a:	57f2                	lw	a5,60(sp)
    706c:	8a2a                	mv	s4,a0
    706e:	992e                	add	s2,s2,a1
    7070:	efe1                	bnez	a5,7148 <_dtoa_r+0x556>
    7072:	00003797          	auipc	a5,0x3
    7076:	b5678793          	addi	a5,a5,-1194 # 9bc8 <tinytens+0x58>
    707a:	5852                	lw	a6,52(sp)
    707c:	5702                	lw	a4,32(sp)
    707e:	4390                	lw	a2,0(a5)
    7080:	43d4                	lw	a3,4(a5)
    7082:	8542                	mv	a0,a6
    7084:	85ba                	mv	a1,a4
    7086:	de2fc0ef          	jal	ra,3668 <__subdf3>
    708a:	8652                	mv	a2,s4
    708c:	86ca                	mv	a3,s2
    708e:	8c2a                	mv	s8,a0
    7090:	8cae                	mv	s9,a1
    7092:	024020ef          	jal	ra,90b6 <__gedf2>
    7096:	54a04a63          	bgtz	a0,75ea <_dtoa_r+0x9f8>
    709a:	800007b7          	lui	a5,0x80000
    709e:	0127c7b3          	xor	a5,a5,s2
    70a2:	8652                	mv	a2,s4
    70a4:	86be                	mv	a3,a5
    70a6:	8562                	mv	a0,s8
    70a8:	85e6                	mv	a1,s9
    70aa:	0ba020ef          	jal	ra,9164 <__ledf2>
    70ae:	52054b63          	bltz	a0,75e4 <_dtoa_r+0x9f2>
    70b2:	4a72                	lw	s4,28(sp)
    70b4:	5c22                	lw	s8,40(sp)
    70b6:	47b6                	lw	a5,76(sp)
    70b8:	3007c763          	bltz	a5,73c6 <_dtoa_r+0x7d4>
    70bc:	4739                	li	a4,14
    70be:	30874463          	blt	a4,s0,73c6 <_dtoa_r+0x7d4>
    70c2:	00341713          	slli	a4,s0,0x3
    70c6:	00003797          	auipc	a5,0x3
    70ca:	b5278793          	addi	a5,a5,-1198 # 9c18 <__mprec_tens>
    70ce:	97ba                	add	a5,a5,a4
    70d0:	0007ab03          	lw	s6,0(a5)
    70d4:	0047ab83          	lw	s7,4(a5)
    70d8:	47b2                	lw	a5,12(sp)
    70da:	2007d263          	bgez	a5,72de <_dtoa_r+0x6ec>
    70de:	21b04063          	bgtz	s11,72de <_dtoa_r+0x6ec>
    70e2:	500d9163          	bnez	s11,75e4 <_dtoa_r+0x9f2>
    70e6:	00003797          	auipc	a5,0x3
    70ea:	ae278793          	addi	a5,a5,-1310 # 9bc8 <tinytens+0x58>
    70ee:	4390                	lw	a2,0(a5)
    70f0:	43d4                	lw	a3,4(a5)
    70f2:	855a                	mv	a0,s6
    70f4:	85de                	mv	a1,s7
    70f6:	8bafc0ef          	jal	ra,31b0 <__muldf3>
    70fa:	8652                	mv	a2,s4
    70fc:	86e2                	mv	a3,s8
    70fe:	7b9010ef          	jal	ra,90b6 <__gedf2>
    7102:	4a81                	li	s5,0
    7104:	4901                	li	s2,0
    7106:	4a055763          	bgez	a0,75b4 <_dtoa_r+0x9c2>
    710a:	4782                	lw	a5,0(sp)
    710c:	4702                	lw	a4,0(sp)
    710e:	0405                	addi	s0,s0,1
    7110:	00178a13          	addi	s4,a5,1
    7114:	03100793          	li	a5,49
    7118:	00f70023          	sb	a5,0(a4)
    711c:	a145                	j	75bc <_dtoa_r+0x9ca>
    711e:	001cf713          	andi	a4,s9,1
    7122:	cb09                	beqz	a4,7134 <_dtoa_r+0x542>
    7124:	000d2603          	lw	a2,0(s10)
    7128:	004d2683          	lw	a3,4(s10)
    712c:	0905                	addi	s2,s2,1
    712e:	882fc0ef          	jal	ra,31b0 <__muldf3>
    7132:	4785                	li	a5,1
    7134:	401cdc93          	srai	s9,s9,0x1
    7138:	0d21                	addi	s10,s10,8
    713a:	b575                	j	6fe6 <_dtoa_r+0x3f4>
    713c:	8d22                	mv	s10,s0
    713e:	87ee                	mv	a5,s11
    7140:	bde5                	j	7038 <_dtoa_r+0x446>
    7142:	8d22                	mv	s10,s0
    7144:	4781                	li	a5,0
    7146:	bdcd                	j	7038 <_dtoa_r+0x446>
    7148:	fff78693          	addi	a3,a5,-1
    714c:	00369613          	slli	a2,a3,0x3
    7150:	00003697          	auipc	a3,0x3
    7154:	ac868693          	addi	a3,a3,-1336 # 9c18 <__mprec_tens>
    7158:	96b2                	add	a3,a3,a2
    715a:	4288                	lw	a0,0(a3)
    715c:	42cc                	lw	a1,4(a3)
    715e:	4682                	lw	a3,0(sp)
    7160:	97b6                	add	a5,a5,a3
    7162:	da3e                	sw	a5,52(sp)
    7164:	47c2                	lw	a5,16(sp)
    7166:	c3e9                	beqz	a5,7228 <_dtoa_r+0x636>
    7168:	00002797          	auipc	a5,0x2
    716c:	6f078793          	addi	a5,a5,1776 # 9858 <COS_Factor+0xd4>
    7170:	862a                	mv	a2,a0
    7172:	86ae                	mv	a3,a1
    7174:	4388                	lw	a0,0(a5)
    7176:	43cc                	lw	a1,4(a5)
    7178:	de4a                	sw	s2,60(sp)
    717a:	d052                	sw	s4,32(sp)
    717c:	a81fb0ef          	jal	ra,2bfc <__divdf3>
    7180:	5802                	lw	a6,32(sp)
    7182:	5772                	lw	a4,60(sp)
    7184:	00003917          	auipc	s2,0x3
    7188:	a3490913          	addi	s2,s2,-1484 # 9bb8 <tinytens+0x48>
    718c:	8642                	mv	a2,a6
    718e:	86ba                	mv	a3,a4
    7190:	cd8fc0ef          	jal	ra,3668 <__subdf3>
    7194:	4a02                	lw	s4,0(sp)
    7196:	d02a                	sw	a0,32(sp)
    7198:	d22e                	sw	a1,36(sp)
    719a:	85e6                	mv	a1,s9
    719c:	8562                	mv	a0,s8
    719e:	0b8020ef          	jal	ra,9256 <__fixdfsi>
    71a2:	de2a                	sw	a0,60(sp)
    71a4:	c03fc0ef          	jal	ra,3da6 <__floatsidf>
    71a8:	862a                	mv	a2,a0
    71aa:	86ae                	mv	a3,a1
    71ac:	8562                	mv	a0,s8
    71ae:	85e6                	mv	a1,s9
    71b0:	cb8fc0ef          	jal	ra,3668 <__subdf3>
    71b4:	57f2                	lw	a5,60(sp)
    71b6:	8c2a                	mv	s8,a0
    71b8:	8cae                	mv	s9,a1
    71ba:	862a                	mv	a2,a0
    71bc:	86ae                	mv	a3,a1
    71be:	5502                	lw	a0,32(sp)
    71c0:	5592                	lw	a1,36(sp)
    71c2:	0a05                	addi	s4,s4,1
    71c4:	03078793          	addi	a5,a5,48
    71c8:	fefa0fa3          	sb	a5,-1(s4)
    71cc:	6eb010ef          	jal	ra,90b6 <__gedf2>
    71d0:	0ea04863          	bgtz	a0,72c0 <_dtoa_r+0x6ce>
    71d4:	00003797          	auipc	a5,0x3
    71d8:	93478793          	addi	a5,a5,-1740 # 9b08 <__clz_tab+0x16c>
    71dc:	4388                	lw	a0,0(a5)
    71de:	43cc                	lw	a1,4(a5)
    71e0:	8662                	mv	a2,s8
    71e2:	86e6                	mv	a3,s9
    71e4:	c84fc0ef          	jal	ra,3668 <__subdf3>
    71e8:	862a                	mv	a2,a0
    71ea:	86ae                	mv	a3,a1
    71ec:	5502                	lw	a0,32(sp)
    71ee:	5592                	lw	a1,36(sp)
    71f0:	6c7010ef          	jal	ra,90b6 <__gedf2>
    71f4:	18a04263          	bgtz	a0,7378 <_dtoa_r+0x786>
    71f8:	57d2                	lw	a5,52(sp)
    71fa:	eafa0ce3          	beq	s4,a5,70b2 <_dtoa_r+0x4c0>
    71fe:	00092603          	lw	a2,0(s2)
    7202:	00492683          	lw	a3,4(s2)
    7206:	5502                	lw	a0,32(sp)
    7208:	5592                	lw	a1,36(sp)
    720a:	fa7fb0ef          	jal	ra,31b0 <__muldf3>
    720e:	00092603          	lw	a2,0(s2)
    7212:	00492683          	lw	a3,4(s2)
    7216:	d02a                	sw	a0,32(sp)
    7218:	d22e                	sw	a1,36(sp)
    721a:	8562                	mv	a0,s8
    721c:	85e6                	mv	a1,s9
    721e:	f93fb0ef          	jal	ra,31b0 <__muldf3>
    7222:	8c2a                	mv	s8,a0
    7224:	8cae                	mv	s9,a1
    7226:	bf95                	j	719a <_dtoa_r+0x5a8>
    7228:	8652                	mv	a2,s4
    722a:	86ca                	mv	a3,s2
    722c:	f85fb0ef          	jal	ra,31b0 <__muldf3>
    7230:	5a52                	lw	s4,52(sp)
    7232:	4902                	lw	s2,0(sp)
    7234:	d02a                	sw	a0,32(sp)
    7236:	d22e                	sw	a1,36(sp)
    7238:	85e6                	mv	a1,s9
    723a:	8562                	mv	a0,s8
    723c:	01a020ef          	jal	ra,9256 <__fixdfsi>
    7240:	de2a                	sw	a0,60(sp)
    7242:	b65fc0ef          	jal	ra,3da6 <__floatsidf>
    7246:	862a                	mv	a2,a0
    7248:	86ae                	mv	a3,a1
    724a:	8562                	mv	a0,s8
    724c:	85e6                	mv	a1,s9
    724e:	c1afc0ef          	jal	ra,3668 <__subdf3>
    7252:	5772                	lw	a4,60(sp)
    7254:	57d2                	lw	a5,52(sp)
    7256:	0905                	addi	s2,s2,1
    7258:	03070713          	addi	a4,a4,48
    725c:	fee90fa3          	sb	a4,-1(s2)
    7260:	8c2a                	mv	s8,a0
    7262:	8cae                	mv	s9,a1
    7264:	06f91263          	bne	s2,a5,72c8 <_dtoa_r+0x6d6>
    7268:	00002917          	auipc	s2,0x2
    726c:	5f090913          	addi	s2,s2,1520 # 9858 <COS_Factor+0xd4>
    7270:	00092603          	lw	a2,0(s2)
    7274:	00492683          	lw	a3,4(s2)
    7278:	5502                	lw	a0,32(sp)
    727a:	5592                	lw	a1,36(sp)
    727c:	a50fb0ef          	jal	ra,24cc <__adddf3>
    7280:	862a                	mv	a2,a0
    7282:	86ae                	mv	a3,a1
    7284:	8562                	mv	a0,s8
    7286:	85e6                	mv	a1,s9
    7288:	62f010ef          	jal	ra,90b6 <__gedf2>
    728c:	0ea04663          	bgtz	a0,7378 <_dtoa_r+0x786>
    7290:	5602                	lw	a2,32(sp)
    7292:	5692                	lw	a3,36(sp)
    7294:	00092503          	lw	a0,0(s2)
    7298:	00492583          	lw	a1,4(s2)
    729c:	bccfc0ef          	jal	ra,3668 <__subdf3>
    72a0:	862a                	mv	a2,a0
    72a2:	86ae                	mv	a3,a1
    72a4:	8562                	mv	a0,s8
    72a6:	85e6                	mv	a1,s9
    72a8:	6bd010ef          	jal	ra,9164 <__ledf2>
    72ac:	03000793          	li	a5,48
    72b0:	e00551e3          	bgez	a0,70b2 <_dtoa_r+0x4c0>
    72b4:	fffa4703          	lbu	a4,-1(s4)
    72b8:	fffa0693          	addi	a3,s4,-1
    72bc:	00f70463          	beq	a4,a5,72c4 <_dtoa_r+0x6d2>
    72c0:	846a                	mv	s0,s10
    72c2:	a859                	j	7358 <_dtoa_r+0x766>
    72c4:	8a36                	mv	s4,a3
    72c6:	b7fd                	j	72b4 <_dtoa_r+0x6c2>
    72c8:	00003797          	auipc	a5,0x3
    72cc:	8f078793          	addi	a5,a5,-1808 # 9bb8 <tinytens+0x48>
    72d0:	4390                	lw	a2,0(a5)
    72d2:	43d4                	lw	a3,4(a5)
    72d4:	eddfb0ef          	jal	ra,31b0 <__muldf3>
    72d8:	8c2a                	mv	s8,a0
    72da:	8cae                	mv	s9,a1
    72dc:	bfb1                	j	7238 <_dtoa_r+0x646>
    72de:	87e2                	mv	a5,s8
    72e0:	8cbe                	mv	s9,a5
    72e2:	4782                	lw	a5,0(sp)
    72e4:	8c52                	mv	s8,s4
    72e6:	00003a97          	auipc	s5,0x3
    72ea:	8d2a8a93          	addi	s5,s5,-1838 # 9bb8 <tinytens+0x48>
    72ee:	00178913          	addi	s2,a5,1
    72f2:	9dbe                	add	s11,s11,a5
    72f4:	865a                	mv	a2,s6
    72f6:	86de                	mv	a3,s7
    72f8:	8562                	mv	a0,s8
    72fa:	85e6                	mv	a1,s9
    72fc:	901fb0ef          	jal	ra,2bfc <__divdf3>
    7300:	757010ef          	jal	ra,9256 <__fixdfsi>
    7304:	8d2a                	mv	s10,a0
    7306:	aa1fc0ef          	jal	ra,3da6 <__floatsidf>
    730a:	865a                	mv	a2,s6
    730c:	86de                	mv	a3,s7
    730e:	ea3fb0ef          	jal	ra,31b0 <__muldf3>
    7312:	862a                	mv	a2,a0
    7314:	86ae                	mv	a3,a1
    7316:	8562                	mv	a0,s8
    7318:	85e6                	mv	a1,s9
    731a:	b4efc0ef          	jal	ra,3668 <__subdf3>
    731e:	030d0793          	addi	a5,s10,48
    7322:	fef90fa3          	sb	a5,-1(s2)
    7326:	862a                	mv	a2,a0
    7328:	86ae                	mv	a3,a1
    732a:	8a4a                	mv	s4,s2
    732c:	072d9e63          	bne	s11,s2,73a8 <_dtoa_r+0x7b6>
    7330:	99cfb0ef          	jal	ra,24cc <__adddf3>
    7334:	865a                	mv	a2,s6
    7336:	86de                	mv	a3,s7
    7338:	8c2a                	mv	s8,a0
    733a:	8cae                	mv	s9,a1
    733c:	57b010ef          	jal	ra,90b6 <__gedf2>
    7340:	02a04b63          	bgtz	a0,7376 <_dtoa_r+0x784>
    7344:	865a                	mv	a2,s6
    7346:	86de                	mv	a3,s7
    7348:	8562                	mv	a0,s8
    734a:	85e6                	mv	a1,s9
    734c:	501010ef          	jal	ra,904c <__eqdf2>
    7350:	e501                	bnez	a0,7358 <_dtoa_r+0x766>
    7352:	001d7793          	andi	a5,s10,1
    7356:	e385                	bnez	a5,7376 <_dtoa_r+0x784>
    7358:	85ce                	mv	a1,s3
    735a:	8526                	mv	a0,s1
    735c:	5c1000ef          	jal	ra,811c <_Bfree>
    7360:	57c2                	lw	a5,48(sp)
    7362:	000a0023          	sb	zero,0(s4)
    7366:	0405                	addi	s0,s0,1
    7368:	c380                	sw	s0,0(a5)
    736a:	47d2                	lw	a5,20(sp)
    736c:	940789e3          	beqz	a5,6cbe <_dtoa_r+0xcc>
    7370:	0147a023          	sw	s4,0(a5)
    7374:	b2a9                	j	6cbe <_dtoa_r+0xcc>
    7376:	8d22                	mv	s10,s0
    7378:	03900713          	li	a4,57
    737c:	fffa4683          	lbu	a3,-1(s4)
    7380:	fffa0793          	addi	a5,s4,-1
    7384:	00e69a63          	bne	a3,a4,7398 <_dtoa_r+0x7a6>
    7388:	4682                	lw	a3,0(sp)
    738a:	00f69d63          	bne	a3,a5,73a4 <_dtoa_r+0x7b2>
    738e:	03000713          	li	a4,48
    7392:	0d05                	addi	s10,s10,1
    7394:	00e68023          	sb	a4,0(a3)
    7398:	0007c703          	lbu	a4,0(a5)
    739c:	0705                	addi	a4,a4,1
    739e:	00e78023          	sb	a4,0(a5)
    73a2:	bf39                	j	72c0 <_dtoa_r+0x6ce>
    73a4:	8a3e                	mv	s4,a5
    73a6:	bfd9                	j	737c <_dtoa_r+0x78a>
    73a8:	000aa603          	lw	a2,0(s5)
    73ac:	004aa683          	lw	a3,4(s5)
    73b0:	0905                	addi	s2,s2,1
    73b2:	dfffb0ef          	jal	ra,31b0 <__muldf3>
    73b6:	4601                	li	a2,0
    73b8:	4681                	li	a3,0
    73ba:	8c2a                	mv	s8,a0
    73bc:	8cae                	mv	s9,a1
    73be:	48f010ef          	jal	ra,904c <__eqdf2>
    73c2:	f90d                	bnez	a0,72f4 <_dtoa_r+0x702>
    73c4:	bf51                	j	7358 <_dtoa_r+0x766>
    73c6:	4742                	lw	a4,16(sp)
    73c8:	10070063          	beqz	a4,74c8 <_dtoa_r+0x8d6>
    73cc:	4692                	lw	a3,4(sp)
    73ce:	4705                	li	a4,1
    73d0:	0cd74563          	blt	a4,a3,749a <_dtoa_r+0x8a8>
    73d4:	5762                	lw	a4,56(sp)
    73d6:	43378793          	addi	a5,a5,1075
    73da:	e709                	bnez	a4,73e4 <_dtoa_r+0x7f2>
    73dc:	4726                	lw	a4,72(sp)
    73de:	03600793          	li	a5,54
    73e2:	8f99                	sub	a5,a5,a4
    73e4:	8d56                	mv	s10,s5
    73e6:	8cda                	mv	s9,s6
    73e8:	4585                	li	a1,1
    73ea:	8526                	mv	a0,s1
    73ec:	9b3e                	add	s6,s6,a5
    73ee:	9bbe                	add	s7,s7,a5
    73f0:	75f000ef          	jal	ra,834e <__i2b>
    73f4:	892a                	mv	s2,a0
    73f6:	01905e63          	blez	s9,7412 <_dtoa_r+0x820>
    73fa:	01705c63          	blez	s7,7412 <_dtoa_r+0x820>
    73fe:	87e6                	mv	a5,s9
    7400:	019bd363          	bge	s7,s9,7406 <_dtoa_r+0x814>
    7404:	87de                	mv	a5,s7
    7406:	40fb0b33          	sub	s6,s6,a5
    740a:	40fc8cb3          	sub	s9,s9,a5
    740e:	40fb8bb3          	sub	s7,s7,a5
    7412:	040a8063          	beqz	s5,7452 <_dtoa_r+0x860>
    7416:	47c2                	lw	a5,16(sp)
    7418:	cfc5                	beqz	a5,74d0 <_dtoa_r+0x8de>
    741a:	03a05463          	blez	s10,7442 <_dtoa_r+0x850>
    741e:	85ca                	mv	a1,s2
    7420:	866a                	mv	a2,s10
    7422:	8526                	mv	a0,s1
    7424:	08a010ef          	jal	ra,84ae <__pow5mult>
    7428:	864e                	mv	a2,s3
    742a:	85aa                	mv	a1,a0
    742c:	892a                	mv	s2,a0
    742e:	8526                	mv	a0,s1
    7430:	73b000ef          	jal	ra,836a <__multiply>
    7434:	ce2a                	sw	a0,28(sp)
    7436:	85ce                	mv	a1,s3
    7438:	8526                	mv	a0,s1
    743a:	4e3000ef          	jal	ra,811c <_Bfree>
    743e:	47f2                	lw	a5,28(sp)
    7440:	89be                	mv	s3,a5
    7442:	41aa8633          	sub	a2,s5,s10
    7446:	c611                	beqz	a2,7452 <_dtoa_r+0x860>
    7448:	85ce                	mv	a1,s3
    744a:	8526                	mv	a0,s1
    744c:	062010ef          	jal	ra,84ae <__pow5mult>
    7450:	89aa                	mv	s3,a0
    7452:	4585                	li	a1,1
    7454:	8526                	mv	a0,s1
    7456:	6f9000ef          	jal	ra,834e <__i2b>
    745a:	47e2                	lw	a5,24(sp)
    745c:	8aaa                	mv	s5,a0
    745e:	06f05b63          	blez	a5,74d4 <_dtoa_r+0x8e2>
    7462:	863e                	mv	a2,a5
    7464:	85aa                	mv	a1,a0
    7466:	8526                	mv	a0,s1
    7468:	046010ef          	jal	ra,84ae <__pow5mult>
    746c:	4712                	lw	a4,4(sp)
    746e:	4785                	li	a5,1
    7470:	8aaa                	mv	s5,a0
    7472:	4d01                	li	s10,0
    7474:	06e7c863          	blt	a5,a4,74e4 <_dtoa_r+0x8f2>
    7478:	4d01                	li	s10,0
    747a:	060a1263          	bnez	s4,74de <_dtoa_r+0x8ec>
    747e:	00cc1793          	slli	a5,s8,0xc
    7482:	8d52                	mv	s10,s4
    7484:	efa9                	bnez	a5,74de <_dtoa_r+0x8ec>
    7486:	7ff005b7          	lui	a1,0x7ff00
    748a:	00bc7c33          	and	s8,s8,a1
    748e:	040c0863          	beqz	s8,74de <_dtoa_r+0x8ec>
    7492:	0b05                	addi	s6,s6,1
    7494:	0b85                	addi	s7,s7,1
    7496:	4d05                	li	s10,1
    7498:	a099                	j	74de <_dtoa_r+0x8ec>
    749a:	fffd8d13          	addi	s10,s11,-1
    749e:	01aaca63          	blt	s5,s10,74b2 <_dtoa_r+0x8c0>
    74a2:	41aa8d33          	sub	s10,s5,s10
    74a6:	000dde63          	bgez	s11,74c2 <_dtoa_r+0x8d0>
    74aa:	41bb0cb3          	sub	s9,s6,s11
    74ae:	4781                	li	a5,0
    74b0:	bf25                	j	73e8 <_dtoa_r+0x7f6>
    74b2:	47e2                	lw	a5,24(sp)
    74b4:	415d0ab3          	sub	s5,s10,s5
    74b8:	97d6                	add	a5,a5,s5
    74ba:	cc3e                	sw	a5,24(sp)
    74bc:	8aea                	mv	s5,s10
    74be:	4d01                	li	s10,0
    74c0:	b7dd                	j	74a6 <_dtoa_r+0x8b4>
    74c2:	8cda                	mv	s9,s6
    74c4:	87ee                	mv	a5,s11
    74c6:	b70d                	j	73e8 <_dtoa_r+0x7f6>
    74c8:	8d56                	mv	s10,s5
    74ca:	8cda                	mv	s9,s6
    74cc:	4901                	li	s2,0
    74ce:	b725                	j	73f6 <_dtoa_r+0x804>
    74d0:	8656                	mv	a2,s5
    74d2:	bf9d                	j	7448 <_dtoa_r+0x856>
    74d4:	4712                	lw	a4,4(sp)
    74d6:	4785                	li	a5,1
    74d8:	4d01                	li	s10,0
    74da:	f8e7dfe3          	bge	a5,a4,7478 <_dtoa_r+0x886>
    74de:	47e2                	lw	a5,24(sp)
    74e0:	4505                	li	a0,1
    74e2:	cf89                	beqz	a5,74fc <_dtoa_r+0x90a>
    74e4:	010aa783          	lw	a5,16(s5)
    74e8:	078d                	addi	a5,a5,3
    74ea:	078a                	slli	a5,a5,0x2
    74ec:	97d6                	add	a5,a5,s5
    74ee:	43c8                	lw	a0,4(a5)
    74f0:	5af000ef          	jal	ra,829e <__hi0bits>
    74f4:	02000793          	li	a5,32
    74f8:	40a78533          	sub	a0,a5,a0
    74fc:	955e                	add	a0,a0,s7
    74fe:	897d                	andi	a0,a0,31
    7500:	c151                	beqz	a0,7584 <_dtoa_r+0x992>
    7502:	02000793          	li	a5,32
    7506:	8f89                	sub	a5,a5,a0
    7508:	4711                	li	a4,4
    750a:	06f75a63          	bge	a4,a5,757e <_dtoa_r+0x98c>
    750e:	47f1                	li	a5,28
    7510:	40a78533          	sub	a0,a5,a0
    7514:	9b2a                	add	s6,s6,a0
    7516:	9caa                	add	s9,s9,a0
    7518:	9baa                	add	s7,s7,a0
    751a:	01605863          	blez	s6,752a <_dtoa_r+0x938>
    751e:	85ce                	mv	a1,s3
    7520:	865a                	mv	a2,s6
    7522:	8526                	mv	a0,s1
    7524:	048010ef          	jal	ra,856c <__lshift>
    7528:	89aa                	mv	s3,a0
    752a:	01705863          	blez	s7,753a <_dtoa_r+0x948>
    752e:	85d6                	mv	a1,s5
    7530:	865e                	mv	a2,s7
    7532:	8526                	mv	a0,s1
    7534:	038010ef          	jal	ra,856c <__lshift>
    7538:	8aaa                	mv	s5,a0
    753a:	57b2                	lw	a5,44(sp)
    753c:	c7b1                	beqz	a5,7588 <_dtoa_r+0x996>
    753e:	85d6                	mv	a1,s5
    7540:	854e                	mv	a0,s3
    7542:	0f8010ef          	jal	ra,863a <__mcmp>
    7546:	04055163          	bgez	a0,7588 <_dtoa_r+0x996>
    754a:	85ce                	mv	a1,s3
    754c:	4681                	li	a3,0
    754e:	4629                	li	a2,10
    7550:	8526                	mv	a0,s1
    7552:	40f000ef          	jal	ra,8160 <__multadd>
    7556:	47c2                	lw	a5,16(sp)
    7558:	147d                	addi	s0,s0,-1
    755a:	89aa                	mv	s3,a0
    755c:	26078c63          	beqz	a5,77d4 <_dtoa_r+0xbe2>
    7560:	85ca                	mv	a1,s2
    7562:	4681                	li	a3,0
    7564:	4629                	li	a2,10
    7566:	8526                	mv	a0,s1
    7568:	3f9000ef          	jal	ra,8160 <__multadd>
    756c:	47a2                	lw	a5,8(sp)
    756e:	892a                	mv	s2,a0
    7570:	08f04563          	bgtz	a5,75fa <_dtoa_r+0xa08>
    7574:	4712                	lw	a4,4(sp)
    7576:	4789                	li	a5,2
    7578:	08e7d163          	bge	a5,a4,75fa <_dtoa_r+0xa08>
    757c:	a829                	j	7596 <_dtoa_r+0x9a4>
    757e:	f8e78ee3          	beq	a5,a4,751a <_dtoa_r+0x928>
    7582:	853e                	mv	a0,a5
    7584:	0571                	addi	a0,a0,28
    7586:	b779                	j	7514 <_dtoa_r+0x922>
    7588:	07b04563          	bgtz	s11,75f2 <_dtoa_r+0xa00>
    758c:	4712                	lw	a4,4(sp)
    758e:	4789                	li	a5,2
    7590:	06e7d163          	bge	a5,a4,75f2 <_dtoa_r+0xa00>
    7594:	c46e                	sw	s11,8(sp)
    7596:	47a2                	lw	a5,8(sp)
    7598:	ef91                	bnez	a5,75b4 <_dtoa_r+0x9c2>
    759a:	85d6                	mv	a1,s5
    759c:	4681                	li	a3,0
    759e:	4615                	li	a2,5
    75a0:	8526                	mv	a0,s1
    75a2:	3bf000ef          	jal	ra,8160 <__multadd>
    75a6:	8aaa                	mv	s5,a0
    75a8:	85aa                	mv	a1,a0
    75aa:	854e                	mv	a0,s3
    75ac:	08e010ef          	jal	ra,863a <__mcmp>
    75b0:	b4a04de3          	bgtz	a0,710a <_dtoa_r+0x518>
    75b4:	47b2                	lw	a5,12(sp)
    75b6:	4a02                	lw	s4,0(sp)
    75b8:	fff7c413          	not	s0,a5
    75bc:	4b01                	li	s6,0
    75be:	85d6                	mv	a1,s5
    75c0:	8526                	mv	a0,s1
    75c2:	35b000ef          	jal	ra,811c <_Bfree>
    75c6:	d80909e3          	beqz	s2,7358 <_dtoa_r+0x766>
    75ca:	000b0863          	beqz	s6,75da <_dtoa_r+0x9e8>
    75ce:	012b0663          	beq	s6,s2,75da <_dtoa_r+0x9e8>
    75d2:	85da                	mv	a1,s6
    75d4:	8526                	mv	a0,s1
    75d6:	347000ef          	jal	ra,811c <_Bfree>
    75da:	85ca                	mv	a1,s2
    75dc:	8526                	mv	a0,s1
    75de:	33f000ef          	jal	ra,811c <_Bfree>
    75e2:	bb9d                	j	7358 <_dtoa_r+0x766>
    75e4:	4a81                	li	s5,0
    75e6:	4901                	li	s2,0
    75e8:	b7f1                	j	75b4 <_dtoa_r+0x9c2>
    75ea:	846a                	mv	s0,s10
    75ec:	4a81                	li	s5,0
    75ee:	4901                	li	s2,0
    75f0:	be29                	j	710a <_dtoa_r+0x518>
    75f2:	47c2                	lw	a5,16(sp)
    75f4:	c46e                	sw	s11,8(sp)
    75f6:	1e078663          	beqz	a5,77e2 <_dtoa_r+0xbf0>
    75fa:	01905863          	blez	s9,760a <_dtoa_r+0xa18>
    75fe:	85ca                	mv	a1,s2
    7600:	8666                	mv	a2,s9
    7602:	8526                	mv	a0,s1
    7604:	769000ef          	jal	ra,856c <__lshift>
    7608:	892a                	mv	s2,a0
    760a:	854a                	mv	a0,s2
    760c:	020d0663          	beqz	s10,7638 <_dtoa_r+0xa46>
    7610:	00492583          	lw	a1,4(s2)
    7614:	8526                	mv	a0,s1
    7616:	27b000ef          	jal	ra,8090 <_Balloc>
    761a:	01092603          	lw	a2,16(s2)
    761e:	8b2a                	mv	s6,a0
    7620:	00c90593          	addi	a1,s2,12
    7624:	0609                	addi	a2,a2,2
    7626:	060a                	slli	a2,a2,0x2
    7628:	0531                	addi	a0,a0,12
    762a:	1b1000ef          	jal	ra,7fda <memcpy>
    762e:	4605                	li	a2,1
    7630:	85da                	mv	a1,s6
    7632:	8526                	mv	a0,s1
    7634:	739000ef          	jal	ra,856c <__lshift>
    7638:	4782                	lw	a5,0(sp)
    763a:	4722                	lw	a4,8(sp)
    763c:	8b4a                	mv	s6,s2
    763e:	00178c13          	addi	s8,a5,1
    7642:	97ba                	add	a5,a5,a4
    7644:	c63e                	sw	a5,12(sp)
    7646:	001a7793          	andi	a5,s4,1
    764a:	892a                	mv	s2,a0
    764c:	c43e                	sw	a5,8(sp)
    764e:	85d6                	mv	a1,s5
    7650:	854e                	mv	a0,s3
    7652:	c66ff0ef          	jal	ra,6ab8 <quorem>
    7656:	85da                	mv	a1,s6
    7658:	8d2a                	mv	s10,a0
    765a:	03050d93          	addi	s11,a0,48
    765e:	854e                	mv	a0,s3
    7660:	7db000ef          	jal	ra,863a <__mcmp>
    7664:	864a                	mv	a2,s2
    7666:	8baa                	mv	s7,a0
    7668:	85d6                	mv	a1,s5
    766a:	8526                	mv	a0,s1
    766c:	000010ef          	jal	ra,866c <__mdiff>
    7670:	4550                	lw	a2,12(a0)
    7672:	fffc0c93          	addi	s9,s8,-1
    7676:	8a2a                	mv	s4,a0
    7678:	4705                	li	a4,1
    767a:	e611                	bnez	a2,7686 <_dtoa_r+0xa94>
    767c:	85aa                	mv	a1,a0
    767e:	854e                	mv	a0,s3
    7680:	7bb000ef          	jal	ra,863a <__mcmp>
    7684:	872a                	mv	a4,a0
    7686:	85d2                	mv	a1,s4
    7688:	8526                	mv	a0,s1
    768a:	c83a                	sw	a4,16(sp)
    768c:	291000ef          	jal	ra,811c <_Bfree>
    7690:	4792                	lw	a5,4(sp)
    7692:	4742                	lw	a4,16(sp)
    7694:	8a62                	mv	s4,s8
    7696:	00e7e6b3          	or	a3,a5,a4
    769a:	47a2                	lw	a5,8(sp)
    769c:	8edd                	or	a3,a3,a5
    769e:	ee81                	bnez	a3,76b6 <_dtoa_r+0xac4>
    76a0:	03900713          	li	a4,57
    76a4:	04ed8863          	beq	s11,a4,76f4 <_dtoa_r+0xb02>
    76a8:	01705463          	blez	s7,76b0 <_dtoa_r+0xabe>
    76ac:	031d0d93          	addi	s11,s10,49
    76b0:	01bc8023          	sb	s11,0(s9)
    76b4:	b729                	j	75be <_dtoa_r+0x9cc>
    76b6:	000bca63          	bltz	s7,76ca <_dtoa_r+0xad8>
    76ba:	4792                	lw	a5,4(sp)
    76bc:	0177ebb3          	or	s7,a5,s7
    76c0:	47a2                	lw	a5,8(sp)
    76c2:	00fbebb3          	or	s7,s7,a5
    76c6:	040b9563          	bnez	s7,7710 <_dtoa_r+0xb1e>
    76ca:	fee053e3          	blez	a4,76b0 <_dtoa_r+0xabe>
    76ce:	85ce                	mv	a1,s3
    76d0:	4605                	li	a2,1
    76d2:	8526                	mv	a0,s1
    76d4:	699000ef          	jal	ra,856c <__lshift>
    76d8:	85d6                	mv	a1,s5
    76da:	89aa                	mv	s3,a0
    76dc:	75f000ef          	jal	ra,863a <__mcmp>
    76e0:	00a04663          	bgtz	a0,76ec <_dtoa_r+0xafa>
    76e4:	f571                	bnez	a0,76b0 <_dtoa_r+0xabe>
    76e6:	001df713          	andi	a4,s11,1
    76ea:	d379                	beqz	a4,76b0 <_dtoa_r+0xabe>
    76ec:	03900713          	li	a4,57
    76f0:	faed9ee3          	bne	s11,a4,76ac <_dtoa_r+0xaba>
    76f4:	03900793          	li	a5,57
    76f8:	00fc8023          	sb	a5,0(s9)
    76fc:	03900693          	li	a3,57
    7700:	fffa4783          	lbu	a5,-1(s4)
    7704:	fffa0713          	addi	a4,s4,-1
    7708:	08d78c63          	beq	a5,a3,77a0 <_dtoa_r+0xbae>
    770c:	0785                	addi	a5,a5,1
    770e:	a045                	j	77ae <_dtoa_r+0xbbc>
    7710:	00e05b63          	blez	a4,7726 <_dtoa_r+0xb34>
    7714:	03900713          	li	a4,57
    7718:	fced8ee3          	beq	s11,a4,76f4 <_dtoa_r+0xb02>
    771c:	001d8793          	addi	a5,s11,1
    7720:	00fc8023          	sb	a5,0(s9)
    7724:	bd69                	j	75be <_dtoa_r+0x9cc>
    7726:	47b2                	lw	a5,12(sp)
    7728:	ffbc0fa3          	sb	s11,-1(s8)
    772c:	05878163          	beq	a5,s8,776e <_dtoa_r+0xb7c>
    7730:	85ce                	mv	a1,s3
    7732:	4681                	li	a3,0
    7734:	4629                	li	a2,10
    7736:	8526                	mv	a0,s1
    7738:	229000ef          	jal	ra,8160 <__multadd>
    773c:	89aa                	mv	s3,a0
    773e:	4681                	li	a3,0
    7740:	4629                	li	a2,10
    7742:	85da                	mv	a1,s6
    7744:	8526                	mv	a0,s1
    7746:	012b1863          	bne	s6,s2,7756 <_dtoa_r+0xb64>
    774a:	217000ef          	jal	ra,8160 <__multadd>
    774e:	8b2a                	mv	s6,a0
    7750:	892a                	mv	s2,a0
    7752:	0c05                	addi	s8,s8,1
    7754:	bded                	j	764e <_dtoa_r+0xa5c>
    7756:	20b000ef          	jal	ra,8160 <__multadd>
    775a:	85ca                	mv	a1,s2
    775c:	8b2a                	mv	s6,a0
    775e:	4681                	li	a3,0
    7760:	4629                	li	a2,10
    7762:	8526                	mv	a0,s1
    7764:	1fd000ef          	jal	ra,8160 <__multadd>
    7768:	892a                	mv	s2,a0
    776a:	b7e5                	j	7752 <_dtoa_r+0xb60>
    776c:	4b01                	li	s6,0
    776e:	85ce                	mv	a1,s3
    7770:	4605                	li	a2,1
    7772:	8526                	mv	a0,s1
    7774:	5f9000ef          	jal	ra,856c <__lshift>
    7778:	85d6                	mv	a1,s5
    777a:	89aa                	mv	s3,a0
    777c:	6bf000ef          	jal	ra,863a <__mcmp>
    7780:	f6a04ee3          	bgtz	a0,76fc <_dtoa_r+0xb0a>
    7784:	e501                	bnez	a0,778c <_dtoa_r+0xb9a>
    7786:	001df793          	andi	a5,s11,1
    778a:	fbad                	bnez	a5,76fc <_dtoa_r+0xb0a>
    778c:	03000793          	li	a5,48
    7790:	fffa4703          	lbu	a4,-1(s4)
    7794:	fffa0693          	addi	a3,s4,-1
    7798:	e2f713e3          	bne	a4,a5,75be <_dtoa_r+0x9cc>
    779c:	8a36                	mv	s4,a3
    779e:	bfcd                	j	7790 <_dtoa_r+0xb9e>
    77a0:	4782                	lw	a5,0(sp)
    77a2:	00e79963          	bne	a5,a4,77b4 <_dtoa_r+0xbc2>
    77a6:	4702                	lw	a4,0(sp)
    77a8:	0405                	addi	s0,s0,1
    77aa:	03100793          	li	a5,49
    77ae:	00f70023          	sb	a5,0(a4)
    77b2:	b531                	j	75be <_dtoa_r+0x9cc>
    77b4:	8a3a                	mv	s4,a4
    77b6:	b7a9                	j	7700 <_dtoa_r+0xb0e>
    77b8:	4752                	lw	a4,20(sp)
    77ba:	00002797          	auipc	a5,0x2
    77be:	41678793          	addi	a5,a5,1046 # 9bd0 <tinytens+0x60>
    77c2:	c03e                	sw	a5,0(sp)
    77c4:	00002797          	auipc	a5,0x2
    77c8:	41478793          	addi	a5,a5,1044 # 9bd8 <tinytens+0x68>
    77cc:	ce071763          	bnez	a4,6cba <_dtoa_r+0xc8>
    77d0:	ceeff06f          	j	6cbe <_dtoa_r+0xcc>
    77d4:	47a2                	lw	a5,8(sp)
    77d6:	00f04663          	bgtz	a5,77e2 <_dtoa_r+0xbf0>
    77da:	4712                	lw	a4,4(sp)
    77dc:	4789                	li	a5,2
    77de:	dae7cce3          	blt	a5,a4,7596 <_dtoa_r+0x9a4>
    77e2:	4a02                	lw	s4,0(sp)
    77e4:	85d6                	mv	a1,s5
    77e6:	854e                	mv	a0,s3
    77e8:	ad0ff0ef          	jal	ra,6ab8 <quorem>
    77ec:	4782                	lw	a5,0(sp)
    77ee:	0a05                	addi	s4,s4,1
    77f0:	03050d93          	addi	s11,a0,48
    77f4:	40fa0733          	sub	a4,s4,a5
    77f8:	47a2                	lw	a5,8(sp)
    77fa:	ffba0fa3          	sb	s11,-1(s4)
    77fe:	f6f757e3          	bge	a4,a5,776c <_dtoa_r+0xb7a>
    7802:	85ce                	mv	a1,s3
    7804:	4681                	li	a3,0
    7806:	4629                	li	a2,10
    7808:	8526                	mv	a0,s1
    780a:	157000ef          	jal	ra,8160 <__multadd>
    780e:	89aa                	mv	s3,a0
    7810:	bfd1                	j	77e4 <_dtoa_r+0xbf2>

00007812 <rshift>:
    7812:	4910                	lw	a2,16(a0)
    7814:	01450693          	addi	a3,a0,20
    7818:	4055d713          	srai	a4,a1,0x5
    781c:	87b6                	mv	a5,a3
    781e:	02c75663          	bge	a4,a2,784a <rshift+0x38>
    7822:	060a                	slli	a2,a2,0x2
    7824:	070a                	slli	a4,a4,0x2
    7826:	89fd                	andi	a1,a1,31
    7828:	9636                	add	a2,a2,a3
    782a:	9736                	add	a4,a4,a3
    782c:	c9b9                	beqz	a1,7882 <rshift+0x70>
    782e:	00470813          	addi	a6,a4,4
    7832:	4318                	lw	a4,0(a4)
    7834:	02000313          	li	t1,32
    7838:	40b30333          	sub	t1,t1,a1
    783c:	00b75733          	srl	a4,a4,a1
    7840:	00c86e63          	bltu	a6,a2,785c <rshift+0x4a>
    7844:	c398                	sw	a4,0(a5)
    7846:	c311                	beqz	a4,784a <rshift+0x38>
    7848:	0791                	addi	a5,a5,4
    784a:	40d78733          	sub	a4,a5,a3
    784e:	8709                	srai	a4,a4,0x2
    7850:	c918                	sw	a4,16(a0)
    7852:	00d79463          	bne	a5,a3,785a <rshift+0x48>
    7856:	00052a23          	sw	zero,20(a0)
    785a:	8082                	ret
    785c:	00082883          	lw	a7,0(a6)
    7860:	0791                	addi	a5,a5,4
    7862:	0811                	addi	a6,a6,4
    7864:	006898b3          	sll	a7,a7,t1
    7868:	00e8e733          	or	a4,a7,a4
    786c:	fee7ae23          	sw	a4,-4(a5)
    7870:	ffc82703          	lw	a4,-4(a6)
    7874:	b7e1                	j	783c <rshift+0x2a>
    7876:	0711                	addi	a4,a4,4
    7878:	ffc72583          	lw	a1,-4(a4)
    787c:	0791                	addi	a5,a5,4
    787e:	feb7ae23          	sw	a1,-4(a5)
    7882:	fec76ae3          	bltu	a4,a2,7876 <rshift+0x64>
    7886:	b7d1                	j	784a <rshift+0x38>

00007888 <__hexdig_fun>:
    7888:	fd050793          	addi	a5,a0,-48
    788c:	0ff7f793          	andi	a5,a5,255
    7890:	4725                	li	a4,9
    7892:	00f76763          	bltu	a4,a5,78a0 <__hexdig_fun+0x18>
    7896:	1501                	addi	a0,a0,-32
    7898:	0ff57793          	andi	a5,a0,255
    789c:	853e                	mv	a0,a5
    789e:	8082                	ret
    78a0:	f9f50793          	addi	a5,a0,-97
    78a4:	0ff7f793          	andi	a5,a5,255
    78a8:	4695                	li	a3,5
    78aa:	00f6e563          	bltu	a3,a5,78b4 <__hexdig_fun+0x2c>
    78ae:	fb950513          	addi	a0,a0,-71
    78b2:	b7dd                	j	7898 <__hexdig_fun+0x10>
    78b4:	fbf50713          	addi	a4,a0,-65
    78b8:	0ff77713          	andi	a4,a4,255
    78bc:	4781                	li	a5,0
    78be:	fce6efe3          	bltu	a3,a4,789c <__hexdig_fun+0x14>
    78c2:	fd950513          	addi	a0,a0,-39
    78c6:	bfc9                	j	7898 <__hexdig_fun+0x10>

000078c8 <__gethex>:
    78c8:	711d                	addi	sp,sp,-96
    78ca:	c2d6                	sw	s5,68(sp)
    78cc:	8aaa                	mv	s5,a0
    78ce:	8542                	mv	a0,a6
    78d0:	c636                	sw	a3,12(sp)
    78d2:	c23a                	sw	a4,4(sp)
    78d4:	ce86                	sw	ra,92(sp)
    78d6:	c8ca                	sw	s2,80(sp)
    78d8:	c4d2                	sw	s4,72(sp)
    78da:	c0da                	sw	s6,64(sp)
    78dc:	de5e                	sw	s7,60(sp)
    78de:	8b3e                	mv	s6,a5
    78e0:	d66e                	sw	s11,44(sp)
    78e2:	8932                	mv	s2,a2
    78e4:	8dae                	mv	s11,a1
    78e6:	cca2                	sw	s0,88(sp)
    78e8:	caa6                	sw	s1,84(sp)
    78ea:	c6ce                	sw	s3,76(sp)
    78ec:	dc62                	sw	s8,56(sp)
    78ee:	da66                	sw	s9,52(sp)
    78f0:	d86a                	sw	s10,48(sp)
    78f2:	258d                	jal	7f54 <__localeconv_l>
    78f4:	00052b83          	lw	s7,0(a0)
    78f8:	855e                	mv	a0,s7
    78fa:	b6cfe0ef          	jal	ra,5c66 <strlen>
    78fe:	00ab87b3          	add	a5,s7,a0
    7902:	000da683          	lw	a3,0(s11)
    7906:	fff7c783          	lbu	a5,-1(a5)
    790a:	5779                	li	a4,-2
    790c:	8f15                	sub	a4,a4,a3
    790e:	c83e                	sw	a5,16(sp)
    7910:	8a2a                	mv	s4,a0
    7912:	00268793          	addi	a5,a3,2
    7916:	03000693          	li	a3,48
    791a:	00f70633          	add	a2,a4,a5
    791e:	84be                	mv	s1,a5
    7920:	0785                	addi	a5,a5,1
    7922:	fff7c503          	lbu	a0,-1(a5)
    7926:	c432                	sw	a2,8(sp)
    7928:	fed509e3          	beq	a0,a3,791a <__gethex+0x52>
    792c:	3fb1                	jal	7888 <__hexdig_fun>
    792e:	10051f63          	bnez	a0,7a4c <__gethex+0x184>
    7932:	8652                	mv	a2,s4
    7934:	85de                	mv	a1,s7
    7936:	8526                	mv	a0,s1
    7938:	60e010ef          	jal	ra,8f46 <strncmp>
    793c:	10051d63          	bnez	a0,7a56 <__gethex+0x18e>
    7940:	01448c33          	add	s8,s1,s4
    7944:	000c4503          	lbu	a0,0(s8)
    7948:	f41ff0ef          	jal	ra,7888 <__hexdig_fun>
    794c:	10050663          	beqz	a0,7a58 <__gethex+0x190>
    7950:	84e2                	mv	s1,s8
    7952:	03000793          	li	a5,48
    7956:	0004c503          	lbu	a0,0(s1)
    795a:	00f50b63          	beq	a0,a5,7970 <__gethex+0xa8>
    795e:	f2bff0ef          	jal	ra,7888 <__hexdig_fun>
    7962:	4785                	li	a5,1
    7964:	00153993          	seqz	s3,a0
    7968:	8ce2                	mv	s9,s8
    796a:	c43e                	sw	a5,8(sp)
    796c:	8c26                	mv	s8,s1
    796e:	a021                	j	7976 <__gethex+0xae>
    7970:	0485                	addi	s1,s1,1
    7972:	b7d5                	j	7956 <__gethex+0x8e>
    7974:	0c05                	addi	s8,s8,1
    7976:	000c4503          	lbu	a0,0(s8)
    797a:	f0fff0ef          	jal	ra,7888 <__hexdig_fun>
    797e:	f97d                	bnez	a0,7974 <__gethex+0xac>
    7980:	8652                	mv	a2,s4
    7982:	85de                	mv	a1,s7
    7984:	8562                	mv	a0,s8
    7986:	5c0010ef          	jal	ra,8f46 <strncmp>
    798a:	e911                	bnez	a0,799e <__gethex+0xd6>
    798c:	000c9c63          	bnez	s9,79a4 <__gethex+0xdc>
    7990:	9c52                	add	s8,s8,s4
    7992:	8ce2                	mv	s9,s8
    7994:	000c4503          	lbu	a0,0(s8)
    7998:	ef1ff0ef          	jal	ra,7888 <__hexdig_fun>
    799c:	e95d                	bnez	a0,7a52 <__gethex+0x18a>
    799e:	4401                	li	s0,0
    79a0:	000c8563          	beqz	s9,79aa <__gethex+0xe2>
    79a4:	418c8433          	sub	s0,s9,s8
    79a8:	040a                	slli	s0,s0,0x2
    79aa:	000c4783          	lbu	a5,0(s8)
    79ae:	05000713          	li	a4,80
    79b2:	00e78763          	beq	a5,a4,79c0 <__gethex+0xf8>
    79b6:	07000613          	li	a2,112
    79ba:	8ce2                	mv	s9,s8
    79bc:	06c79063          	bne	a5,a2,7a1c <__gethex+0x154>
    79c0:	001c4783          	lbu	a5,1(s8)
    79c4:	02b00713          	li	a4,43
    79c8:	08e78b63          	beq	a5,a4,7a5e <__gethex+0x196>
    79cc:	02d00713          	li	a4,45
    79d0:	08e78b63          	beq	a5,a4,7a66 <__gethex+0x19e>
    79d4:	001c0c93          	addi	s9,s8,1
    79d8:	4d01                	li	s10,0
    79da:	000cc503          	lbu	a0,0(s9)
    79de:	eabff0ef          	jal	ra,7888 <__hexdig_fun>
    79e2:	fff50793          	addi	a5,a0,-1
    79e6:	0ff7f793          	andi	a5,a5,255
    79ea:	45e1                	li	a1,24
    79ec:	08f5e463          	bltu	a1,a5,7a74 <__gethex+0x1ac>
    79f0:	ff050793          	addi	a5,a0,-16
    79f4:	0c85                	addi	s9,s9,1
    79f6:	000cc503          	lbu	a0,0(s9)
    79fa:	ca3e                	sw	a5,20(sp)
    79fc:	e8dff0ef          	jal	ra,7888 <__hexdig_fun>
    7a00:	fff50593          	addi	a1,a0,-1
    7a04:	0ff5f593          	andi	a1,a1,255
    7a08:	4861                	li	a6,24
    7a0a:	47d2                	lw	a5,20(sp)
    7a0c:	48a9                	li	a7,10
    7a0e:	04b87e63          	bgeu	a6,a1,7a6a <__gethex+0x1a2>
    7a12:	000d0463          	beqz	s10,7a1a <__gethex+0x152>
    7a16:	40f007b3          	neg	a5,a5
    7a1a:	943e                	add	s0,s0,a5
    7a1c:	019da023          	sw	s9,0(s11)
    7a20:	04098c63          	beqz	s3,7a78 <__gethex+0x1b0>
    7a24:	47a2                	lw	a5,8(sp)
    7a26:	4481                	li	s1,0
    7a28:	e391                	bnez	a5,7a2c <__gethex+0x164>
    7a2a:	4499                	li	s1,6
    7a2c:	40f6                	lw	ra,92(sp)
    7a2e:	4466                	lw	s0,88(sp)
    7a30:	8526                	mv	a0,s1
    7a32:	4946                	lw	s2,80(sp)
    7a34:	44d6                	lw	s1,84(sp)
    7a36:	49b6                	lw	s3,76(sp)
    7a38:	4a26                	lw	s4,72(sp)
    7a3a:	4a96                	lw	s5,68(sp)
    7a3c:	4b06                	lw	s6,64(sp)
    7a3e:	5bf2                	lw	s7,60(sp)
    7a40:	5c62                	lw	s8,56(sp)
    7a42:	5cd2                	lw	s9,52(sp)
    7a44:	5d42                	lw	s10,48(sp)
    7a46:	5db2                	lw	s11,44(sp)
    7a48:	6125                	addi	sp,sp,96
    7a4a:	8082                	ret
    7a4c:	4981                	li	s3,0
    7a4e:	4c81                	li	s9,0
    7a50:	bf31                	j	796c <__gethex+0xa4>
    7a52:	0c05                	addi	s8,s8,1
    7a54:	b781                	j	7994 <__gethex+0xcc>
    7a56:	8c26                	mv	s8,s1
    7a58:	4401                	li	s0,0
    7a5a:	4985                	li	s3,1
    7a5c:	b7b9                	j	79aa <__gethex+0xe2>
    7a5e:	4d01                	li	s10,0
    7a60:	002c0c93          	addi	s9,s8,2
    7a64:	bf9d                	j	79da <__gethex+0x112>
    7a66:	4d05                	li	s10,1
    7a68:	bfe5                	j	7a60 <__gethex+0x198>
    7a6a:	031787b3          	mul	a5,a5,a7
    7a6e:	97aa                	add	a5,a5,a0
    7a70:	17c1                	addi	a5,a5,-16
    7a72:	b749                	j	79f4 <__gethex+0x12c>
    7a74:	8ce2                	mv	s9,s8
    7a76:	b75d                	j	7a1c <__gethex+0x154>
    7a78:	409c07b3          	sub	a5,s8,s1
    7a7c:	17fd                	addi	a5,a5,-1
    7a7e:	4581                	li	a1,0
    7a80:	471d                	li	a4,7
    7a82:	0af74463          	blt	a4,a5,7b2a <__gethex+0x262>
    7a86:	8556                	mv	a0,s5
    7a88:	2521                	jal	8090 <_Balloc>
    7a8a:	4605                	li	a2,1
    7a8c:	01450993          	addi	s3,a0,20
    7a90:	414607b3          	sub	a5,a2,s4
    7a94:	8daa                	mv	s11,a0
    7a96:	8d4e                	mv	s10,s3
    7a98:	4881                	li	a7,0
    7a9a:	4c81                	li	s9,0
    7a9c:	ca3e                	sw	a5,20(sp)
    7a9e:	0984e963          	bltu	s1,s8,7b30 <__gethex+0x268>
    7aa2:	004d0513          	addi	a0,s10,4
    7aa6:	41350533          	sub	a0,a0,s3
    7aaa:	8509                	srai	a0,a0,0x2
    7aac:	019d2023          	sw	s9,0(s10)
    7ab0:	00ada823          	sw	a0,16(s11)
    7ab4:	00551493          	slli	s1,a0,0x5
    7ab8:	8566                	mv	a0,s9
    7aba:	7e4000ef          	jal	ra,829e <__hi0bits>
    7abe:	00092b83          	lw	s7,0(s2)
    7ac2:	8c89                	sub	s1,s1,a0
    7ac4:	0c9bd863          	bge	s7,s1,7b94 <__gethex+0x2cc>
    7ac8:	417484b3          	sub	s1,s1,s7
    7acc:	85a6                	mv	a1,s1
    7ace:	856e                	mv	a0,s11
    7ad0:	707000ef          	jal	ra,89d6 <__any_on>
    7ad4:	8a2a                	mv	s4,a0
    7ad6:	c905                	beqz	a0,7b06 <__gethex+0x23e>
    7ad8:	fff48613          	addi	a2,s1,-1
    7adc:	40565693          	srai	a3,a2,0x5
    7ae0:	068a                	slli	a3,a3,0x2
    7ae2:	96ce                	add	a3,a3,s3
    7ae4:	4294                	lw	a3,0(a3)
    7ae6:	4705                	li	a4,1
    7ae8:	00c71733          	sll	a4,a4,a2
    7aec:	8f75                	and	a4,a4,a3
    7aee:	4a05                	li	s4,1
    7af0:	cb19                	beqz	a4,7b06 <__gethex+0x23e>
    7af2:	00ca5963          	bge	s4,a2,7b04 <__gethex+0x23c>
    7af6:	ffe48593          	addi	a1,s1,-2
    7afa:	856e                	mv	a0,s11
    7afc:	6db000ef          	jal	ra,89d6 <__any_on>
    7b00:	4a0d                	li	s4,3
    7b02:	e111                	bnez	a0,7b06 <__gethex+0x23e>
    7b04:	4a09                	li	s4,2
    7b06:	85a6                	mv	a1,s1
    7b08:	856e                	mv	a0,s11
    7b0a:	d09ff0ef          	jal	ra,7812 <rshift>
    7b0e:	9426                	add	s0,s0,s1
    7b10:	00892703          	lw	a4,8(s2)
    7b14:	08875f63          	bge	a4,s0,7bb2 <__gethex+0x2ea>
    7b18:	85ee                	mv	a1,s11
    7b1a:	8556                	mv	a0,s5
    7b1c:	2501                	jal	811c <_Bfree>
    7b1e:	4792                	lw	a5,4(sp)
    7b20:	0a300493          	li	s1,163
    7b24:	0007a023          	sw	zero,0(a5)
    7b28:	b711                	j	7a2c <__gethex+0x164>
    7b2a:	0585                	addi	a1,a1,1
    7b2c:	8785                	srai	a5,a5,0x1
    7b2e:	bf91                	j	7a82 <__gethex+0x1ba>
    7b30:	fffc0793          	addi	a5,s8,-1
    7b34:	c43e                	sw	a5,8(sp)
    7b36:	fffc4603          	lbu	a2,-1(s8)
    7b3a:	47c2                	lw	a5,16(sp)
    7b3c:	02f60963          	beq	a2,a5,7b6e <__gethex+0x2a6>
    7b40:	02000793          	li	a5,32
    7b44:	00f89763          	bne	a7,a5,7b52 <__gethex+0x28a>
    7b48:	019d2023          	sw	s9,0(s10)
    7b4c:	4881                	li	a7,0
    7b4e:	0d11                	addi	s10,s10,4
    7b50:	4c81                	li	s9,0
    7b52:	fffc4503          	lbu	a0,-1(s8)
    7b56:	cc46                	sw	a7,24(sp)
    7b58:	d31ff0ef          	jal	ra,7888 <__hexdig_fun>
    7b5c:	48e2                	lw	a7,24(sp)
    7b5e:	893d                	andi	a0,a0,15
    7b60:	4322                	lw	t1,8(sp)
    7b62:	01151533          	sll	a0,a0,a7
    7b66:	00acecb3          	or	s9,s9,a0
    7b6a:	0891                	addi	a7,a7,4
    7b6c:	a015                	j	7b90 <__gethex+0x2c8>
    7b6e:	4752                	lw	a4,20(sp)
    7b70:	fffc0793          	addi	a5,s8,-1
    7b74:	00e78333          	add	t1,a5,a4
    7b78:	fc9364e3          	bltu	t1,s1,7b40 <__gethex+0x278>
    7b7c:	851a                	mv	a0,t1
    7b7e:	8652                	mv	a2,s4
    7b80:	85de                	mv	a1,s7
    7b82:	ce46                	sw	a7,28(sp)
    7b84:	cc1a                	sw	t1,24(sp)
    7b86:	3c0010ef          	jal	ra,8f46 <strncmp>
    7b8a:	4362                	lw	t1,24(sp)
    7b8c:	48f2                	lw	a7,28(sp)
    7b8e:	f94d                	bnez	a0,7b40 <__gethex+0x278>
    7b90:	8c1a                	mv	s8,t1
    7b92:	b731                	j	7a9e <__gethex+0x1d6>
    7b94:	4a01                	li	s4,0
    7b96:	f774dde3          	bge	s1,s7,7b10 <__gethex+0x248>
    7b9a:	409b84b3          	sub	s1,s7,s1
    7b9e:	85ee                	mv	a1,s11
    7ba0:	8626                	mv	a2,s1
    7ba2:	8556                	mv	a0,s5
    7ba4:	1c9000ef          	jal	ra,856c <__lshift>
    7ba8:	8daa                	mv	s11,a0
    7baa:	8c05                	sub	s0,s0,s1
    7bac:	01450993          	addi	s3,a0,20
    7bb0:	b785                	j	7b10 <__gethex+0x248>
    7bb2:	00492703          	lw	a4,4(s2)
    7bb6:	0ee45563          	bge	s0,a4,7ca0 <__gethex+0x3d8>
    7bba:	40870433          	sub	s0,a4,s0
    7bbe:	07744563          	blt	s0,s7,7c28 <__gethex+0x360>
    7bc2:	00c92703          	lw	a4,12(s2)
    7bc6:	4689                	li	a3,2
    7bc8:	04d70a63          	beq	a4,a3,7c1c <__gethex+0x354>
    7bcc:	468d                	li	a3,3
    7bce:	04d70a63          	beq	a4,a3,7c22 <__gethex+0x35a>
    7bd2:	4685                	li	a3,1
    7bd4:	02d71b63          	bne	a4,a3,7c0a <__gethex+0x342>
    7bd8:	028b9963          	bne	s7,s0,7c0a <__gethex+0x342>
    7bdc:	02eb9163          	bne	s7,a4,7bfe <__gethex+0x336>
    7be0:	00492703          	lw	a4,4(s2)
    7be4:	47b2                	lw	a5,12(sp)
    7be6:	06200493          	li	s1,98
    7bea:	c398                	sw	a4,0(a5)
    7bec:	4705                	li	a4,1
    7bee:	4792                	lw	a5,4(sp)
    7bf0:	00eda823          	sw	a4,16(s11)
    7bf4:	00e9a023          	sw	a4,0(s3)
    7bf8:	01b7a023          	sw	s11,0(a5)
    7bfc:	bd05                	j	7a2c <__gethex+0x164>
    7bfe:	fffb8593          	addi	a1,s7,-1
    7c02:	856e                	mv	a0,s11
    7c04:	5d3000ef          	jal	ra,89d6 <__any_on>
    7c08:	fd61                	bnez	a0,7be0 <__gethex+0x318>
    7c0a:	85ee                	mv	a1,s11
    7c0c:	8556                	mv	a0,s5
    7c0e:	2339                	jal	811c <_Bfree>
    7c10:	4792                	lw	a5,4(sp)
    7c12:	05000493          	li	s1,80
    7c16:	0007a023          	sw	zero,0(a5)
    7c1a:	bd09                	j	7a2c <__gethex+0x164>
    7c1c:	fe0b17e3          	bnez	s6,7c0a <__gethex+0x342>
    7c20:	b7c1                	j	7be0 <__gethex+0x318>
    7c22:	fa0b1fe3          	bnez	s6,7be0 <__gethex+0x318>
    7c26:	b7d5                	j	7c0a <__gethex+0x342>
    7c28:	fff40493          	addi	s1,s0,-1
    7c2c:	060a1863          	bnez	s4,7c9c <__gethex+0x3d4>
    7c30:	c491                	beqz	s1,7c3c <__gethex+0x374>
    7c32:	85a6                	mv	a1,s1
    7c34:	856e                	mv	a0,s11
    7c36:	5a1000ef          	jal	ra,89d6 <__any_on>
    7c3a:	8a2a                	mv	s4,a0
    7c3c:	4054d713          	srai	a4,s1,0x5
    7c40:	070a                	slli	a4,a4,0x2
    7c42:	974e                	add	a4,a4,s3
    7c44:	4318                	lw	a4,0(a4)
    7c46:	4585                	li	a1,1
    7c48:	009595b3          	sll	a1,a1,s1
    7c4c:	8df9                	and	a1,a1,a4
    7c4e:	c199                	beqz	a1,7c54 <__gethex+0x38c>
    7c50:	002a6a13          	ori	s4,s4,2
    7c54:	85a2                	mv	a1,s0
    7c56:	856e                	mv	a0,s11
    7c58:	408b8bb3          	sub	s7,s7,s0
    7c5c:	bb7ff0ef          	jal	ra,7812 <rshift>
    7c60:	00492403          	lw	s0,4(s2)
    7c64:	4489                	li	s1,2
    7c66:	080a0b63          	beqz	s4,7cfc <__gethex+0x434>
    7c6a:	00c92703          	lw	a4,12(s2)
    7c6e:	4689                	li	a3,2
    7c70:	02d70a63          	beq	a4,a3,7ca4 <__gethex+0x3dc>
    7c74:	468d                	li	a3,3
    7c76:	02d70a63          	beq	a4,a3,7caa <__gethex+0x3e2>
    7c7a:	4685                	li	a3,1
    7c7c:	00d71d63          	bne	a4,a3,7c96 <__gethex+0x3ce>
    7c80:	002a7713          	andi	a4,s4,2
    7c84:	cb09                	beqz	a4,7c96 <__gethex+0x3ce>
    7c86:	0009a703          	lw	a4,0(s3)
    7c8a:	00ea6a33          	or	s4,s4,a4
    7c8e:	001a7a13          	andi	s4,s4,1
    7c92:	000a1e63          	bnez	s4,7cae <__gethex+0x3e6>
    7c96:	0104e493          	ori	s1,s1,16
    7c9a:	a08d                	j	7cfc <__gethex+0x434>
    7c9c:	4a05                	li	s4,1
    7c9e:	bf79                	j	7c3c <__gethex+0x374>
    7ca0:	4485                	li	s1,1
    7ca2:	b7d1                	j	7c66 <__gethex+0x39e>
    7ca4:	4705                	li	a4,1
    7ca6:	41670b33          	sub	s6,a4,s6
    7caa:	fe0b06e3          	beqz	s6,7c96 <__gethex+0x3ce>
    7cae:	010da983          	lw	s3,16(s11)
    7cb2:	014d8713          	addi	a4,s11,20
    7cb6:	55fd                	li	a1,-1
    7cb8:	00299a13          	slli	s4,s3,0x2
    7cbc:	01470633          	add	a2,a4,s4
    7cc0:	4314                	lw	a3,0(a4)
    7cc2:	04b68363          	beq	a3,a1,7d08 <__gethex+0x440>
    7cc6:	0685                	addi	a3,a3,1
    7cc8:	c314                	sw	a3,0(a4)
    7cca:	4689                	li	a3,2
    7ccc:	014d8713          	addi	a4,s11,20
    7cd0:	08d49363          	bne	s1,a3,7d56 <__gethex+0x48e>
    7cd4:	00092683          	lw	a3,0(s2)
    7cd8:	16fd                	addi	a3,a3,-1
    7cda:	01769f63          	bne	a3,s7,7cf8 <__gethex+0x430>
    7cde:	405bd693          	srai	a3,s7,0x5
    7ce2:	068a                	slli	a3,a3,0x2
    7ce4:	9736                	add	a4,a4,a3
    7ce6:	4318                	lw	a4,0(a4)
    7ce8:	4685                	li	a3,1
    7cea:	01769bb3          	sll	s7,a3,s7
    7cee:	00ebfbb3          	and	s7,s7,a4
    7cf2:	000b8363          	beqz	s7,7cf8 <__gethex+0x430>
    7cf6:	4485                	li	s1,1
    7cf8:	0204e493          	ori	s1,s1,32
    7cfc:	4792                	lw	a5,4(sp)
    7cfe:	01b7a023          	sw	s11,0(a5)
    7d02:	47b2                	lw	a5,12(sp)
    7d04:	c380                	sw	s0,0(a5)
    7d06:	b31d                	j	7a2c <__gethex+0x164>
    7d08:	0711                	addi	a4,a4,4
    7d0a:	fe072e23          	sw	zero,-4(a4)
    7d0e:	fac769e3          	bltu	a4,a2,7cc0 <__gethex+0x3f8>
    7d12:	008da703          	lw	a4,8(s11)
    7d16:	02e9c463          	blt	s3,a4,7d3e <__gethex+0x476>
    7d1a:	004da583          	lw	a1,4(s11)
    7d1e:	8556                	mv	a0,s5
    7d20:	0585                	addi	a1,a1,1
    7d22:	26bd                	jal	8090 <_Balloc>
    7d24:	010da603          	lw	a2,16(s11)
    7d28:	00cd8593          	addi	a1,s11,12
    7d2c:	8b2a                	mv	s6,a0
    7d2e:	0609                	addi	a2,a2,2
    7d30:	060a                	slli	a2,a2,0x2
    7d32:	0531                	addi	a0,a0,12
    7d34:	245d                	jal	7fda <memcpy>
    7d36:	85ee                	mv	a1,s11
    7d38:	8556                	mv	a0,s5
    7d3a:	26cd                	jal	811c <_Bfree>
    7d3c:	8dda                	mv	s11,s6
    7d3e:	010da703          	lw	a4,16(s11)
    7d42:	00170693          	addi	a3,a4,1
    7d46:	0711                	addi	a4,a4,4
    7d48:	070a                	slli	a4,a4,0x2
    7d4a:	00dda823          	sw	a3,16(s11)
    7d4e:	976e                	add	a4,a4,s11
    7d50:	4685                	li	a3,1
    7d52:	c354                	sw	a3,4(a4)
    7d54:	bf9d                	j	7cca <__gethex+0x402>
    7d56:	010da683          	lw	a3,16(s11)
    7d5a:	00d9dc63          	bge	s3,a3,7d72 <__gethex+0x4aa>
    7d5e:	4585                	li	a1,1
    7d60:	856e                	mv	a0,s11
    7d62:	ab1ff0ef          	jal	ra,7812 <rshift>
    7d66:	00892703          	lw	a4,8(s2)
    7d6a:	0405                	addi	s0,s0,1
    7d6c:	f88755e3          	bge	a4,s0,7cf6 <__gethex+0x42e>
    7d70:	b365                	j	7b18 <__gethex+0x250>
    7d72:	01fbfb93          	andi	s7,s7,31
    7d76:	4485                	li	s1,1
    7d78:	f80b80e3          	beqz	s7,7cf8 <__gethex+0x430>
    7d7c:	9752                	add	a4,a4,s4
    7d7e:	ffc72503          	lw	a0,-4(a4)
    7d82:	2b31                	jal	829e <__hi0bits>
    7d84:	02000713          	li	a4,32
    7d88:	41770bb3          	sub	s7,a4,s7
    7d8c:	fd7549e3          	blt	a0,s7,7d5e <__gethex+0x496>
    7d90:	b7a5                	j	7cf8 <__gethex+0x430>

00007d92 <L_shift>:
    7d92:	47a1                	li	a5,8
    7d94:	40c78633          	sub	a2,a5,a2
    7d98:	060a                	slli	a2,a2,0x2
    7d9a:	02000693          	li	a3,32
    7d9e:	8e91                	sub	a3,a3,a2
    7da0:	415c                	lw	a5,4(a0)
    7da2:	4118                	lw	a4,0(a0)
    7da4:	0511                	addi	a0,a0,4
    7da6:	00d79833          	sll	a6,a5,a3
    7daa:	01076733          	or	a4,a4,a6
    7dae:	00c7d7b3          	srl	a5,a5,a2
    7db2:	fee52e23          	sw	a4,-4(a0)
    7db6:	c11c                	sw	a5,0(a0)
    7db8:	feb564e3          	bltu	a0,a1,7da0 <L_shift+0xe>
    7dbc:	8082                	ret

00007dbe <__match>:
    7dbe:	411c                	lw	a5,0(a0)
    7dc0:	4865                	li	a6,25
    7dc2:	0585                	addi	a1,a1,1
    7dc4:	fff5c603          	lbu	a2,-1(a1) # 7fefffff <_eusrstack+0x5fef7fff>
    7dc8:	0785                	addi	a5,a5,1
    7dca:	e601                	bnez	a2,7dd2 <__match+0x14>
    7dcc:	c11c                	sw	a5,0(a0)
    7dce:	4505                	li	a0,1
    7dd0:	8082                	ret
    7dd2:	0007c703          	lbu	a4,0(a5)
    7dd6:	fbf70693          	addi	a3,a4,-65
    7dda:	0ff6f693          	andi	a3,a3,255
    7dde:	00d86463          	bltu	a6,a3,7de6 <__match+0x28>
    7de2:	02070713          	addi	a4,a4,32
    7de6:	fcc70ee3          	beq	a4,a2,7dc2 <__match+0x4>
    7dea:	4501                	li	a0,0
    7dec:	8082                	ret

00007dee <__hexnan>:
    7dee:	715d                	addi	sp,sp,-80
    7df0:	dc52                	sw	s4,56(sp)
    7df2:	0005aa03          	lw	s4,0(a1)
    7df6:	c2a6                	sw	s1,68(sp)
    7df8:	de4e                	sw	s3,60(sp)
    7dfa:	405a5493          	srai	s1,s4,0x5
    7dfe:	d85a                	sw	s6,48(sp)
    7e00:	048a                	slli	s1,s1,0x2
    7e02:	c686                	sw	ra,76(sp)
    7e04:	c4a2                	sw	s0,72(sp)
    7e06:	c0ca                	sw	s2,64(sp)
    7e08:	da56                	sw	s5,52(sp)
    7e0a:	d65e                	sw	s7,44(sp)
    7e0c:	d462                	sw	s8,40(sp)
    7e0e:	d266                	sw	s9,36(sp)
    7e10:	d06a                	sw	s10,32(sp)
    7e12:	ce6e                	sw	s11,28(sp)
    7e14:	01fa7a13          	andi	s4,s4,31
    7e18:	8b2a                	mv	s6,a0
    7e1a:	89b2                	mv	s3,a2
    7e1c:	94b2                	add	s1,s1,a2
    7e1e:	000a0363          	beqz	s4,7e24 <__hexnan+0x36>
    7e22:	0491                	addi	s1,s1,4
    7e24:	000b2783          	lw	a5,0(s6)
    7e28:	ffc48913          	addi	s2,s1,-4
    7e2c:	fe04ae23          	sw	zero,-4(s1)
    7e30:	8dca                	mv	s11,s2
    7e32:	844a                	mv	s0,s2
    7e34:	4601                	li	a2,0
    7e36:	4a81                	li	s5,0
    7e38:	4b81                	li	s7,0
    7e3a:	4c21                	li	s8,8
    7e3c:	02000c93          	li	s9,32
    7e40:	4d1d                	li	s10,7
    7e42:	0017c683          	lbu	a3,1(a5)
    7e46:	00178713          	addi	a4,a5,1
    7e4a:	c03a                	sw	a4,0(sp)
    7e4c:	cab1                	beqz	a3,7ea0 <__hexnan+0xb2>
    7e4e:	8536                	mv	a0,a3
    7e50:	c632                	sw	a2,12(sp)
    7e52:	c43e                	sw	a5,8(sp)
    7e54:	c236                	sw	a3,4(sp)
    7e56:	a33ff0ef          	jal	ra,7888 <__hexdig_fun>
    7e5a:	4632                	lw	a2,12(sp)
    7e5c:	e559                	bnez	a0,7eea <__hexnan+0xfc>
    7e5e:	4692                	lw	a3,4(sp)
    7e60:	47a2                	lw	a5,8(sp)
    7e62:	02dce863          	bltu	s9,a3,7e92 <__hexnan+0xa4>
    7e66:	037ad463          	bge	s5,s7,7e8e <__hexnan+0xa0>
    7e6a:	01b47863          	bgeu	s0,s11,7e7a <__hexnan+0x8c>
    7e6e:	00cd4663          	blt	s10,a2,7e7a <__hexnan+0x8c>
    7e72:	85ee                	mv	a1,s11
    7e74:	8522                	mv	a0,s0
    7e76:	f1dff0ef          	jal	ra,7d92 <L_shift>
    7e7a:	4621                	li	a2,8
    7e7c:	0089f963          	bgeu	s3,s0,7e8e <__hexnan+0xa0>
    7e80:	ffc40d93          	addi	s11,s0,-4
    7e84:	fe042e23          	sw	zero,-4(s0)
    7e88:	8ade                	mv	s5,s7
    7e8a:	846e                	mv	s0,s11
    7e8c:	4601                	li	a2,0
    7e8e:	4782                	lw	a5,0(sp)
    7e90:	bf4d                	j	7e42 <__hexnan+0x54>
    7e92:	02900593          	li	a1,41
    7e96:	08b69c63          	bne	a3,a1,7f2e <__hexnan+0x140>
    7e9a:	0789                	addi	a5,a5,2
    7e9c:	00fb2023          	sw	a5,0(s6)
    7ea0:	080b8763          	beqz	s7,7f2e <__hexnan+0x140>
    7ea4:	01b47963          	bgeu	s0,s11,7eb6 <__hexnan+0xc8>
    7ea8:	479d                	li	a5,7
    7eaa:	00c7c663          	blt	a5,a2,7eb6 <__hexnan+0xc8>
    7eae:	85ee                	mv	a1,s11
    7eb0:	8522                	mv	a0,s0
    7eb2:	ee1ff0ef          	jal	ra,7d92 <L_shift>
    7eb6:	0489fa63          	bgeu	s3,s0,7f0a <__hexnan+0x11c>
    7eba:	87ce                	mv	a5,s3
    7ebc:	0411                	addi	s0,s0,4
    7ebe:	ffc42703          	lw	a4,-4(s0)
    7ec2:	0791                	addi	a5,a5,4
    7ec4:	fee7ae23          	sw	a4,-4(a5)
    7ec8:	fe897ae3          	bgeu	s2,s0,7ebc <__hexnan+0xce>
    7ecc:	0791                	addi	a5,a5,4
    7ece:	fe07ae23          	sw	zero,-4(a5)
    7ed2:	fef97de3          	bgeu	s2,a5,7ecc <__hexnan+0xde>
    7ed6:	00092783          	lw	a5,0(s2)
    7eda:	e791                	bnez	a5,7ee6 <__hexnan+0xf8>
    7edc:	05391763          	bne	s2,s3,7f2a <__hexnan+0x13c>
    7ee0:	4785                	li	a5,1
    7ee2:	00f92023          	sw	a5,0(s2)
    7ee6:	4515                	li	a0,5
    7ee8:	a0a1                	j	7f30 <__hexnan+0x142>
    7eea:	0605                	addi	a2,a2,1
    7eec:	0b85                	addi	s7,s7,1
    7eee:	00cc5863          	bge	s8,a2,7efe <__hexnan+0x110>
    7ef2:	f889fee3          	bgeu	s3,s0,7e8e <__hexnan+0xa0>
    7ef6:	fe042e23          	sw	zero,-4(s0)
    7efa:	4605                	li	a2,1
    7efc:	1471                	addi	s0,s0,-4
    7efe:	401c                	lw	a5,0(s0)
    7f00:	893d                	andi	a0,a0,15
    7f02:	0792                	slli	a5,a5,0x4
    7f04:	8fc9                	or	a5,a5,a0
    7f06:	c01c                	sw	a5,0(s0)
    7f08:	b759                	j	7e8e <__hexnan+0xa0>
    7f0a:	fc0a06e3          	beqz	s4,7ed6 <__hexnan+0xe8>
    7f0e:	02000793          	li	a5,32
    7f12:	414787b3          	sub	a5,a5,s4
    7f16:	5a7d                	li	s4,-1
    7f18:	00fa57b3          	srl	a5,s4,a5
    7f1c:	ffc4aa03          	lw	s4,-4(s1)
    7f20:	00fa7a33          	and	s4,s4,a5
    7f24:	ff44ae23          	sw	s4,-4(s1)
    7f28:	b77d                	j	7ed6 <__hexnan+0xe8>
    7f2a:	1971                	addi	s2,s2,-4
    7f2c:	b76d                	j	7ed6 <__hexnan+0xe8>
    7f2e:	4511                	li	a0,4
    7f30:	40b6                	lw	ra,76(sp)
    7f32:	4426                	lw	s0,72(sp)
    7f34:	4496                	lw	s1,68(sp)
    7f36:	4906                	lw	s2,64(sp)
    7f38:	59f2                	lw	s3,60(sp)
    7f3a:	5a62                	lw	s4,56(sp)
    7f3c:	5ad2                	lw	s5,52(sp)
    7f3e:	5b42                	lw	s6,48(sp)
    7f40:	5bb2                	lw	s7,44(sp)
    7f42:	5c22                	lw	s8,40(sp)
    7f44:	5c92                	lw	s9,36(sp)
    7f46:	5d02                	lw	s10,32(sp)
    7f48:	4df2                	lw	s11,28(sp)
    7f4a:	6161                	addi	sp,sp,80
    7f4c:	8082                	ret

00007f4e <__locale_ctype_ptr_l>:
    7f4e:	0ec52503          	lw	a0,236(a0)
    7f52:	8082                	ret

00007f54 <__localeconv_l>:
    7f54:	0f050513          	addi	a0,a0,240
    7f58:	8082                	ret

00007f5a <_localeconv_r>:
    7f5a:	1fff9797          	auipc	a5,0x1fff9
    7f5e:	a7678793          	addi	a5,a5,-1418 # 200009d0 <_impure_ptr>
    7f62:	439c                	lw	a5,0(a5)
    7f64:	5388                	lw	a0,32(a5)
    7f66:	e509                	bnez	a0,7f70 <_localeconv_r+0x16>
    7f68:	1fff9517          	auipc	a0,0x1fff9
    7f6c:	8f850513          	addi	a0,a0,-1800 # 20000860 <__global_locale>
    7f70:	0f050513          	addi	a0,a0,240
    7f74:	8082                	ret

00007f76 <malloc>:
    7f76:	1fff9797          	auipc	a5,0x1fff9
    7f7a:	a5a78793          	addi	a5,a5,-1446 # 200009d0 <_impure_ptr>
    7f7e:	85aa                	mv	a1,a0
    7f80:	4388                	lw	a0,0(a5)
    7f82:	3650006f          	j	8ae6 <_malloc_r>

00007f86 <__ascii_mbtowc>:
    7f86:	e185                	bnez	a1,7fa6 <__ascii_mbtowc+0x20>
    7f88:	1141                	addi	sp,sp,-16
    7f8a:	006c                	addi	a1,sp,12
    7f8c:	4501                	li	a0,0
    7f8e:	ca11                	beqz	a2,7fa2 <__ascii_mbtowc+0x1c>
    7f90:	5579                	li	a0,-2
    7f92:	ca81                	beqz	a3,7fa2 <__ascii_mbtowc+0x1c>
    7f94:	00064783          	lbu	a5,0(a2) # 10000 <_data_lma+0x61fc>
    7f98:	c19c                	sw	a5,0(a1)
    7f9a:	00064503          	lbu	a0,0(a2)
    7f9e:	00a03533          	snez	a0,a0
    7fa2:	0141                	addi	sp,sp,16
    7fa4:	8082                	ret
    7fa6:	4501                	li	a0,0
    7fa8:	ca19                	beqz	a2,7fbe <__ascii_mbtowc+0x38>
    7faa:	5579                	li	a0,-2
    7fac:	ca89                	beqz	a3,7fbe <__ascii_mbtowc+0x38>
    7fae:	00064783          	lbu	a5,0(a2)
    7fb2:	c19c                	sw	a5,0(a1)
    7fb4:	00064503          	lbu	a0,0(a2)
    7fb8:	00a03533          	snez	a0,a0
    7fbc:	8082                	ret
    7fbe:	8082                	ret

00007fc0 <memchr>:
    7fc0:	0ff5f593          	andi	a1,a1,255
    7fc4:	962a                	add	a2,a2,a0
    7fc6:	00c51463          	bne	a0,a2,7fce <memchr+0xe>
    7fca:	4501                	li	a0,0
    7fcc:	8082                	ret
    7fce:	00054783          	lbu	a5,0(a0)
    7fd2:	feb78de3          	beq	a5,a1,7fcc <memchr+0xc>
    7fd6:	0505                	addi	a0,a0,1
    7fd8:	b7fd                	j	7fc6 <memchr+0x6>

00007fda <memcpy>:
    7fda:	00a5c7b3          	xor	a5,a1,a0
    7fde:	8b8d                	andi	a5,a5,3
    7fe0:	00c50733          	add	a4,a0,a2
    7fe4:	e781                	bnez	a5,7fec <memcpy+0x12>
    7fe6:	478d                	li	a5,3
    7fe8:	00c7ee63          	bltu	a5,a2,8004 <memcpy+0x2a>
    7fec:	87aa                	mv	a5,a0
    7fee:	0ae57063          	bgeu	a0,a4,808e <memcpy+0xb4>
    7ff2:	0005c683          	lbu	a3,0(a1)
    7ff6:	0785                	addi	a5,a5,1
    7ff8:	0585                	addi	a1,a1,1
    7ffa:	fed78fa3          	sb	a3,-1(a5)
    7ffe:	fee7eae3          	bltu	a5,a4,7ff2 <memcpy+0x18>
    8002:	8082                	ret
    8004:	00357693          	andi	a3,a0,3
    8008:	87aa                	mv	a5,a0
    800a:	ca91                	beqz	a3,801e <memcpy+0x44>
    800c:	0005c683          	lbu	a3,0(a1)
    8010:	0785                	addi	a5,a5,1
    8012:	0585                	addi	a1,a1,1
    8014:	fed78fa3          	sb	a3,-1(a5)
    8018:	0037f693          	andi	a3,a5,3
    801c:	b7fd                	j	800a <memcpy+0x30>
    801e:	ffc77693          	andi	a3,a4,-4
    8022:	fe068613          	addi	a2,a3,-32
    8026:	06c7f063          	bgeu	a5,a2,8086 <memcpy+0xac>
    802a:	0005a383          	lw	t2,0(a1)
    802e:	0045a283          	lw	t0,4(a1)
    8032:	0085af83          	lw	t6,8(a1)
    8036:	00c5af03          	lw	t5,12(a1)
    803a:	0105ae83          	lw	t4,16(a1)
    803e:	0145ae03          	lw	t3,20(a1)
    8042:	0185a303          	lw	t1,24(a1)
    8046:	01c5a883          	lw	a7,28(a1)
    804a:	02458593          	addi	a1,a1,36
    804e:	0077a023          	sw	t2,0(a5)
    8052:	ffc5a803          	lw	a6,-4(a1)
    8056:	0057a223          	sw	t0,4(a5)
    805a:	01f7a423          	sw	t6,8(a5)
    805e:	01e7a623          	sw	t5,12(a5)
    8062:	01d7a823          	sw	t4,16(a5)
    8066:	01c7aa23          	sw	t3,20(a5)
    806a:	0067ac23          	sw	t1,24(a5)
    806e:	0117ae23          	sw	a7,28(a5)
    8072:	02478793          	addi	a5,a5,36
    8076:	ff07ae23          	sw	a6,-4(a5)
    807a:	b775                	j	8026 <memcpy+0x4c>
    807c:	4190                	lw	a2,0(a1)
    807e:	0791                	addi	a5,a5,4
    8080:	0591                	addi	a1,a1,4
    8082:	fec7ae23          	sw	a2,-4(a5)
    8086:	fed7ebe3          	bltu	a5,a3,807c <memcpy+0xa2>
    808a:	f6e7e4e3          	bltu	a5,a4,7ff2 <memcpy+0x18>
    808e:	8082                	ret

00008090 <_Balloc>:
    8090:	515c                	lw	a5,36(a0)
    8092:	1141                	addi	sp,sp,-16
    8094:	c422                	sw	s0,8(sp)
    8096:	c04a                	sw	s2,0(sp)
    8098:	c606                	sw	ra,12(sp)
    809a:	c226                	sw	s1,4(sp)
    809c:	842a                	mv	s0,a0
    809e:	892e                	mv	s2,a1
    80a0:	ef89                	bnez	a5,80ba <_Balloc+0x2a>
    80a2:	4541                	li	a0,16
    80a4:	ed3ff0ef          	jal	ra,7f76 <malloc>
    80a8:	d048                	sw	a0,36(s0)
    80aa:	00052223          	sw	zero,4(a0)
    80ae:	00052423          	sw	zero,8(a0)
    80b2:	00052023          	sw	zero,0(a0)
    80b6:	00052623          	sw	zero,12(a0)
    80ba:	5044                	lw	s1,36(s0)
    80bc:	44dc                	lw	a5,12(s1)
    80be:	c79d                	beqz	a5,80ec <_Balloc+0x5c>
    80c0:	5058                	lw	a4,36(s0)
    80c2:	00291793          	slli	a5,s2,0x2
    80c6:	4758                	lw	a4,12(a4)
    80c8:	97ba                	add	a5,a5,a4
    80ca:	4388                	lw	a0,0(a5)
    80cc:	e129                	bnez	a0,810e <_Balloc+0x7e>
    80ce:	4485                	li	s1,1
    80d0:	012494b3          	sll	s1,s1,s2
    80d4:	00548613          	addi	a2,s1,5
    80d8:	060a                	slli	a2,a2,0x2
    80da:	4585                	li	a1,1
    80dc:	8522                	mv	a0,s0
    80de:	13f000ef          	jal	ra,8a1c <_calloc_r>
    80e2:	cd19                	beqz	a0,8100 <_Balloc+0x70>
    80e4:	01252223          	sw	s2,4(a0)
    80e8:	c504                	sw	s1,8(a0)
    80ea:	a025                	j	8112 <_Balloc+0x82>
    80ec:	02100613          	li	a2,33
    80f0:	4591                	li	a1,4
    80f2:	8522                	mv	a0,s0
    80f4:	129000ef          	jal	ra,8a1c <_calloc_r>
    80f8:	505c                	lw	a5,36(s0)
    80fa:	c4c8                	sw	a0,12(s1)
    80fc:	47dc                	lw	a5,12(a5)
    80fe:	f3e9                	bnez	a5,80c0 <_Balloc+0x30>
    8100:	4501                	li	a0,0
    8102:	40b2                	lw	ra,12(sp)
    8104:	4422                	lw	s0,8(sp)
    8106:	4492                	lw	s1,4(sp)
    8108:	4902                	lw	s2,0(sp)
    810a:	0141                	addi	sp,sp,16
    810c:	8082                	ret
    810e:	4118                	lw	a4,0(a0)
    8110:	c398                	sw	a4,0(a5)
    8112:	00052823          	sw	zero,16(a0)
    8116:	00052623          	sw	zero,12(a0)
    811a:	b7e5                	j	8102 <_Balloc+0x72>

0000811c <_Bfree>:
    811c:	515c                	lw	a5,36(a0)
    811e:	1101                	addi	sp,sp,-32
    8120:	cc22                	sw	s0,24(sp)
    8122:	ce06                	sw	ra,28(sp)
    8124:	842a                	mv	s0,a0
    8126:	ef99                	bnez	a5,8144 <_Bfree+0x28>
    8128:	4541                	li	a0,16
    812a:	c62e                	sw	a1,12(sp)
    812c:	e4bff0ef          	jal	ra,7f76 <malloc>
    8130:	45b2                	lw	a1,12(sp)
    8132:	d048                	sw	a0,36(s0)
    8134:	00052223          	sw	zero,4(a0)
    8138:	00052423          	sw	zero,8(a0)
    813c:	00052023          	sw	zero,0(a0)
    8140:	00052623          	sw	zero,12(a0)
    8144:	c991                	beqz	a1,8158 <_Bfree+0x3c>
    8146:	5054                	lw	a3,36(s0)
    8148:	41dc                	lw	a5,4(a1)
    814a:	00279713          	slli	a4,a5,0x2
    814e:	46dc                	lw	a5,12(a3)
    8150:	97ba                	add	a5,a5,a4
    8152:	4398                	lw	a4,0(a5)
    8154:	c198                	sw	a4,0(a1)
    8156:	c38c                	sw	a1,0(a5)
    8158:	40f2                	lw	ra,28(sp)
    815a:	4462                	lw	s0,24(sp)
    815c:	6105                	addi	sp,sp,32
    815e:	8082                	ret

00008160 <__multadd>:
    8160:	7179                	addi	sp,sp,-48
    8162:	ce4e                	sw	s3,28(sp)
    8164:	89aa                	mv	s3,a0
    8166:	6541                	lui	a0,0x10
    8168:	d422                	sw	s0,40(sp)
    816a:	d226                	sw	s1,36(sp)
    816c:	842e                	mv	s0,a1
    816e:	4984                	lw	s1,16(a1)
    8170:	d606                	sw	ra,44(sp)
    8172:	d04a                	sw	s2,32(sp)
    8174:	05d1                	addi	a1,a1,20
    8176:	4801                	li	a6,0
    8178:	157d                	addi	a0,a0,-1
    817a:	419c                	lw	a5,0(a1)
    817c:	0591                	addi	a1,a1,4
    817e:	0805                	addi	a6,a6,1
    8180:	00a7f733          	and	a4,a5,a0
    8184:	02c70733          	mul	a4,a4,a2
    8188:	83c1                	srli	a5,a5,0x10
    818a:	02c787b3          	mul	a5,a5,a2
    818e:	9736                	add	a4,a4,a3
    8190:	01075693          	srli	a3,a4,0x10
    8194:	8f69                	and	a4,a4,a0
    8196:	97b6                	add	a5,a5,a3
    8198:	0107d693          	srli	a3,a5,0x10
    819c:	07c2                	slli	a5,a5,0x10
    819e:	97ba                	add	a5,a5,a4
    81a0:	fef5ae23          	sw	a5,-4(a1)
    81a4:	fc984be3          	blt	a6,s1,817a <__multadd+0x1a>
    81a8:	c2a1                	beqz	a3,81e8 <__multadd+0x88>
    81aa:	441c                	lw	a5,8(s0)
    81ac:	02f4c763          	blt	s1,a5,81da <__multadd+0x7a>
    81b0:	404c                	lw	a1,4(s0)
    81b2:	854e                	mv	a0,s3
    81b4:	c636                	sw	a3,12(sp)
    81b6:	0585                	addi	a1,a1,1
    81b8:	ed9ff0ef          	jal	ra,8090 <_Balloc>
    81bc:	4810                	lw	a2,16(s0)
    81be:	00c40593          	addi	a1,s0,12
    81c2:	892a                	mv	s2,a0
    81c4:	0609                	addi	a2,a2,2
    81c6:	060a                	slli	a2,a2,0x2
    81c8:	0531                	addi	a0,a0,12
    81ca:	e11ff0ef          	jal	ra,7fda <memcpy>
    81ce:	85a2                	mv	a1,s0
    81d0:	854e                	mv	a0,s3
    81d2:	f4bff0ef          	jal	ra,811c <_Bfree>
    81d6:	46b2                	lw	a3,12(sp)
    81d8:	844a                	mv	s0,s2
    81da:	00448793          	addi	a5,s1,4
    81de:	078a                	slli	a5,a5,0x2
    81e0:	97a2                	add	a5,a5,s0
    81e2:	c3d4                	sw	a3,4(a5)
    81e4:	0485                	addi	s1,s1,1
    81e6:	c804                	sw	s1,16(s0)
    81e8:	8522                	mv	a0,s0
    81ea:	50b2                	lw	ra,44(sp)
    81ec:	5422                	lw	s0,40(sp)
    81ee:	5492                	lw	s1,36(sp)
    81f0:	5902                	lw	s2,32(sp)
    81f2:	49f2                	lw	s3,28(sp)
    81f4:	6145                	addi	sp,sp,48
    81f6:	8082                	ret

000081f8 <__s2b>:
    81f8:	7179                	addi	sp,sp,-48
    81fa:	00868793          	addi	a5,a3,8
    81fe:	cc52                	sw	s4,24(sp)
    8200:	8a36                	mv	s4,a3
    8202:	46a5                	li	a3,9
    8204:	d422                	sw	s0,40(sp)
    8206:	d226                	sw	s1,36(sp)
    8208:	ce4e                	sw	s3,28(sp)
    820a:	842e                	mv	s0,a1
    820c:	02d7c7b3          	div	a5,a5,a3
    8210:	d606                	sw	ra,44(sp)
    8212:	d04a                	sw	s2,32(sp)
    8214:	ca56                	sw	s5,20(sp)
    8216:	89aa                	mv	s3,a0
    8218:	84b2                	mv	s1,a2
    821a:	4685                	li	a3,1
    821c:	4581                	li	a1,0
    821e:	04f6cc63          	blt	a3,a5,8276 <__s2b+0x7e>
    8222:	854e                	mv	a0,s3
    8224:	c63a                	sw	a4,12(sp)
    8226:	e6bff0ef          	jal	ra,8090 <_Balloc>
    822a:	4732                	lw	a4,12(sp)
    822c:	4785                	li	a5,1
    822e:	c91c                	sw	a5,16(a0)
    8230:	c958                	sw	a4,20(a0)
    8232:	47a5                	li	a5,9
    8234:	0497d463          	bge	a5,s1,827c <__s2b+0x84>
    8238:	00940a93          	addi	s5,s0,9
    823c:	8956                	mv	s2,s5
    823e:	9426                	add	s0,s0,s1
    8240:	0905                	addi	s2,s2,1
    8242:	fff94683          	lbu	a3,-1(s2)
    8246:	85aa                	mv	a1,a0
    8248:	4629                	li	a2,10
    824a:	fd068693          	addi	a3,a3,-48
    824e:	854e                	mv	a0,s3
    8250:	f11ff0ef          	jal	ra,8160 <__multadd>
    8254:	fe8916e3          	bne	s2,s0,8240 <__s2b+0x48>
    8258:	ff848413          	addi	s0,s1,-8
    825c:	9456                	add	s0,s0,s5
    825e:	8926                	mv	s2,s1
    8260:	03494163          	blt	s2,s4,8282 <__s2b+0x8a>
    8264:	50b2                	lw	ra,44(sp)
    8266:	5422                	lw	s0,40(sp)
    8268:	5492                	lw	s1,36(sp)
    826a:	5902                	lw	s2,32(sp)
    826c:	49f2                	lw	s3,28(sp)
    826e:	4a62                	lw	s4,24(sp)
    8270:	4ad2                	lw	s5,20(sp)
    8272:	6145                	addi	sp,sp,48
    8274:	8082                	ret
    8276:	0686                	slli	a3,a3,0x1
    8278:	0585                	addi	a1,a1,1
    827a:	b755                	j	821e <__s2b+0x26>
    827c:	0429                	addi	s0,s0,10
    827e:	44a5                	li	s1,9
    8280:	bff9                	j	825e <__s2b+0x66>
    8282:	409907b3          	sub	a5,s2,s1
    8286:	97a2                	add	a5,a5,s0
    8288:	0007c683          	lbu	a3,0(a5)
    828c:	85aa                	mv	a1,a0
    828e:	4629                	li	a2,10
    8290:	fd068693          	addi	a3,a3,-48
    8294:	854e                	mv	a0,s3
    8296:	ecbff0ef          	jal	ra,8160 <__multadd>
    829a:	0905                	addi	s2,s2,1
    829c:	b7d1                	j	8260 <__s2b+0x68>

0000829e <__hi0bits>:
    829e:	7741                	lui	a4,0xffff0
    82a0:	8f69                	and	a4,a4,a0
    82a2:	87aa                	mv	a5,a0
    82a4:	4501                	li	a0,0
    82a6:	e319                	bnez	a4,82ac <__hi0bits+0xe>
    82a8:	07c2                	slli	a5,a5,0x10
    82aa:	4541                	li	a0,16
    82ac:	ff000737          	lui	a4,0xff000
    82b0:	8f7d                	and	a4,a4,a5
    82b2:	e319                	bnez	a4,82b8 <__hi0bits+0x1a>
    82b4:	0521                	addi	a0,a0,8
    82b6:	07a2                	slli	a5,a5,0x8
    82b8:	f0000737          	lui	a4,0xf0000
    82bc:	8f7d                	and	a4,a4,a5
    82be:	e319                	bnez	a4,82c4 <__hi0bits+0x26>
    82c0:	0511                	addi	a0,a0,4
    82c2:	0792                	slli	a5,a5,0x4
    82c4:	c0000737          	lui	a4,0xc0000
    82c8:	8f7d                	and	a4,a4,a5
    82ca:	e319                	bnez	a4,82d0 <__hi0bits+0x32>
    82cc:	0509                	addi	a0,a0,2
    82ce:	078a                	slli	a5,a5,0x2
    82d0:	0007c963          	bltz	a5,82e2 <__hi0bits+0x44>
    82d4:	00179713          	slli	a4,a5,0x1
    82d8:	0505                	addi	a0,a0,1
    82da:	00074463          	bltz	a4,82e2 <__hi0bits+0x44>
    82de:	02000513          	li	a0,32
    82e2:	8082                	ret

000082e4 <__lo0bits>:
    82e4:	411c                	lw	a5,0(a0)
    82e6:	0077f713          	andi	a4,a5,7
    82ea:	c30d                	beqz	a4,830c <__lo0bits+0x28>
    82ec:	0017f693          	andi	a3,a5,1
    82f0:	4701                	li	a4,0
    82f2:	e699                	bnez	a3,8300 <__lo0bits+0x1c>
    82f4:	0027f713          	andi	a4,a5,2
    82f8:	c711                	beqz	a4,8304 <__lo0bits+0x20>
    82fa:	8385                	srli	a5,a5,0x1
    82fc:	c11c                	sw	a5,0(a0)
    82fe:	4705                	li	a4,1
    8300:	853a                	mv	a0,a4
    8302:	8082                	ret
    8304:	8389                	srli	a5,a5,0x2
    8306:	c11c                	sw	a5,0(a0)
    8308:	4709                	li	a4,2
    830a:	bfdd                	j	8300 <__lo0bits+0x1c>
    830c:	01079693          	slli	a3,a5,0x10
    8310:	82c1                	srli	a3,a3,0x10
    8312:	4701                	li	a4,0
    8314:	e299                	bnez	a3,831a <__lo0bits+0x36>
    8316:	83c1                	srli	a5,a5,0x10
    8318:	4741                	li	a4,16
    831a:	0ff7f693          	andi	a3,a5,255
    831e:	e299                	bnez	a3,8324 <__lo0bits+0x40>
    8320:	0721                	addi	a4,a4,8
    8322:	83a1                	srli	a5,a5,0x8
    8324:	00f7f693          	andi	a3,a5,15
    8328:	e299                	bnez	a3,832e <__lo0bits+0x4a>
    832a:	0711                	addi	a4,a4,4
    832c:	8391                	srli	a5,a5,0x4
    832e:	0037f693          	andi	a3,a5,3
    8332:	e299                	bnez	a3,8338 <__lo0bits+0x54>
    8334:	0709                	addi	a4,a4,2
    8336:	8389                	srli	a5,a5,0x2
    8338:	0017f693          	andi	a3,a5,1
    833c:	e681                	bnez	a3,8344 <__lo0bits+0x60>
    833e:	8385                	srli	a5,a5,0x1
    8340:	0705                	addi	a4,a4,1
    8342:	c399                	beqz	a5,8348 <__lo0bits+0x64>
    8344:	c11c                	sw	a5,0(a0)
    8346:	bf6d                	j	8300 <__lo0bits+0x1c>
    8348:	02000713          	li	a4,32
    834c:	bf55                	j	8300 <__lo0bits+0x1c>

0000834e <__i2b>:
    834e:	1141                	addi	sp,sp,-16
    8350:	c422                	sw	s0,8(sp)
    8352:	842e                	mv	s0,a1
    8354:	4585                	li	a1,1
    8356:	c606                	sw	ra,12(sp)
    8358:	d39ff0ef          	jal	ra,8090 <_Balloc>
    835c:	c940                	sw	s0,20(a0)
    835e:	40b2                	lw	ra,12(sp)
    8360:	4422                	lw	s0,8(sp)
    8362:	4705                	li	a4,1
    8364:	c918                	sw	a4,16(a0)
    8366:	0141                	addi	sp,sp,16
    8368:	8082                	ret

0000836a <__multiply>:
    836a:	4998                	lw	a4,16(a1)
    836c:	4a1c                	lw	a5,16(a2)
    836e:	7179                	addi	sp,sp,-48
    8370:	d226                	sw	s1,36(sp)
    8372:	d606                	sw	ra,44(sp)
    8374:	d422                	sw	s0,40(sp)
    8376:	d04a                	sw	s2,32(sp)
    8378:	ce4e                	sw	s3,28(sp)
    837a:	84ae                	mv	s1,a1
    837c:	00f75463          	bge	a4,a5,8384 <__multiply+0x1a>
    8380:	84b2                	mv	s1,a2
    8382:	862e                	mv	a2,a1
    8384:	0104a983          	lw	s3,16(s1)
    8388:	01062903          	lw	s2,16(a2)
    838c:	449c                	lw	a5,8(s1)
    838e:	40cc                	lw	a1,4(s1)
    8390:	01298433          	add	s0,s3,s2
    8394:	0087d363          	bge	a5,s0,839a <__multiply+0x30>
    8398:	0585                	addi	a1,a1,1
    839a:	c632                	sw	a2,12(sp)
    839c:	cf5ff0ef          	jal	ra,8090 <_Balloc>
    83a0:	4632                	lw	a2,12(sp)
    83a2:	01450813          	addi	a6,a0,20 # 10014 <_data_lma+0x6210>
    83a6:	00241313          	slli	t1,s0,0x2
    83aa:	9342                	add	t1,t1,a6
    83ac:	87c2                	mv	a5,a6
    83ae:	0267ed63          	bltu	a5,t1,83e8 <__multiply+0x7e>
    83b2:	01448593          	addi	a1,s1,20
    83b6:	00299893          	slli	a7,s3,0x2
    83ba:	0651                	addi	a2,a2,20
    83bc:	00291e13          	slli	t3,s2,0x2
    83c0:	66c1                	lui	a3,0x10
    83c2:	98ae                	add	a7,a7,a1
    83c4:	9e32                	add	t3,t3,a2
    83c6:	16fd                	addi	a3,a3,-1
    83c8:	03c66463          	bltu	a2,t3,83f0 <__multiply+0x86>
    83cc:	00805663          	blez	s0,83d8 <__multiply+0x6e>
    83d0:	1371                	addi	t1,t1,-4
    83d2:	00032783          	lw	a5,0(t1)
    83d6:	cbf1                	beqz	a5,84aa <__multiply+0x140>
    83d8:	c900                	sw	s0,16(a0)
    83da:	50b2                	lw	ra,44(sp)
    83dc:	5422                	lw	s0,40(sp)
    83de:	5492                	lw	s1,36(sp)
    83e0:	5902                	lw	s2,32(sp)
    83e2:	49f2                	lw	s3,28(sp)
    83e4:	6145                	addi	sp,sp,48
    83e6:	8082                	ret
    83e8:	0007a023          	sw	zero,0(a5)
    83ec:	0791                	addi	a5,a5,4
    83ee:	b7c1                	j	83ae <__multiply+0x44>
    83f0:	00062f83          	lw	t6,0(a2)
    83f4:	00dfffb3          	and	t6,t6,a3
    83f8:	040f8a63          	beqz	t6,844c <__multiply+0xe2>
    83fc:	8f42                	mv	t5,a6
    83fe:	82ae                	mv	t0,a1
    8400:	4481                	li	s1,0
    8402:	0002a703          	lw	a4,0(t0)
    8406:	000f2383          	lw	t2,0(t5)
    840a:	0f11                	addi	t5,t5,4
    840c:	00d77eb3          	and	t4,a4,a3
    8410:	03fe8eb3          	mul	t4,t4,t6
    8414:	00d3f7b3          	and	a5,t2,a3
    8418:	0103d393          	srli	t2,t2,0x10
    841c:	0291                	addi	t0,t0,4
    841e:	9ebe                	add	t4,t4,a5
    8420:	01075793          	srli	a5,a4,0x10
    8424:	03f787b3          	mul	a5,a5,t6
    8428:	9ea6                	add	t4,t4,s1
    842a:	010ed713          	srli	a4,t4,0x10
    842e:	00defeb3          	and	t4,t4,a3
    8432:	979e                	add	a5,a5,t2
    8434:	97ba                	add	a5,a5,a4
    8436:	0107d493          	srli	s1,a5,0x10
    843a:	07c2                	slli	a5,a5,0x10
    843c:	01d7e7b3          	or	a5,a5,t4
    8440:	feff2e23          	sw	a5,-4(t5)
    8444:	fb12efe3          	bltu	t0,a7,8402 <__multiply+0x98>
    8448:	009f2023          	sw	s1,0(t5)
    844c:	00265283          	lhu	t0,2(a2)
    8450:	04028a63          	beqz	t0,84a4 <__multiply+0x13a>
    8454:	00082783          	lw	a5,0(a6)
    8458:	8ec2                	mv	t4,a6
    845a:	8f2e                	mv	t5,a1
    845c:	4f81                	li	t6,0
    845e:	000f2703          	lw	a4,0(t5)
    8462:	002ed383          	lhu	t2,2(t4)
    8466:	8ff5                	and	a5,a5,a3
    8468:	8f75                	and	a4,a4,a3
    846a:	02570733          	mul	a4,a4,t0
    846e:	0e91                	addi	t4,t4,4
    8470:	0f11                	addi	t5,t5,4
    8472:	971e                	add	a4,a4,t2
    8474:	977e                	add	a4,a4,t6
    8476:	01071f93          	slli	t6,a4,0x10
    847a:	00ffe7b3          	or	a5,t6,a5
    847e:	fefeae23          	sw	a5,-4(t4)
    8482:	ffef5783          	lhu	a5,-2(t5)
    8486:	000eaf83          	lw	t6,0(t4)
    848a:	8341                	srli	a4,a4,0x10
    848c:	025787b3          	mul	a5,a5,t0
    8490:	00dfffb3          	and	t6,t6,a3
    8494:	97fe                	add	a5,a5,t6
    8496:	97ba                	add	a5,a5,a4
    8498:	0107df93          	srli	t6,a5,0x10
    849c:	fd1f61e3          	bltu	t5,a7,845e <__multiply+0xf4>
    84a0:	00fea023          	sw	a5,0(t4)
    84a4:	0611                	addi	a2,a2,4
    84a6:	0811                	addi	a6,a6,4
    84a8:	b705                	j	83c8 <__multiply+0x5e>
    84aa:	147d                	addi	s0,s0,-1
    84ac:	b705                	j	83cc <__multiply+0x62>

000084ae <__pow5mult>:
    84ae:	1101                	addi	sp,sp,-32
    84b0:	ca26                	sw	s1,20(sp)
    84b2:	c84a                	sw	s2,16(sp)
    84b4:	c64e                	sw	s3,12(sp)
    84b6:	ce06                	sw	ra,28(sp)
    84b8:	cc22                	sw	s0,24(sp)
    84ba:	c452                	sw	s4,8(sp)
    84bc:	00367793          	andi	a5,a2,3
    84c0:	892a                	mv	s2,a0
    84c2:	84b2                	mv	s1,a2
    84c4:	89ae                	mv	s3,a1
    84c6:	cf89                	beqz	a5,84e0 <__pow5mult+0x32>
    84c8:	17fd                	addi	a5,a5,-1
    84ca:	00002717          	auipc	a4,0x2
    84ce:	81670713          	addi	a4,a4,-2026 # 9ce0 <p05.3319>
    84d2:	078a                	slli	a5,a5,0x2
    84d4:	97ba                	add	a5,a5,a4
    84d6:	4390                	lw	a2,0(a5)
    84d8:	4681                	li	a3,0
    84da:	c87ff0ef          	jal	ra,8160 <__multadd>
    84de:	89aa                	mv	s3,a0
    84e0:	8489                	srai	s1,s1,0x2
    84e2:	cca5                	beqz	s1,855a <__pow5mult+0xac>
    84e4:	02492783          	lw	a5,36(s2)
    84e8:	ef91                	bnez	a5,8504 <__pow5mult+0x56>
    84ea:	4541                	li	a0,16
    84ec:	a8bff0ef          	jal	ra,7f76 <malloc>
    84f0:	02a92223          	sw	a0,36(s2)
    84f4:	00052223          	sw	zero,4(a0)
    84f8:	00052423          	sw	zero,8(a0)
    84fc:	00052023          	sw	zero,0(a0)
    8500:	00052623          	sw	zero,12(a0)
    8504:	02492a03          	lw	s4,36(s2)
    8508:	008a2403          	lw	s0,8(s4)
    850c:	e819                	bnez	s0,8522 <__pow5mult+0x74>
    850e:	27100593          	li	a1,625
    8512:	854a                	mv	a0,s2
    8514:	e3bff0ef          	jal	ra,834e <__i2b>
    8518:	00aa2423          	sw	a0,8(s4)
    851c:	842a                	mv	s0,a0
    851e:	00052023          	sw	zero,0(a0)
    8522:	0014f793          	andi	a5,s1,1
    8526:	cf81                	beqz	a5,853e <__pow5mult+0x90>
    8528:	85ce                	mv	a1,s3
    852a:	8622                	mv	a2,s0
    852c:	854a                	mv	a0,s2
    852e:	e3dff0ef          	jal	ra,836a <__multiply>
    8532:	8a2a                	mv	s4,a0
    8534:	85ce                	mv	a1,s3
    8536:	854a                	mv	a0,s2
    8538:	be5ff0ef          	jal	ra,811c <_Bfree>
    853c:	89d2                	mv	s3,s4
    853e:	8485                	srai	s1,s1,0x1
    8540:	cc89                	beqz	s1,855a <__pow5mult+0xac>
    8542:	4008                	lw	a0,0(s0)
    8544:	e909                	bnez	a0,8556 <__pow5mult+0xa8>
    8546:	8622                	mv	a2,s0
    8548:	85a2                	mv	a1,s0
    854a:	854a                	mv	a0,s2
    854c:	e1fff0ef          	jal	ra,836a <__multiply>
    8550:	c008                	sw	a0,0(s0)
    8552:	00052023          	sw	zero,0(a0)
    8556:	842a                	mv	s0,a0
    8558:	b7e9                	j	8522 <__pow5mult+0x74>
    855a:	40f2                	lw	ra,28(sp)
    855c:	4462                	lw	s0,24(sp)
    855e:	854e                	mv	a0,s3
    8560:	44d2                	lw	s1,20(sp)
    8562:	4942                	lw	s2,16(sp)
    8564:	49b2                	lw	s3,12(sp)
    8566:	4a22                	lw	s4,8(sp)
    8568:	6105                	addi	sp,sp,32
    856a:	8082                	ret

0000856c <__lshift>:
    856c:	7179                	addi	sp,sp,-48
    856e:	d226                	sw	s1,36(sp)
    8570:	84ae                	mv	s1,a1
    8572:	ce4e                	sw	s3,28(sp)
    8574:	0104a983          	lw	s3,16(s1)
    8578:	d422                	sw	s0,40(sp)
    857a:	41cc                	lw	a1,4(a1)
    857c:	40565413          	srai	s0,a2,0x5
    8580:	449c                	lw	a5,8(s1)
    8582:	99a2                	add	s3,s3,s0
    8584:	d04a                	sw	s2,32(sp)
    8586:	ca56                	sw	s5,20(sp)
    8588:	d606                	sw	ra,44(sp)
    858a:	cc52                	sw	s4,24(sp)
    858c:	8aaa                	mv	s5,a0
    858e:	00198913          	addi	s2,s3,1
    8592:	0927c463          	blt	a5,s2,861a <__lshift+0xae>
    8596:	8556                	mv	a0,s5
    8598:	c632                	sw	a2,12(sp)
    859a:	af7ff0ef          	jal	ra,8090 <_Balloc>
    859e:	4632                	lw	a2,12(sp)
    85a0:	01450793          	addi	a5,a0,20
    85a4:	8a2a                	mv	s4,a0
    85a6:	86be                	mv	a3,a5
    85a8:	4701                	li	a4,0
    85aa:	0691                	addi	a3,a3,4
    85ac:	06874a63          	blt	a4,s0,8620 <__lshift+0xb4>
    85b0:	00045363          	bgez	s0,85b6 <__lshift+0x4a>
    85b4:	4401                	li	s0,0
    85b6:	4894                	lw	a3,16(s1)
    85b8:	040a                	slli	s0,s0,0x2
    85ba:	00878733          	add	a4,a5,s0
    85be:	068a                	slli	a3,a3,0x2
    85c0:	01448793          	addi	a5,s1,20
    85c4:	8a7d                	andi	a2,a2,31
    85c6:	96be                	add	a3,a3,a5
    85c8:	c225                	beqz	a2,8628 <__lshift+0xbc>
    85ca:	02000813          	li	a6,32
    85ce:	40c80833          	sub	a6,a6,a2
    85d2:	4581                	li	a1,0
    85d4:	4388                	lw	a0,0(a5)
    85d6:	0711                	addi	a4,a4,4
    85d8:	0791                	addi	a5,a5,4
    85da:	00c51533          	sll	a0,a0,a2
    85de:	8dc9                	or	a1,a1,a0
    85e0:	feb72e23          	sw	a1,-4(a4)
    85e4:	ffc7a583          	lw	a1,-4(a5)
    85e8:	0105d5b3          	srl	a1,a1,a6
    85ec:	fed7e4e3          	bltu	a5,a3,85d4 <__lshift+0x68>
    85f0:	c30c                	sw	a1,0(a4)
    85f2:	c199                	beqz	a1,85f8 <__lshift+0x8c>
    85f4:	00298913          	addi	s2,s3,2
    85f8:	197d                	addi	s2,s2,-1
    85fa:	012a2823          	sw	s2,16(s4)
    85fe:	8556                	mv	a0,s5
    8600:	85a6                	mv	a1,s1
    8602:	b1bff0ef          	jal	ra,811c <_Bfree>
    8606:	50b2                	lw	ra,44(sp)
    8608:	5422                	lw	s0,40(sp)
    860a:	8552                	mv	a0,s4
    860c:	5492                	lw	s1,36(sp)
    860e:	5902                	lw	s2,32(sp)
    8610:	49f2                	lw	s3,28(sp)
    8612:	4a62                	lw	s4,24(sp)
    8614:	4ad2                	lw	s5,20(sp)
    8616:	6145                	addi	sp,sp,48
    8618:	8082                	ret
    861a:	0585                	addi	a1,a1,1
    861c:	0786                	slli	a5,a5,0x1
    861e:	bf95                	j	8592 <__lshift+0x26>
    8620:	fe06ae23          	sw	zero,-4(a3) # fffc <_data_lma+0x61f8>
    8624:	0705                	addi	a4,a4,1
    8626:	b751                	j	85aa <__lshift+0x3e>
    8628:	0791                	addi	a5,a5,4
    862a:	ffc7a603          	lw	a2,-4(a5)
    862e:	0711                	addi	a4,a4,4
    8630:	fec72e23          	sw	a2,-4(a4)
    8634:	fed7eae3          	bltu	a5,a3,8628 <__lshift+0xbc>
    8638:	b7c1                	j	85f8 <__lshift+0x8c>

0000863a <__mcmp>:
    863a:	491c                	lw	a5,16(a0)
    863c:	4998                	lw	a4,16(a1)
    863e:	8f99                	sub	a5,a5,a4
    8640:	e38d                	bnez	a5,8662 <__mcmp+0x28>
    8642:	070a                	slli	a4,a4,0x2
    8644:	0551                	addi	a0,a0,20
    8646:	05d1                	addi	a1,a1,20
    8648:	00e506b3          	add	a3,a0,a4
    864c:	95ba                	add	a1,a1,a4
    864e:	16f1                	addi	a3,a3,-4
    8650:	15f1                	addi	a1,a1,-4
    8652:	4290                	lw	a2,0(a3)
    8654:	4198                	lw	a4,0(a1)
    8656:	00e60863          	beq	a2,a4,8666 <__mcmp+0x2c>
    865a:	57fd                	li	a5,-1
    865c:	00e66363          	bltu	a2,a4,8662 <__mcmp+0x28>
    8660:	4785                	li	a5,1
    8662:	853e                	mv	a0,a5
    8664:	8082                	ret
    8666:	fed564e3          	bltu	a0,a3,864e <__mcmp+0x14>
    866a:	bfe5                	j	8662 <__mcmp+0x28>

0000866c <__mdiff>:
    866c:	1101                	addi	sp,sp,-32
    866e:	ca26                	sw	s1,20(sp)
    8670:	84ae                	mv	s1,a1
    8672:	c64e                	sw	s3,12(sp)
    8674:	85b2                	mv	a1,a2
    8676:	89aa                	mv	s3,a0
    8678:	8526                	mv	a0,s1
    867a:	cc22                	sw	s0,24(sp)
    867c:	ce06                	sw	ra,28(sp)
    867e:	c84a                	sw	s2,16(sp)
    8680:	8432                	mv	s0,a2
    8682:	fb9ff0ef          	jal	ra,863a <__mcmp>
    8686:	e105                	bnez	a0,86a6 <__mdiff+0x3a>
    8688:	4581                	li	a1,0
    868a:	854e                	mv	a0,s3
    868c:	a05ff0ef          	jal	ra,8090 <_Balloc>
    8690:	4785                	li	a5,1
    8692:	c91c                	sw	a5,16(a0)
    8694:	00052a23          	sw	zero,20(a0)
    8698:	40f2                	lw	ra,28(sp)
    869a:	4462                	lw	s0,24(sp)
    869c:	44d2                	lw	s1,20(sp)
    869e:	4942                	lw	s2,16(sp)
    86a0:	49b2                	lw	s3,12(sp)
    86a2:	6105                	addi	sp,sp,32
    86a4:	8082                	ret
    86a6:	4905                	li	s2,1
    86a8:	00054663          	bltz	a0,86b4 <__mdiff+0x48>
    86ac:	87a2                	mv	a5,s0
    86ae:	4901                	li	s2,0
    86b0:	8426                	mv	s0,s1
    86b2:	84be                	mv	s1,a5
    86b4:	404c                	lw	a1,4(s0)
    86b6:	854e                	mv	a0,s3
    86b8:	9d9ff0ef          	jal	ra,8090 <_Balloc>
    86bc:	01042303          	lw	t1,16(s0)
    86c0:	0104a883          	lw	a7,16(s1)
    86c4:	01440613          	addi	a2,s0,20
    86c8:	00231e13          	slli	t3,t1,0x2
    86cc:	01448813          	addi	a6,s1,20
    86d0:	088a                	slli	a7,a7,0x2
    86d2:	6ec1                	lui	t4,0x10
    86d4:	01252623          	sw	s2,12(a0)
    86d8:	9e32                	add	t3,t3,a2
    86da:	98c2                	add	a7,a7,a6
    86dc:	01450693          	addi	a3,a0,20
    86e0:	4f01                	li	t5,0
    86e2:	1efd                	addi	t4,t4,-1
    86e4:	4218                	lw	a4,0(a2)
    86e6:	00082f83          	lw	t6,0(a6)
    86ea:	0691                	addi	a3,a3,4
    86ec:	01d775b3          	and	a1,a4,t4
    86f0:	01dff7b3          	and	a5,t6,t4
    86f4:	95fa                	add	a1,a1,t5
    86f6:	8d9d                	sub	a1,a1,a5
    86f8:	010fdf93          	srli	t6,t6,0x10
    86fc:	01075793          	srli	a5,a4,0x10
    8700:	41f787b3          	sub	a5,a5,t6
    8704:	4105d713          	srai	a4,a1,0x10
    8708:	97ba                	add	a5,a5,a4
    870a:	4107df13          	srai	t5,a5,0x10
    870e:	01d5f5b3          	and	a1,a1,t4
    8712:	07c2                	slli	a5,a5,0x10
    8714:	8fcd                	or	a5,a5,a1
    8716:	0811                	addi	a6,a6,4
    8718:	fef6ae23          	sw	a5,-4(a3)
    871c:	0611                	addi	a2,a2,4
    871e:	fd1863e3          	bltu	a6,a7,86e4 <__mdiff+0x78>
    8722:	65c1                	lui	a1,0x10
    8724:	15fd                	addi	a1,a1,-1
    8726:	01c66863          	bltu	a2,t3,8736 <__mdiff+0xca>
    872a:	16f1                	addi	a3,a3,-4
    872c:	429c                	lw	a5,0(a3)
    872e:	c795                	beqz	a5,875a <__mdiff+0xee>
    8730:	00652823          	sw	t1,16(a0)
    8734:	b795                	j	8698 <__mdiff+0x2c>
    8736:	421c                	lw	a5,0(a2)
    8738:	0691                	addi	a3,a3,4
    873a:	0611                	addi	a2,a2,4
    873c:	00b7f733          	and	a4,a5,a1
    8740:	977a                	add	a4,a4,t5
    8742:	41075813          	srai	a6,a4,0x10
    8746:	83c1                	srli	a5,a5,0x10
    8748:	97c2                	add	a5,a5,a6
    874a:	4107df13          	srai	t5,a5,0x10
    874e:	8f6d                	and	a4,a4,a1
    8750:	07c2                	slli	a5,a5,0x10
    8752:	8fd9                	or	a5,a5,a4
    8754:	fef6ae23          	sw	a5,-4(a3)
    8758:	b7f9                	j	8726 <__mdiff+0xba>
    875a:	137d                	addi	t1,t1,-1
    875c:	b7f9                	j	872a <__mdiff+0xbe>

0000875e <__ulp>:
    875e:	7ff007b7          	lui	a5,0x7ff00
    8762:	8dfd                	and	a1,a1,a5
    8764:	fcc007b7          	lui	a5,0xfcc00
    8768:	95be                	add	a1,a1,a5
    876a:	00b05563          	blez	a1,8774 <__ulp+0x16>
    876e:	4781                	li	a5,0
    8770:	853e                	mv	a0,a5
    8772:	8082                	ret
    8774:	40b005b3          	neg	a1,a1
    8778:	4145d793          	srai	a5,a1,0x14
    877c:	474d                	li	a4,19
    877e:	00f74763          	blt	a4,a5,878c <__ulp+0x2e>
    8782:	000805b7          	lui	a1,0x80
    8786:	40f5d5b3          	sra	a1,a1,a5
    878a:	b7d5                	j	876e <__ulp+0x10>
    878c:	fec78713          	addi	a4,a5,-20 # fcbfffec <_eusrstack+0xdcbf7fec>
    8790:	46f9                	li	a3,30
    8792:	4581                	li	a1,0
    8794:	4785                	li	a5,1
    8796:	fce6cde3          	blt	a3,a4,8770 <__ulp+0x12>
    879a:	800007b7          	lui	a5,0x80000
    879e:	00e7d7b3          	srl	a5,a5,a4
    87a2:	b7f9                	j	8770 <__ulp+0x12>

000087a4 <__b2d>:
    87a4:	7179                	addi	sp,sp,-48
    87a6:	d226                	sw	s1,36(sp)
    87a8:	4904                	lw	s1,16(a0)
    87aa:	ce4e                	sw	s3,28(sp)
    87ac:	01450993          	addi	s3,a0,20
    87b0:	048a                	slli	s1,s1,0x2
    87b2:	94ce                	add	s1,s1,s3
    87b4:	d422                	sw	s0,40(sp)
    87b6:	ffc4a403          	lw	s0,-4(s1)
    87ba:	d04a                	sw	s2,32(sp)
    87bc:	c62e                	sw	a1,12(sp)
    87be:	8522                	mv	a0,s0
    87c0:	d606                	sw	ra,44(sp)
    87c2:	addff0ef          	jal	ra,829e <__hi0bits>
    87c6:	45b2                	lw	a1,12(sp)
    87c8:	02000793          	li	a5,32
    87cc:	8f89                	sub	a5,a5,a0
    87ce:	c19c                	sw	a5,0(a1)
    87d0:	47a9                	li	a5,10
    87d2:	ffc48913          	addi	s2,s1,-4
    87d6:	02a7cd63          	blt	a5,a0,8810 <__b2d+0x6c>
    87da:	47ad                	li	a5,11
    87dc:	8f89                	sub	a5,a5,a0
    87de:	3ff00737          	lui	a4,0x3ff00
    87e2:	00f456b3          	srl	a3,s0,a5
    87e6:	8ed9                	or	a3,a3,a4
    87e8:	4701                	li	a4,0
    87ea:	0129f463          	bgeu	s3,s2,87f2 <__b2d+0x4e>
    87ee:	ff84a703          	lw	a4,-8(s1)
    87f2:	0555                	addi	a0,a0,21
    87f4:	00a41533          	sll	a0,s0,a0
    87f8:	00f757b3          	srl	a5,a4,a5
    87fc:	8fc9                	or	a5,a5,a0
    87fe:	50b2                	lw	ra,44(sp)
    8800:	5422                	lw	s0,40(sp)
    8802:	5492                	lw	s1,36(sp)
    8804:	5902                	lw	s2,32(sp)
    8806:	49f2                	lw	s3,28(sp)
    8808:	853e                	mv	a0,a5
    880a:	85b6                	mv	a1,a3
    880c:	6145                	addi	sp,sp,48
    880e:	8082                	ret
    8810:	4781                	li	a5,0
    8812:	0129f663          	bgeu	s3,s2,881e <__b2d+0x7a>
    8816:	ff84a783          	lw	a5,-8(s1)
    881a:	ff848913          	addi	s2,s1,-8
    881e:	1555                	addi	a0,a0,-11
    8820:	c905                	beqz	a0,8850 <__b2d+0xac>
    8822:	02000713          	li	a4,32
    8826:	40a70633          	sub	a2,a4,a0
    882a:	00c7d733          	srl	a4,a5,a2
    882e:	00a41433          	sll	s0,s0,a0
    8832:	8c59                	or	s0,s0,a4
    8834:	3ff006b7          	lui	a3,0x3ff00
    8838:	8ec1                	or	a3,a3,s0
    883a:	4701                	li	a4,0
    883c:	0129f463          	bgeu	s3,s2,8844 <__b2d+0xa0>
    8840:	ffc92703          	lw	a4,-4(s2)
    8844:	00a797b3          	sll	a5,a5,a0
    8848:	00c75733          	srl	a4,a4,a2
    884c:	8fd9                	or	a5,a5,a4
    884e:	bf45                	j	87fe <__b2d+0x5a>
    8850:	3ff006b7          	lui	a3,0x3ff00
    8854:	8ec1                	or	a3,a3,s0
    8856:	b765                	j	87fe <__b2d+0x5a>

00008858 <__d2b>:
    8858:	7179                	addi	sp,sp,-48
    885a:	d422                	sw	s0,40(sp)
    885c:	842e                	mv	s0,a1
    885e:	4585                	li	a1,1
    8860:	d226                	sw	s1,36(sp)
    8862:	d04a                	sw	s2,32(sp)
    8864:	84b2                	mv	s1,a2
    8866:	ce4e                	sw	s3,28(sp)
    8868:	cc52                	sw	s4,24(sp)
    886a:	893a                	mv	s2,a4
    886c:	d606                	sw	ra,44(sp)
    886e:	8a36                	mv	s4,a3
    8870:	821ff0ef          	jal	ra,8090 <_Balloc>
    8874:	00100737          	lui	a4,0x100
    8878:	fff70793          	addi	a5,a4,-1 # fffff <_data_lma+0xf61fb>
    887c:	8fe5                	and	a5,a5,s1
    887e:	80d1                	srli	s1,s1,0x14
    8880:	7ff4f493          	andi	s1,s1,2047
    8884:	89aa                	mv	s3,a0
    8886:	e0b5                	bnez	s1,88ea <__d2b+0x92>
    8888:	c63e                	sw	a5,12(sp)
    888a:	c42d                	beqz	s0,88f4 <__d2b+0x9c>
    888c:	0028                	addi	a0,sp,8
    888e:	c422                	sw	s0,8(sp)
    8890:	a55ff0ef          	jal	ra,82e4 <__lo0bits>
    8894:	46a2                	lw	a3,8(sp)
    8896:	cd21                	beqz	a0,88ee <__d2b+0x96>
    8898:	4732                	lw	a4,12(sp)
    889a:	02000793          	li	a5,32
    889e:	8f89                	sub	a5,a5,a0
    88a0:	00f717b3          	sll	a5,a4,a5
    88a4:	8fd5                	or	a5,a5,a3
    88a6:	00a75733          	srl	a4,a4,a0
    88aa:	00f9aa23          	sw	a5,20(s3)
    88ae:	c63a                	sw	a4,12(sp)
    88b0:	4432                	lw	s0,12(sp)
    88b2:	0089ac23          	sw	s0,24(s3)
    88b6:	00803433          	snez	s0,s0
    88ba:	0405                	addi	s0,s0,1
    88bc:	0089a823          	sw	s0,16(s3)
    88c0:	c4b9                	beqz	s1,890e <__d2b+0xb6>
    88c2:	bcd48493          	addi	s1,s1,-1075
    88c6:	94aa                	add	s1,s1,a0
    88c8:	03500793          	li	a5,53
    88cc:	009a2023          	sw	s1,0(s4)
    88d0:	40a78533          	sub	a0,a5,a0
    88d4:	00a92023          	sw	a0,0(s2)
    88d8:	50b2                	lw	ra,44(sp)
    88da:	5422                	lw	s0,40(sp)
    88dc:	854e                	mv	a0,s3
    88de:	5492                	lw	s1,36(sp)
    88e0:	5902                	lw	s2,32(sp)
    88e2:	49f2                	lw	s3,28(sp)
    88e4:	4a62                	lw	s4,24(sp)
    88e6:	6145                	addi	sp,sp,48
    88e8:	8082                	ret
    88ea:	8fd9                	or	a5,a5,a4
    88ec:	bf71                	j	8888 <__d2b+0x30>
    88ee:	00d9aa23          	sw	a3,20(s3)
    88f2:	bf7d                	j	88b0 <__d2b+0x58>
    88f4:	0068                	addi	a0,sp,12
    88f6:	9efff0ef          	jal	ra,82e4 <__lo0bits>
    88fa:	47b2                	lw	a5,12(sp)
    88fc:	02050513          	addi	a0,a0,32
    8900:	4405                	li	s0,1
    8902:	00f9aa23          	sw	a5,20(s3)
    8906:	4785                	li	a5,1
    8908:	00f9a823          	sw	a5,16(s3)
    890c:	bf55                	j	88c0 <__d2b+0x68>
    890e:	00241793          	slli	a5,s0,0x2
    8912:	bce50513          	addi	a0,a0,-1074
    8916:	97ce                	add	a5,a5,s3
    8918:	00aa2023          	sw	a0,0(s4)
    891c:	4b88                	lw	a0,16(a5)
    891e:	0416                	slli	s0,s0,0x5
    8920:	97fff0ef          	jal	ra,829e <__hi0bits>
    8924:	8c09                	sub	s0,s0,a0
    8926:	00892023          	sw	s0,0(s2)
    892a:	b77d                	j	88d8 <__d2b+0x80>

0000892c <__ratio>:
    892c:	7179                	addi	sp,sp,-48
    892e:	d04a                	sw	s2,32(sp)
    8930:	892e                	mv	s2,a1
    8932:	002c                	addi	a1,sp,8
    8934:	d606                	sw	ra,44(sp)
    8936:	d422                	sw	s0,40(sp)
    8938:	d226                	sw	s1,36(sp)
    893a:	ce4e                	sw	s3,28(sp)
    893c:	cc52                	sw	s4,24(sp)
    893e:	8a2a                	mv	s4,a0
    8940:	e65ff0ef          	jal	ra,87a4 <__b2d>
    8944:	89aa                	mv	s3,a0
    8946:	84ae                	mv	s1,a1
    8948:	842e                	mv	s0,a1
    894a:	854a                	mv	a0,s2
    894c:	006c                	addi	a1,sp,12
    894e:	e57ff0ef          	jal	ra,87a4 <__b2d>
    8952:	01092783          	lw	a5,16(s2)
    8956:	010a2703          	lw	a4,16(s4)
    895a:	46a2                	lw	a3,8(sp)
    895c:	8f1d                	sub	a4,a4,a5
    895e:	47b2                	lw	a5,12(sp)
    8960:	0716                	slli	a4,a4,0x5
    8962:	8e9d                	sub	a3,a3,a5
    8964:	00d707b3          	add	a5,a4,a3
    8968:	02f05563          	blez	a5,8992 <__ratio+0x66>
    896c:	07d2                	slli	a5,a5,0x14
    896e:	862e                	mv	a2,a1
    8970:	00978433          	add	s0,a5,s1
    8974:	8732                	mv	a4,a2
    8976:	85a2                	mv	a1,s0
    8978:	862a                	mv	a2,a0
    897a:	86ba                	mv	a3,a4
    897c:	854e                	mv	a0,s3
    897e:	a7efa0ef          	jal	ra,2bfc <__divdf3>
    8982:	50b2                	lw	ra,44(sp)
    8984:	5422                	lw	s0,40(sp)
    8986:	5492                	lw	s1,36(sp)
    8988:	5902                	lw	s2,32(sp)
    898a:	49f2                	lw	s3,28(sp)
    898c:	4a62                	lw	s4,24(sp)
    898e:	6145                	addi	sp,sp,48
    8990:	8082                	ret
    8992:	fff00737          	lui	a4,0xfff00
    8996:	02e787b3          	mul	a5,a5,a4
    899a:	00b78633          	add	a2,a5,a1
    899e:	bfd9                	j	8974 <__ratio+0x48>

000089a0 <__copybits>:
    89a0:	fff58793          	addi	a5,a1,-1 # 7ffff <_data_lma+0x761fb>
    89a4:	4a18                	lw	a4,16(a2)
    89a6:	8795                	srai	a5,a5,0x5
    89a8:	0785                	addi	a5,a5,1
    89aa:	078a                	slli	a5,a5,0x2
    89ac:	01460693          	addi	a3,a2,20
    89b0:	070a                	slli	a4,a4,0x2
    89b2:	97aa                	add	a5,a5,a0
    89b4:	9736                	add	a4,a4,a3
    89b6:	00e6e563          	bltu	a3,a4,89c0 <__copybits+0x20>
    89ba:	00f56a63          	bltu	a0,a5,89ce <__copybits+0x2e>
    89be:	8082                	ret
    89c0:	0691                	addi	a3,a3,4
    89c2:	ffc6a603          	lw	a2,-4(a3) # 3feffffc <_eusrstack+0x1fef7ffc>
    89c6:	0511                	addi	a0,a0,4
    89c8:	fec52e23          	sw	a2,-4(a0)
    89cc:	b7ed                	j	89b6 <__copybits+0x16>
    89ce:	0511                	addi	a0,a0,4
    89d0:	fe052e23          	sw	zero,-4(a0)
    89d4:	b7dd                	j	89ba <__copybits+0x1a>

000089d6 <__any_on>:
    89d6:	4914                	lw	a3,16(a0)
    89d8:	4055d793          	srai	a5,a1,0x5
    89dc:	01450713          	addi	a4,a0,20
    89e0:	02f6c763          	blt	a3,a5,8a0e <__any_on+0x38>
    89e4:	00d7df63          	bge	a5,a3,8a02 <__any_on+0x2c>
    89e8:	89fd                	andi	a1,a1,31
    89ea:	cd81                	beqz	a1,8a02 <__any_on+0x2c>
    89ec:	00279693          	slli	a3,a5,0x2
    89f0:	96ba                	add	a3,a3,a4
    89f2:	4290                	lw	a2,0(a3)
    89f4:	4505                	li	a0,1
    89f6:	00b656b3          	srl	a3,a2,a1
    89fa:	00b695b3          	sll	a1,a3,a1
    89fe:	00b61e63          	bne	a2,a1,8a1a <__any_on+0x44>
    8a02:	078a                	slli	a5,a5,0x2
    8a04:	97ba                	add	a5,a5,a4
    8a06:	00f76663          	bltu	a4,a5,8a12 <__any_on+0x3c>
    8a0a:	4501                	li	a0,0
    8a0c:	8082                	ret
    8a0e:	87b6                	mv	a5,a3
    8a10:	bfcd                	j	8a02 <__any_on+0x2c>
    8a12:	17f1                	addi	a5,a5,-4
    8a14:	4394                	lw	a3,0(a5)
    8a16:	dae5                	beqz	a3,8a06 <__any_on+0x30>
    8a18:	4505                	li	a0,1
    8a1a:	8082                	ret

00008a1c <_calloc_r>:
    8a1c:	02c58633          	mul	a2,a1,a2
    8a20:	1101                	addi	sp,sp,-32
    8a22:	cc22                	sw	s0,24(sp)
    8a24:	ce06                	sw	ra,28(sp)
    8a26:	85b2                	mv	a1,a2
    8a28:	c632                	sw	a2,12(sp)
    8a2a:	2875                	jal	8ae6 <_malloc_r>
    8a2c:	842a                	mv	s0,a0
    8a2e:	c509                	beqz	a0,8a38 <_calloc_r+0x1c>
    8a30:	4632                	lw	a2,12(sp)
    8a32:	4581                	li	a1,0
    8a34:	e37f70ef          	jal	ra,86a <memset>
    8a38:	8522                	mv	a0,s0
    8a3a:	40f2                	lw	ra,28(sp)
    8a3c:	4462                	lw	s0,24(sp)
    8a3e:	6105                	addi	sp,sp,32
    8a40:	8082                	ret

00008a42 <_free_r>:
    8a42:	c1cd                	beqz	a1,8ae4 <_free_r+0xa2>
    8a44:	ffc5a783          	lw	a5,-4(a1)
    8a48:	1141                	addi	sp,sp,-16
    8a4a:	c422                	sw	s0,8(sp)
    8a4c:	c606                	sw	ra,12(sp)
    8a4e:	c226                	sw	s1,4(sp)
    8a50:	ffc58413          	addi	s0,a1,-4
    8a54:	0007d363          	bgez	a5,8a5a <_free_r+0x18>
    8a58:	943e                	add	s0,s0,a5
    8a5a:	84aa                	mv	s1,a0
    8a5c:	2341                	jal	8fdc <__malloc_lock>
    8a5e:	80c18793          	addi	a5,gp,-2036 # 200009dc <__malloc_free_list>
    8a62:	439c                	lw	a5,0(a5)
    8a64:	eb99                	bnez	a5,8a7a <_free_r+0x38>
    8a66:	00042223          	sw	zero,4(s0)
    8a6a:	8081a623          	sw	s0,-2036(gp) # 200009dc <__malloc_free_list>
    8a6e:	4422                	lw	s0,8(sp)
    8a70:	40b2                	lw	ra,12(sp)
    8a72:	8526                	mv	a0,s1
    8a74:	4492                	lw	s1,4(sp)
    8a76:	0141                	addi	sp,sp,16
    8a78:	a39d                	j	8fde <__malloc_unlock>
    8a7a:	00f47e63          	bgeu	s0,a5,8a96 <_free_r+0x54>
    8a7e:	4014                	lw	a3,0(s0)
    8a80:	00d40733          	add	a4,s0,a3
    8a84:	00e79663          	bne	a5,a4,8a90 <_free_r+0x4e>
    8a88:	4398                	lw	a4,0(a5)
    8a8a:	43dc                	lw	a5,4(a5)
    8a8c:	9736                	add	a4,a4,a3
    8a8e:	c018                	sw	a4,0(s0)
    8a90:	c05c                	sw	a5,4(s0)
    8a92:	bfe1                	j	8a6a <_free_r+0x28>
    8a94:	87ba                	mv	a5,a4
    8a96:	43d8                	lw	a4,4(a5)
    8a98:	c319                	beqz	a4,8a9e <_free_r+0x5c>
    8a9a:	fee47de3          	bgeu	s0,a4,8a94 <_free_r+0x52>
    8a9e:	4394                	lw	a3,0(a5)
    8aa0:	00d78633          	add	a2,a5,a3
    8aa4:	00861f63          	bne	a2,s0,8ac2 <_free_r+0x80>
    8aa8:	4010                	lw	a2,0(s0)
    8aaa:	96b2                	add	a3,a3,a2
    8aac:	c394                	sw	a3,0(a5)
    8aae:	00d78633          	add	a2,a5,a3
    8ab2:	fac71ee3          	bne	a4,a2,8a6e <_free_r+0x2c>
    8ab6:	4310                	lw	a2,0(a4)
    8ab8:	4358                	lw	a4,4(a4)
    8aba:	96b2                	add	a3,a3,a2
    8abc:	c394                	sw	a3,0(a5)
    8abe:	c3d8                	sw	a4,4(a5)
    8ac0:	b77d                	j	8a6e <_free_r+0x2c>
    8ac2:	00c47563          	bgeu	s0,a2,8acc <_free_r+0x8a>
    8ac6:	47b1                	li	a5,12
    8ac8:	c09c                	sw	a5,0(s1)
    8aca:	b755                	j	8a6e <_free_r+0x2c>
    8acc:	4010                	lw	a2,0(s0)
    8ace:	00c406b3          	add	a3,s0,a2
    8ad2:	00d71663          	bne	a4,a3,8ade <_free_r+0x9c>
    8ad6:	4314                	lw	a3,0(a4)
    8ad8:	4358                	lw	a4,4(a4)
    8ada:	96b2                	add	a3,a3,a2
    8adc:	c014                	sw	a3,0(s0)
    8ade:	c058                	sw	a4,4(s0)
    8ae0:	c3c0                	sw	s0,4(a5)
    8ae2:	b771                	j	8a6e <_free_r+0x2c>
    8ae4:	8082                	ret

00008ae6 <_malloc_r>:
    8ae6:	1101                	addi	sp,sp,-32
    8ae8:	ca26                	sw	s1,20(sp)
    8aea:	00358493          	addi	s1,a1,3
    8aee:	98f1                	andi	s1,s1,-4
    8af0:	ce06                	sw	ra,28(sp)
    8af2:	cc22                	sw	s0,24(sp)
    8af4:	c84a                	sw	s2,16(sp)
    8af6:	c64e                	sw	s3,12(sp)
    8af8:	04a1                	addi	s1,s1,8
    8afa:	47b1                	li	a5,12
    8afc:	04f4f163          	bgeu	s1,a5,8b3e <_malloc_r+0x58>
    8b00:	44b1                	li	s1,12
    8b02:	04b4e063          	bltu	s1,a1,8b42 <_malloc_r+0x5c>
    8b06:	892a                	mv	s2,a0
    8b08:	29d1                	jal	8fdc <__malloc_lock>
    8b0a:	80c18793          	addi	a5,gp,-2036 # 200009dc <__malloc_free_list>
    8b0e:	4398                	lw	a4,0(a5)
    8b10:	843a                	mv	s0,a4
    8b12:	e031                	bnez	s0,8b56 <_malloc_r+0x70>
    8b14:	81018793          	addi	a5,gp,-2032 # 200009e0 <__malloc_sbrk_start>
    8b18:	439c                	lw	a5,0(a5)
    8b1a:	e791                	bnez	a5,8b26 <_malloc_r+0x40>
    8b1c:	4581                	li	a1,0
    8b1e:	854a                	mv	a0,s2
    8b20:	2ef5                	jal	8f1c <_sbrk_r>
    8b22:	80a1a823          	sw	a0,-2032(gp) # 200009e0 <__malloc_sbrk_start>
    8b26:	85a6                	mv	a1,s1
    8b28:	854a                	mv	a0,s2
    8b2a:	2ecd                	jal	8f1c <_sbrk_r>
    8b2c:	59fd                	li	s3,-1
    8b2e:	07351763          	bne	a0,s3,8b9c <_malloc_r+0xb6>
    8b32:	47b1                	li	a5,12
    8b34:	00f92023          	sw	a5,0(s2)
    8b38:	854a                	mv	a0,s2
    8b3a:	2155                	jal	8fde <__malloc_unlock>
    8b3c:	a029                	j	8b46 <_malloc_r+0x60>
    8b3e:	fc04d2e3          	bgez	s1,8b02 <_malloc_r+0x1c>
    8b42:	47b1                	li	a5,12
    8b44:	c11c                	sw	a5,0(a0)
    8b46:	4501                	li	a0,0
    8b48:	40f2                	lw	ra,28(sp)
    8b4a:	4462                	lw	s0,24(sp)
    8b4c:	44d2                	lw	s1,20(sp)
    8b4e:	4942                	lw	s2,16(sp)
    8b50:	49b2                	lw	s3,12(sp)
    8b52:	6105                	addi	sp,sp,32
    8b54:	8082                	ret
    8b56:	401c                	lw	a5,0(s0)
    8b58:	8f85                	sub	a5,a5,s1
    8b5a:	0207ce63          	bltz	a5,8b96 <_malloc_r+0xb0>
    8b5e:	46ad                	li	a3,11
    8b60:	00f6f663          	bgeu	a3,a5,8b6c <_malloc_r+0x86>
    8b64:	c01c                	sw	a5,0(s0)
    8b66:	943e                	add	s0,s0,a5
    8b68:	c004                	sw	s1,0(s0)
    8b6a:	a031                	j	8b76 <_malloc_r+0x90>
    8b6c:	405c                	lw	a5,4(s0)
    8b6e:	02871263          	bne	a4,s0,8b92 <_malloc_r+0xac>
    8b72:	80f1a623          	sw	a5,-2036(gp) # 200009dc <__malloc_free_list>
    8b76:	854a                	mv	a0,s2
    8b78:	219d                	jal	8fde <__malloc_unlock>
    8b7a:	00b40513          	addi	a0,s0,11
    8b7e:	00440793          	addi	a5,s0,4
    8b82:	9961                	andi	a0,a0,-8
    8b84:	40f50733          	sub	a4,a0,a5
    8b88:	d361                	beqz	a4,8b48 <_malloc_r+0x62>
    8b8a:	943a                	add	s0,s0,a4
    8b8c:	8f89                	sub	a5,a5,a0
    8b8e:	c01c                	sw	a5,0(s0)
    8b90:	bf65                	j	8b48 <_malloc_r+0x62>
    8b92:	c35c                	sw	a5,4(a4)
    8b94:	b7cd                	j	8b76 <_malloc_r+0x90>
    8b96:	8722                	mv	a4,s0
    8b98:	4040                	lw	s0,4(s0)
    8b9a:	bfa5                	j	8b12 <_malloc_r+0x2c>
    8b9c:	00350413          	addi	s0,a0,3
    8ba0:	9871                	andi	s0,s0,-4
    8ba2:	fc8503e3          	beq	a0,s0,8b68 <_malloc_r+0x82>
    8ba6:	40a405b3          	sub	a1,s0,a0
    8baa:	854a                	mv	a0,s2
    8bac:	2e85                	jal	8f1c <_sbrk_r>
    8bae:	fb351de3          	bne	a0,s3,8b68 <_malloc_r+0x82>
    8bb2:	b741                	j	8b32 <_malloc_r+0x4c>

00008bb4 <__ssputs_r>:
    8bb4:	1101                	addi	sp,sp,-32
    8bb6:	c84a                	sw	s2,16(sp)
    8bb8:	0085a903          	lw	s2,8(a1)
    8bbc:	cc22                	sw	s0,24(sp)
    8bbe:	c452                	sw	s4,8(sp)
    8bc0:	c05a                	sw	s6,0(sp)
    8bc2:	ce06                	sw	ra,28(sp)
    8bc4:	ca26                	sw	s1,20(sp)
    8bc6:	c64e                	sw	s3,12(sp)
    8bc8:	c256                	sw	s5,4(sp)
    8bca:	842e                	mv	s0,a1
    8bcc:	8b32                	mv	s6,a2
    8bce:	8a36                	mv	s4,a3
    8bd0:	0926ee63          	bltu	a3,s2,8c6c <__ssputs_r+0xb8>
    8bd4:	00c5d783          	lhu	a5,12(a1)
    8bd8:	4807f713          	andi	a4,a5,1152
    8bdc:	c751                	beqz	a4,8c68 <__ssputs_r+0xb4>
    8bde:	4004                	lw	s1,0(s0)
    8be0:	498c                	lw	a1,16(a1)
    8be2:	4858                	lw	a4,20(s0)
    8be4:	8aaa                	mv	s5,a0
    8be6:	40b489b3          	sub	s3,s1,a1
    8bea:	448d                	li	s1,3
    8bec:	02e484b3          	mul	s1,s1,a4
    8bf0:	4709                	li	a4,2
    8bf2:	02e4c4b3          	div	s1,s1,a4
    8bf6:	00168713          	addi	a4,a3,1
    8bfa:	974e                	add	a4,a4,s3
    8bfc:	00e4f363          	bgeu	s1,a4,8c02 <__ssputs_r+0x4e>
    8c00:	84ba                	mv	s1,a4
    8c02:	4007f793          	andi	a5,a5,1024
    8c06:	c3d1                	beqz	a5,8c8a <__ssputs_r+0xd6>
    8c08:	85a6                	mv	a1,s1
    8c0a:	8556                	mv	a0,s5
    8c0c:	edbff0ef          	jal	ra,8ae6 <_malloc_r>
    8c10:	892a                	mv	s2,a0
    8c12:	e50d                	bnez	a0,8c3c <__ssputs_r+0x88>
    8c14:	47b1                	li	a5,12
    8c16:	00faa023          	sw	a5,0(s5)
    8c1a:	00c45783          	lhu	a5,12(s0)
    8c1e:	557d                	li	a0,-1
    8c20:	0407e793          	ori	a5,a5,64
    8c24:	00f41623          	sh	a5,12(s0)
    8c28:	40f2                	lw	ra,28(sp)
    8c2a:	4462                	lw	s0,24(sp)
    8c2c:	44d2                	lw	s1,20(sp)
    8c2e:	4942                	lw	s2,16(sp)
    8c30:	49b2                	lw	s3,12(sp)
    8c32:	4a22                	lw	s4,8(sp)
    8c34:	4a92                	lw	s5,4(sp)
    8c36:	4b02                	lw	s6,0(sp)
    8c38:	6105                	addi	sp,sp,32
    8c3a:	8082                	ret
    8c3c:	480c                	lw	a1,16(s0)
    8c3e:	864e                	mv	a2,s3
    8c40:	b9aff0ef          	jal	ra,7fda <memcpy>
    8c44:	00c45783          	lhu	a5,12(s0)
    8c48:	b7f7f793          	andi	a5,a5,-1153
    8c4c:	0807e793          	ori	a5,a5,128
    8c50:	00f41623          	sh	a5,12(s0)
    8c54:	01242823          	sw	s2,16(s0)
    8c58:	c844                	sw	s1,20(s0)
    8c5a:	994e                	add	s2,s2,s3
    8c5c:	413484b3          	sub	s1,s1,s3
    8c60:	01242023          	sw	s2,0(s0)
    8c64:	c404                	sw	s1,8(s0)
    8c66:	8952                	mv	s2,s4
    8c68:	012a7363          	bgeu	s4,s2,8c6e <__ssputs_r+0xba>
    8c6c:	8952                	mv	s2,s4
    8c6e:	4008                	lw	a0,0(s0)
    8c70:	864a                	mv	a2,s2
    8c72:	85da                	mv	a1,s6
    8c74:	2e39                	jal	8f92 <memmove>
    8c76:	441c                	lw	a5,8(s0)
    8c78:	4501                	li	a0,0
    8c7a:	412787b3          	sub	a5,a5,s2
    8c7e:	c41c                	sw	a5,8(s0)
    8c80:	401c                	lw	a5,0(s0)
    8c82:	993e                	add	s2,s2,a5
    8c84:	01242023          	sw	s2,0(s0)
    8c88:	b745                	j	8c28 <__ssputs_r+0x74>
    8c8a:	8626                	mv	a2,s1
    8c8c:	8556                	mv	a0,s5
    8c8e:	2e89                	jal	8fe0 <_realloc_r>
    8c90:	892a                	mv	s2,a0
    8c92:	f169                	bnez	a0,8c54 <__ssputs_r+0xa0>
    8c94:	480c                	lw	a1,16(s0)
    8c96:	8556                	mv	a0,s5
    8c98:	dabff0ef          	jal	ra,8a42 <_free_r>
    8c9c:	bfa5                	j	8c14 <__ssputs_r+0x60>

00008c9e <_svfiprintf_r>:
    8c9e:	00c5d783          	lhu	a5,12(a1)
    8ca2:	7171                	addi	sp,sp,-176
    8ca4:	d326                	sw	s1,164(sp)
    8ca6:	d14a                	sw	s2,160(sp)
    8ca8:	cf4e                	sw	s3,156(sp)
    8caa:	d706                	sw	ra,172(sp)
    8cac:	d522                	sw	s0,168(sp)
    8cae:	cd52                	sw	s4,152(sp)
    8cb0:	cb56                	sw	s5,148(sp)
    8cb2:	c95a                	sw	s6,144(sp)
    8cb4:	c75e                	sw	s7,140(sp)
    8cb6:	c562                	sw	s8,136(sp)
    8cb8:	c366                	sw	s9,132(sp)
    8cba:	0807f793          	andi	a5,a5,128
    8cbe:	89aa                	mv	s3,a0
    8cc0:	892e                	mv	s2,a1
    8cc2:	84b2                	mv	s1,a2
    8cc4:	c3b9                	beqz	a5,8d0a <_svfiprintf_r+0x6c>
    8cc6:	499c                	lw	a5,16(a1)
    8cc8:	e3a9                	bnez	a5,8d0a <_svfiprintf_r+0x6c>
    8cca:	04000593          	li	a1,64
    8cce:	c636                	sw	a3,12(sp)
    8cd0:	e17ff0ef          	jal	ra,8ae6 <_malloc_r>
    8cd4:	00a92023          	sw	a0,0(s2)
    8cd8:	00a92823          	sw	a0,16(s2)
    8cdc:	46b2                	lw	a3,12(sp)
    8cde:	e115                	bnez	a0,8d02 <_svfiprintf_r+0x64>
    8ce0:	47b1                	li	a5,12
    8ce2:	00f9a023          	sw	a5,0(s3)
    8ce6:	557d                	li	a0,-1
    8ce8:	50ba                	lw	ra,172(sp)
    8cea:	542a                	lw	s0,168(sp)
    8cec:	549a                	lw	s1,164(sp)
    8cee:	590a                	lw	s2,160(sp)
    8cf0:	49fa                	lw	s3,156(sp)
    8cf2:	4a6a                	lw	s4,152(sp)
    8cf4:	4ada                	lw	s5,148(sp)
    8cf6:	4b4a                	lw	s6,144(sp)
    8cf8:	4bba                	lw	s7,140(sp)
    8cfa:	4c2a                	lw	s8,136(sp)
    8cfc:	4c9a                	lw	s9,132(sp)
    8cfe:	614d                	addi	sp,sp,176
    8d00:	8082                	ret
    8d02:	04000793          	li	a5,64
    8d06:	00f92a23          	sw	a5,20(s2)
    8d0a:	02000793          	li	a5,32
    8d0e:	02f10ca3          	sb	a5,57(sp)
    8d12:	03000793          	li	a5,48
    8d16:	da02                	sw	zero,52(sp)
    8d18:	02f10d23          	sb	a5,58(sp)
    8d1c:	ce36                	sw	a3,28(sp)
    8d1e:	02500b93          	li	s7,37
    8d22:	00001a97          	auipc	s5,0x1
    8d26:	fcaa8a93          	addi	s5,s5,-54 # 9cec <p05.3319+0xc>
    8d2a:	4c05                	li	s8,1
    8d2c:	4b29                	li	s6,10
    8d2e:	8426                	mv	s0,s1
    8d30:	00044783          	lbu	a5,0(s0)
    8d34:	c399                	beqz	a5,8d3a <_svfiprintf_r+0x9c>
    8d36:	09779d63          	bne	a5,s7,8dd0 <_svfiprintf_r+0x132>
    8d3a:	40940cb3          	sub	s9,s0,s1
    8d3e:	000c8e63          	beqz	s9,8d5a <_svfiprintf_r+0xbc>
    8d42:	86e6                	mv	a3,s9
    8d44:	8626                	mv	a2,s1
    8d46:	85ca                	mv	a1,s2
    8d48:	854e                	mv	a0,s3
    8d4a:	e6bff0ef          	jal	ra,8bb4 <__ssputs_r>
    8d4e:	57fd                	li	a5,-1
    8d50:	1af50263          	beq	a0,a5,8ef4 <_svfiprintf_r+0x256>
    8d54:	56d2                	lw	a3,52(sp)
    8d56:	96e6                	add	a3,a3,s9
    8d58:	da36                	sw	a3,52(sp)
    8d5a:	00044783          	lbu	a5,0(s0)
    8d5e:	18078b63          	beqz	a5,8ef4 <_svfiprintf_r+0x256>
    8d62:	57fd                	li	a5,-1
    8d64:	00140493          	addi	s1,s0,1
    8d68:	d002                	sw	zero,32(sp)
    8d6a:	d602                	sw	zero,44(sp)
    8d6c:	d23e                	sw	a5,36(sp)
    8d6e:	d402                	sw	zero,40(sp)
    8d70:	060101a3          	sb	zero,99(sp)
    8d74:	dc82                	sw	zero,120(sp)
    8d76:	0004c583          	lbu	a1,0(s1)
    8d7a:	4615                	li	a2,5
    8d7c:	8556                	mv	a0,s5
    8d7e:	a42ff0ef          	jal	ra,7fc0 <memchr>
    8d82:	00148413          	addi	s0,s1,1
    8d86:	5782                	lw	a5,32(sp)
    8d88:	e531                	bnez	a0,8dd4 <_svfiprintf_r+0x136>
    8d8a:	0107f713          	andi	a4,a5,16
    8d8e:	c709                	beqz	a4,8d98 <_svfiprintf_r+0xfa>
    8d90:	02000713          	li	a4,32
    8d94:	06e101a3          	sb	a4,99(sp)
    8d98:	0087f713          	andi	a4,a5,8
    8d9c:	c709                	beqz	a4,8da6 <_svfiprintf_r+0x108>
    8d9e:	02b00713          	li	a4,43
    8da2:	06e101a3          	sb	a4,99(sp)
    8da6:	0004c683          	lbu	a3,0(s1)
    8daa:	02a00713          	li	a4,42
    8dae:	02e68b63          	beq	a3,a4,8de4 <_svfiprintf_r+0x146>
    8db2:	57b2                	lw	a5,44(sp)
    8db4:	8426                	mv	s0,s1
    8db6:	4681                	li	a3,0
    8db8:	4625                	li	a2,9
    8dba:	00044703          	lbu	a4,0(s0)
    8dbe:	00140593          	addi	a1,s0,1
    8dc2:	fd070713          	addi	a4,a4,-48 # ffefffd0 <_eusrstack+0xdfef7fd0>
    8dc6:	06e67463          	bgeu	a2,a4,8e2e <_svfiprintf_r+0x190>
    8dca:	c68d                	beqz	a3,8df4 <_svfiprintf_r+0x156>
    8dcc:	d63e                	sw	a5,44(sp)
    8dce:	a01d                	j	8df4 <_svfiprintf_r+0x156>
    8dd0:	0405                	addi	s0,s0,1
    8dd2:	bfb9                	j	8d30 <_svfiprintf_r+0x92>
    8dd4:	41550533          	sub	a0,a0,s5
    8dd8:	00ac1533          	sll	a0,s8,a0
    8ddc:	8fc9                	or	a5,a5,a0
    8dde:	d03e                	sw	a5,32(sp)
    8de0:	84a2                	mv	s1,s0
    8de2:	bf51                	j	8d76 <_svfiprintf_r+0xd8>
    8de4:	4772                	lw	a4,28(sp)
    8de6:	00470693          	addi	a3,a4,4
    8dea:	4318                	lw	a4,0(a4)
    8dec:	ce36                	sw	a3,28(sp)
    8dee:	02074963          	bltz	a4,8e20 <_svfiprintf_r+0x182>
    8df2:	d63a                	sw	a4,44(sp)
    8df4:	00044703          	lbu	a4,0(s0)
    8df8:	02e00793          	li	a5,46
    8dfc:	04f71f63          	bne	a4,a5,8e5a <_svfiprintf_r+0x1bc>
    8e00:	00144703          	lbu	a4,1(s0)
    8e04:	02a00793          	li	a5,42
    8e08:	02f71b63          	bne	a4,a5,8e3e <_svfiprintf_r+0x1a0>
    8e0c:	47f2                	lw	a5,28(sp)
    8e0e:	0409                	addi	s0,s0,2
    8e10:	00478713          	addi	a4,a5,4 # 80000004 <_eusrstack+0x5fff8004>
    8e14:	439c                	lw	a5,0(a5)
    8e16:	ce3a                	sw	a4,28(sp)
    8e18:	0207c163          	bltz	a5,8e3a <_svfiprintf_r+0x19c>
    8e1c:	d23e                	sw	a5,36(sp)
    8e1e:	a835                	j	8e5a <_svfiprintf_r+0x1bc>
    8e20:	40e00733          	neg	a4,a4
    8e24:	0027e793          	ori	a5,a5,2
    8e28:	d63a                	sw	a4,44(sp)
    8e2a:	d03e                	sw	a5,32(sp)
    8e2c:	b7e1                	j	8df4 <_svfiprintf_r+0x156>
    8e2e:	036787b3          	mul	a5,a5,s6
    8e32:	4685                	li	a3,1
    8e34:	842e                	mv	s0,a1
    8e36:	97ba                	add	a5,a5,a4
    8e38:	b749                	j	8dba <_svfiprintf_r+0x11c>
    8e3a:	57fd                	li	a5,-1
    8e3c:	b7c5                	j	8e1c <_svfiprintf_r+0x17e>
    8e3e:	0405                	addi	s0,s0,1
    8e40:	d202                	sw	zero,36(sp)
    8e42:	4681                	li	a3,0
    8e44:	4781                	li	a5,0
    8e46:	4625                	li	a2,9
    8e48:	00044703          	lbu	a4,0(s0)
    8e4c:	00140593          	addi	a1,s0,1
    8e50:	fd070713          	addi	a4,a4,-48
    8e54:	06e67863          	bgeu	a2,a4,8ec4 <_svfiprintf_r+0x226>
    8e58:	f2f1                	bnez	a3,8e1c <_svfiprintf_r+0x17e>
    8e5a:	00044583          	lbu	a1,0(s0)
    8e5e:	460d                	li	a2,3
    8e60:	00001517          	auipc	a0,0x1
    8e64:	e9450513          	addi	a0,a0,-364 # 9cf4 <p05.3319+0x14>
    8e68:	958ff0ef          	jal	ra,7fc0 <memchr>
    8e6c:	cd11                	beqz	a0,8e88 <_svfiprintf_r+0x1ea>
    8e6e:	00001797          	auipc	a5,0x1
    8e72:	e8678793          	addi	a5,a5,-378 # 9cf4 <p05.3319+0x14>
    8e76:	8d1d                	sub	a0,a0,a5
    8e78:	04000793          	li	a5,64
    8e7c:	00a797b3          	sll	a5,a5,a0
    8e80:	5502                	lw	a0,32(sp)
    8e82:	0405                	addi	s0,s0,1
    8e84:	8d5d                	or	a0,a0,a5
    8e86:	d02a                	sw	a0,32(sp)
    8e88:	00044583          	lbu	a1,0(s0)
    8e8c:	4619                	li	a2,6
    8e8e:	00001517          	auipc	a0,0x1
    8e92:	e6a50513          	addi	a0,a0,-406 # 9cf8 <p05.3319+0x18>
    8e96:	00140493          	addi	s1,s0,1
    8e9a:	02b10c23          	sb	a1,56(sp)
    8e9e:	922ff0ef          	jal	ra,7fc0 <memchr>
    8ea2:	c135                	beqz	a0,8f06 <_svfiprintf_r+0x268>
    8ea4:	ffffc797          	auipc	a5,0xffffc
    8ea8:	08078793          	addi	a5,a5,128 # 4f24 <_printf_float>
    8eac:	e795                	bnez	a5,8ed8 <_svfiprintf_r+0x23a>
    8eae:	5702                	lw	a4,32(sp)
    8eb0:	47f2                	lw	a5,28(sp)
    8eb2:	10077713          	andi	a4,a4,256
    8eb6:	cf09                	beqz	a4,8ed0 <_svfiprintf_r+0x232>
    8eb8:	0791                	addi	a5,a5,4
    8eba:	ce3e                	sw	a5,28(sp)
    8ebc:	57d2                	lw	a5,52(sp)
    8ebe:	97d2                	add	a5,a5,s4
    8ec0:	da3e                	sw	a5,52(sp)
    8ec2:	b5b5                	j	8d2e <_svfiprintf_r+0x90>
    8ec4:	036787b3          	mul	a5,a5,s6
    8ec8:	4685                	li	a3,1
    8eca:	842e                	mv	s0,a1
    8ecc:	97ba                	add	a5,a5,a4
    8ece:	bfad                	j	8e48 <_svfiprintf_r+0x1aa>
    8ed0:	079d                	addi	a5,a5,7
    8ed2:	9be1                	andi	a5,a5,-8
    8ed4:	07a1                	addi	a5,a5,8
    8ed6:	b7d5                	j	8eba <_svfiprintf_r+0x21c>
    8ed8:	0878                	addi	a4,sp,28
    8eda:	00000697          	auipc	a3,0x0
    8ede:	cda68693          	addi	a3,a3,-806 # 8bb4 <__ssputs_r>
    8ee2:	864a                	mv	a2,s2
    8ee4:	100c                	addi	a1,sp,32
    8ee6:	854e                	mv	a0,s3
    8ee8:	83cfc0ef          	jal	ra,4f24 <_printf_float>
    8eec:	57fd                	li	a5,-1
    8eee:	8a2a                	mv	s4,a0
    8ef0:	fcf516e3          	bne	a0,a5,8ebc <_svfiprintf_r+0x21e>
    8ef4:	00c95783          	lhu	a5,12(s2)
    8ef8:	557d                	li	a0,-1
    8efa:	0407f793          	andi	a5,a5,64
    8efe:	de0795e3          	bnez	a5,8ce8 <_svfiprintf_r+0x4a>
    8f02:	5552                	lw	a0,52(sp)
    8f04:	b3d5                	j	8ce8 <_svfiprintf_r+0x4a>
    8f06:	0878                	addi	a4,sp,28
    8f08:	00000697          	auipc	a3,0x0
    8f0c:	cac68693          	addi	a3,a3,-852 # 8bb4 <__ssputs_r>
    8f10:	864a                	mv	a2,s2
    8f12:	100c                	addi	a1,sp,32
    8f14:	854e                	mv	a0,s3
    8f16:	ddafc0ef          	jal	ra,54f0 <_printf_i>
    8f1a:	bfc9                	j	8eec <_svfiprintf_r+0x24e>

00008f1c <_sbrk_r>:
    8f1c:	1141                	addi	sp,sp,-16
    8f1e:	c422                	sw	s0,8(sp)
    8f20:	842a                	mv	s0,a0
    8f22:	852e                	mv	a0,a1
    8f24:	8a01a023          	sw	zero,-1888(gp) # 20000a70 <errno>
    8f28:	c606                	sw	ra,12(sp)
    8f2a:	01b000ef          	jal	ra,9744 <_sbrk>
    8f2e:	57fd                	li	a5,-1
    8f30:	00f51763          	bne	a0,a5,8f3e <_sbrk_r+0x22>
    8f34:	8a018793          	addi	a5,gp,-1888 # 20000a70 <errno>
    8f38:	439c                	lw	a5,0(a5)
    8f3a:	c391                	beqz	a5,8f3e <_sbrk_r+0x22>
    8f3c:	c01c                	sw	a5,0(s0)
    8f3e:	40b2                	lw	ra,12(sp)
    8f40:	4422                	lw	s0,8(sp)
    8f42:	0141                	addi	sp,sp,16
    8f44:	8082                	ret

00008f46 <strncmp>:
    8f46:	c605                	beqz	a2,8f6e <strncmp+0x28>
    8f48:	167d                	addi	a2,a2,-1
    8f4a:	4701                	li	a4,0
    8f4c:	00e507b3          	add	a5,a0,a4
    8f50:	00e586b3          	add	a3,a1,a4
    8f54:	0007c783          	lbu	a5,0(a5)
    8f58:	0006c683          	lbu	a3,0(a3)
    8f5c:	00d79663          	bne	a5,a3,8f68 <strncmp+0x22>
    8f60:	00c70463          	beq	a4,a2,8f68 <strncmp+0x22>
    8f64:	0705                	addi	a4,a4,1
    8f66:	f3fd                	bnez	a5,8f4c <strncmp+0x6>
    8f68:	40d78533          	sub	a0,a5,a3
    8f6c:	8082                	ret
    8f6e:	4501                	li	a0,0
    8f70:	8082                	ret

00008f72 <__ascii_wctomb>:
    8f72:	cd91                	beqz	a1,8f8e <__ascii_wctomb+0x1c>
    8f74:	0ff00793          	li	a5,255
    8f78:	00c7f763          	bgeu	a5,a2,8f86 <__ascii_wctomb+0x14>
    8f7c:	08a00793          	li	a5,138
    8f80:	c11c                	sw	a5,0(a0)
    8f82:	557d                	li	a0,-1
    8f84:	8082                	ret
    8f86:	00c58023          	sb	a2,0(a1)
    8f8a:	4505                	li	a0,1
    8f8c:	8082                	ret
    8f8e:	4501                	li	a0,0
    8f90:	8082                	ret

00008f92 <memmove>:
    8f92:	04a5f363          	bgeu	a1,a0,8fd8 <memmove+0x46>
    8f96:	00c586b3          	add	a3,a1,a2
    8f9a:	02d57f63          	bgeu	a0,a3,8fd8 <memmove+0x46>
    8f9e:	fff64593          	not	a1,a2
    8fa2:	4781                	li	a5,0
    8fa4:	17fd                	addi	a5,a5,-1
    8fa6:	00f59363          	bne	a1,a5,8fac <memmove+0x1a>
    8faa:	8082                	ret
    8fac:	00f68733          	add	a4,a3,a5
    8fb0:	00074803          	lbu	a6,0(a4)
    8fb4:	00c78733          	add	a4,a5,a2
    8fb8:	972a                	add	a4,a4,a0
    8fba:	01070023          	sb	a6,0(a4)
    8fbe:	b7dd                	j	8fa4 <memmove+0x12>
    8fc0:	00f58733          	add	a4,a1,a5
    8fc4:	00074683          	lbu	a3,0(a4)
    8fc8:	00f50733          	add	a4,a0,a5
    8fcc:	0785                	addi	a5,a5,1
    8fce:	00d70023          	sb	a3,0(a4)
    8fd2:	fef617e3          	bne	a2,a5,8fc0 <memmove+0x2e>
    8fd6:	8082                	ret
    8fd8:	4781                	li	a5,0
    8fda:	bfe5                	j	8fd2 <memmove+0x40>

00008fdc <__malloc_lock>:
    8fdc:	8082                	ret

00008fde <__malloc_unlock>:
    8fde:	8082                	ret

00008fe0 <_realloc_r>:
    8fe0:	e581                	bnez	a1,8fe8 <_realloc_r+0x8>
    8fe2:	85b2                	mv	a1,a2
    8fe4:	b03ff06f          	j	8ae6 <_malloc_r>
    8fe8:	1101                	addi	sp,sp,-32
    8fea:	cc22                	sw	s0,24(sp)
    8fec:	ce06                	sw	ra,28(sp)
    8fee:	ca26                	sw	s1,20(sp)
    8ff0:	c84a                	sw	s2,16(sp)
    8ff2:	c64e                	sw	s3,12(sp)
    8ff4:	8432                	mv	s0,a2
    8ff6:	ee01                	bnez	a2,900e <_realloc_r+0x2e>
    8ff8:	a4bff0ef          	jal	ra,8a42 <_free_r>
    8ffc:	4901                	li	s2,0
    8ffe:	40f2                	lw	ra,28(sp)
    9000:	4462                	lw	s0,24(sp)
    9002:	854a                	mv	a0,s2
    9004:	44d2                	lw	s1,20(sp)
    9006:	4942                	lw	s2,16(sp)
    9008:	49b2                	lw	s3,12(sp)
    900a:	6105                	addi	sp,sp,32
    900c:	8082                	ret
    900e:	84ae                	mv	s1,a1
    9010:	89aa                	mv	s3,a0
    9012:	201d                	jal	9038 <_malloc_usable_size_r>
    9014:	8926                	mv	s2,s1
    9016:	fe8574e3          	bgeu	a0,s0,8ffe <_realloc_r+0x1e>
    901a:	85a2                	mv	a1,s0
    901c:	854e                	mv	a0,s3
    901e:	ac9ff0ef          	jal	ra,8ae6 <_malloc_r>
    9022:	892a                	mv	s2,a0
    9024:	dd69                	beqz	a0,8ffe <_realloc_r+0x1e>
    9026:	85a6                	mv	a1,s1
    9028:	8622                	mv	a2,s0
    902a:	fb1fe0ef          	jal	ra,7fda <memcpy>
    902e:	85a6                	mv	a1,s1
    9030:	854e                	mv	a0,s3
    9032:	a11ff0ef          	jal	ra,8a42 <_free_r>
    9036:	b7e1                	j	8ffe <_realloc_r+0x1e>

00009038 <_malloc_usable_size_r>:
    9038:	ffc5a783          	lw	a5,-4(a1)
    903c:	ffc78513          	addi	a0,a5,-4
    9040:	0007d563          	bgez	a5,904a <_malloc_usable_size_r+0x12>
    9044:	95aa                	add	a1,a1,a0
    9046:	419c                	lw	a5,0(a1)
    9048:	953e                	add	a0,a0,a5
    904a:	8082                	ret

0000904c <__eqdf2>:
    904c:	0145d713          	srli	a4,a1,0x14
    9050:	001007b7          	lui	a5,0x100
    9054:	17fd                	addi	a5,a5,-1
    9056:	0146d813          	srli	a6,a3,0x14
    905a:	7ff77713          	andi	a4,a4,2047
    905e:	7ff00893          	li	a7,2047
    9062:	00b7fe33          	and	t3,a5,a1
    9066:	8eaa                	mv	t4,a0
    9068:	8ff5                	and	a5,a5,a3
    906a:	81fd                	srli	a1,a1,0x1f
    906c:	8f32                	mv	t5,a2
    906e:	7ff87813          	andi	a6,a6,2047
    9072:	82fd                	srli	a3,a3,0x1f
    9074:	01170b63          	beq	a4,a7,908a <__eqdf2+0x3e>
    9078:	4305                	li	t1,1
    907a:	01180663          	beq	a6,a7,9086 <__eqdf2+0x3a>
    907e:	01071463          	bne	a4,a6,9086 <__eqdf2+0x3a>
    9082:	00fe0d63          	beq	t3,a5,909c <__eqdf2+0x50>
    9086:	851a                	mv	a0,t1
    9088:	8082                	ret
    908a:	00ae68b3          	or	a7,t3,a0
    908e:	4305                	li	t1,1
    9090:	fe089be3          	bnez	a7,9086 <__eqdf2+0x3a>
    9094:	fee819e3          	bne	a6,a4,9086 <__eqdf2+0x3a>
    9098:	8fd1                	or	a5,a5,a2
    909a:	f7f5                	bnez	a5,9086 <__eqdf2+0x3a>
    909c:	4305                	li	t1,1
    909e:	ffee94e3          	bne	t4,t5,9086 <__eqdf2+0x3a>
    90a2:	4301                	li	t1,0
    90a4:	fed581e3          	beq	a1,a3,9086 <__eqdf2+0x3a>
    90a8:	4305                	li	t1,1
    90aa:	ff71                	bnez	a4,9086 <__eqdf2+0x3a>
    90ac:	00ae6533          	or	a0,t3,a0
    90b0:	00a03333          	snez	t1,a0
    90b4:	bfc9                	j	9086 <__eqdf2+0x3a>

000090b6 <__gedf2>:
    90b6:	0145d713          	srli	a4,a1,0x14
    90ba:	001007b7          	lui	a5,0x100
    90be:	17fd                	addi	a5,a5,-1
    90c0:	0146d813          	srli	a6,a3,0x14
    90c4:	7ff77713          	andi	a4,a4,2047
    90c8:	7ff00893          	li	a7,2047
    90cc:	00b7f333          	and	t1,a5,a1
    90d0:	8e2a                	mv	t3,a0
    90d2:	8ff5                	and	a5,a5,a3
    90d4:	81fd                	srli	a1,a1,0x1f
    90d6:	8eb2                	mv	t4,a2
    90d8:	7ff87813          	andi	a6,a6,2047
    90dc:	82fd                	srli	a3,a3,0x1f
    90de:	03170863          	beq	a4,a7,910e <__gedf2+0x58>
    90e2:	03180063          	beq	a6,a7,9102 <__gedf2+0x4c>
    90e6:	eb0d                	bnez	a4,9118 <__gedf2+0x62>
    90e8:	00a368b3          	or	a7,t1,a0
    90ec:	00081463          	bnez	a6,90f4 <__gedf2+0x3e>
    90f0:	8e5d                	or	a2,a2,a5
    90f2:	ca29                	beqz	a2,9144 <__gedf2+0x8e>
    90f4:	04088563          	beqz	a7,913e <__gedf2+0x88>
    90f8:	02d58863          	beq	a1,a3,9128 <__gedf2+0x72>
    90fc:	4505                	li	a0,1
    90fe:	ed95                	bnez	a1,913a <__gedf2+0x84>
    9100:	8082                	ret
    9102:	00c7e8b3          	or	a7,a5,a2
    9106:	fe0880e3          	beqz	a7,90e6 <__gedf2+0x30>
    910a:	5579                	li	a0,-2
    910c:	8082                	ret
    910e:	00a36533          	or	a0,t1,a0
    9112:	fd65                	bnez	a0,910a <__gedf2+0x54>
    9114:	02e80c63          	beq	a6,a4,914c <__gedf2+0x96>
    9118:	00081463          	bnez	a6,9120 <__gedf2+0x6a>
    911c:	8e5d                	or	a2,a2,a5
    911e:	de79                	beqz	a2,90fc <__gedf2+0x46>
    9120:	fcd59ee3          	bne	a1,a3,90fc <__gedf2+0x46>
    9124:	fce84ce3          	blt	a6,a4,90fc <__gedf2+0x46>
    9128:	01074863          	blt	a4,a6,9138 <__gedf2+0x82>
    912c:	fc67e8e3          	bltu	a5,t1,90fc <__gedf2+0x46>
    9130:	02f30363          	beq	t1,a5,9156 <__gedf2+0xa0>
    9134:	00f37f63          	bgeu	t1,a5,9152 <__gedf2+0x9c>
    9138:	e581                	bnez	a1,9140 <__gedf2+0x8a>
    913a:	557d                	li	a0,-1
    913c:	8082                	ret
    913e:	def5                	beqz	a3,913a <__gedf2+0x84>
    9140:	4505                	li	a0,1
    9142:	8082                	ret
    9144:	4501                	li	a0,0
    9146:	fa089be3          	bnez	a7,90fc <__gedf2+0x46>
    914a:	8082                	ret
    914c:	8e5d                	or	a2,a2,a5
    914e:	da69                	beqz	a2,9120 <__gedf2+0x6a>
    9150:	bf6d                	j	910a <__gedf2+0x54>
    9152:	4501                	li	a0,0
    9154:	8082                	ret
    9156:	fbcee3e3          	bltu	t4,t3,90fc <__gedf2+0x46>
    915a:	4501                	li	a0,0
    915c:	fbde72e3          	bgeu	t3,t4,9100 <__gedf2+0x4a>
    9160:	f1e5                	bnez	a1,9140 <__gedf2+0x8a>
    9162:	bfe1                	j	913a <__gedf2+0x84>

00009164 <__ledf2>:
    9164:	0145d713          	srli	a4,a1,0x14
    9168:	001007b7          	lui	a5,0x100
    916c:	17fd                	addi	a5,a5,-1
    916e:	0146d813          	srli	a6,a3,0x14
    9172:	7ff77713          	andi	a4,a4,2047
    9176:	7ff00893          	li	a7,2047
    917a:	00b7fe33          	and	t3,a5,a1
    917e:	8eaa                	mv	t4,a0
    9180:	8ff5                	and	a5,a5,a3
    9182:	81fd                	srli	a1,a1,0x1f
    9184:	8f32                	mv	t5,a2
    9186:	7ff87813          	andi	a6,a6,2047
    918a:	82fd                	srli	a3,a3,0x1f
    918c:	03170e63          	beq	a4,a7,91c8 <__ledf2+0x64>
    9190:	01180d63          	beq	a6,a7,91aa <__ledf2+0x46>
    9194:	e329                	bnez	a4,91d6 <__ledf2+0x72>
    9196:	00ae68b3          	or	a7,t3,a0
    919a:	00081f63          	bnez	a6,91b8 <__ledf2+0x54>
    919e:	8e5d                	or	a2,a2,a5
    91a0:	ee01                	bnez	a2,91b8 <__ledf2+0x54>
    91a2:	4301                	li	t1,0
    91a4:	04088c63          	beqz	a7,91fc <__ledf2+0x98>
    91a8:	a821                	j	91c0 <__ledf2+0x5c>
    91aa:	00c7e8b3          	or	a7,a5,a2
    91ae:	4309                	li	t1,2
    91b0:	04089663          	bnez	a7,91fc <__ledf2+0x98>
    91b4:	d36d                	beqz	a4,9196 <__ledf2+0x32>
    91b6:	a005                	j	91d6 <__ledf2+0x72>
    91b8:	04088463          	beqz	a7,9200 <__ledf2+0x9c>
    91bc:	02d58563          	beq	a1,a3,91e6 <__ledf2+0x82>
    91c0:	4305                	li	t1,1
    91c2:	cd8d                	beqz	a1,91fc <__ledf2+0x98>
    91c4:	537d                	li	t1,-1
    91c6:	a81d                	j	91fc <__ledf2+0x98>
    91c8:	00ae68b3          	or	a7,t3,a0
    91cc:	4309                	li	t1,2
    91ce:	02089763          	bnez	a7,91fc <__ledf2+0x98>
    91d2:	02e80a63          	beq	a6,a4,9206 <__ledf2+0xa2>
    91d6:	00081463          	bnez	a6,91de <__ledf2+0x7a>
    91da:	8e5d                	or	a2,a2,a5
    91dc:	d275                	beqz	a2,91c0 <__ledf2+0x5c>
    91de:	fed591e3          	bne	a1,a3,91c0 <__ledf2+0x5c>
    91e2:	fce84fe3          	blt	a6,a4,91c0 <__ledf2+0x5c>
    91e6:	01074963          	blt	a4,a6,91f8 <__ledf2+0x94>
    91ea:	fdc7ebe3          	bltu	a5,t3,91c0 <__ledf2+0x5c>
    91ee:	00fe0f63          	beq	t3,a5,920c <__ledf2+0xa8>
    91f2:	4301                	li	t1,0
    91f4:	00fe7463          	bgeu	t3,a5,91fc <__ledf2+0x98>
    91f8:	d5f1                	beqz	a1,91c4 <__ledf2+0x60>
    91fa:	4305                	li	t1,1
    91fc:	851a                	mv	a0,t1
    91fe:	8082                	ret
    9200:	feed                	bnez	a3,91fa <__ledf2+0x96>
    9202:	537d                	li	t1,-1
    9204:	bfe5                	j	91fc <__ledf2+0x98>
    9206:	8e5d                	or	a2,a2,a5
    9208:	da79                	beqz	a2,91de <__ledf2+0x7a>
    920a:	bfcd                	j	91fc <__ledf2+0x98>
    920c:	fbdf6ae3          	bltu	t5,t4,91c0 <__ledf2+0x5c>
    9210:	4301                	li	t1,0
    9212:	ffeef5e3          	bgeu	t4,t5,91fc <__ledf2+0x98>
    9216:	f1f5                	bnez	a1,91fa <__ledf2+0x96>
    9218:	b775                	j	91c4 <__ledf2+0x60>

0000921a <__unorddf2>:
    921a:	0145d713          	srli	a4,a1,0x14
    921e:	001007b7          	lui	a5,0x100
    9222:	17fd                	addi	a5,a5,-1
    9224:	fff74713          	not	a4,a4
    9228:	0146d813          	srli	a6,a3,0x14
    922c:	8dfd                	and	a1,a1,a5
    922e:	8ff5                	and	a5,a5,a3
    9230:	01571693          	slli	a3,a4,0x15
    9234:	7ff87813          	andi	a6,a6,2047
    9238:	ca99                	beqz	a3,924e <__unorddf2+0x34>
    923a:	7ff00713          	li	a4,2047
    923e:	4501                	li	a0,0
    9240:	00e80363          	beq	a6,a4,9246 <__unorddf2+0x2c>
    9244:	8082                	ret
    9246:	8fd1                	or	a5,a5,a2
    9248:	00f03533          	snez	a0,a5
    924c:	8082                	ret
    924e:	8dc9                	or	a1,a1,a0
    9250:	4505                	li	a0,1
    9252:	d5e5                	beqz	a1,923a <__unorddf2+0x20>
    9254:	8082                	ret

00009256 <__fixdfsi>:
    9256:	0145d793          	srli	a5,a1,0x14
    925a:	001006b7          	lui	a3,0x100
    925e:	fff68713          	addi	a4,a3,-1 # fffff <_data_lma+0xf61fb>
    9262:	7ff7f793          	andi	a5,a5,2047
    9266:	3fe00613          	li	a2,1022
    926a:	8f6d                	and	a4,a4,a1
    926c:	81fd                	srli	a1,a1,0x1f
    926e:	00f65c63          	bge	a2,a5,9286 <__fixdfsi+0x30>
    9272:	41d00613          	li	a2,1053
    9276:	00f65a63          	bge	a2,a5,928a <__fixdfsi+0x34>
    927a:	80000537          	lui	a0,0x80000
    927e:	fff54513          	not	a0,a0
    9282:	952e                	add	a0,a0,a1
    9284:	8082                	ret
    9286:	4501                	li	a0,0
    9288:	8082                	ret
    928a:	43300613          	li	a2,1075
    928e:	8e1d                	sub	a2,a2,a5
    9290:	487d                	li	a6,31
    9292:	8f55                	or	a4,a4,a3
    9294:	00c85d63          	bge	a6,a2,92ae <__fixdfsi+0x58>
    9298:	41300693          	li	a3,1043
    929c:	40f687b3          	sub	a5,a3,a5
    92a0:	00f757b3          	srl	a5,a4,a5
    92a4:	40f00533          	neg	a0,a5
    92a8:	f1e5                	bnez	a1,9288 <__fixdfsi+0x32>
    92aa:	853e                	mv	a0,a5
    92ac:	8082                	ret
    92ae:	bed78793          	addi	a5,a5,-1043 # ffbed <_data_lma+0xf5de9>
    92b2:	00f717b3          	sll	a5,a4,a5
    92b6:	00c55533          	srl	a0,a0,a2
    92ba:	8fc9                	or	a5,a5,a0
    92bc:	b7e5                	j	92a4 <__fixdfsi+0x4e>

000092be <__fixunsdfsi>:
    92be:	0145d793          	srli	a5,a1,0x14
    92c2:	001006b7          	lui	a3,0x100
    92c6:	fff68713          	addi	a4,a3,-1 # fffff <_data_lma+0xf61fb>
    92ca:	7ff7f793          	andi	a5,a5,2047
    92ce:	3fe00613          	li	a2,1022
    92d2:	882a                	mv	a6,a0
    92d4:	8f6d                	and	a4,a4,a1
    92d6:	4501                	li	a0,0
    92d8:	81fd                	srli	a1,a1,0x1f
    92da:	00f65463          	bge	a2,a5,92e2 <__fixunsdfsi+0x24>
    92de:	c199                	beqz	a1,92e4 <__fixunsdfsi+0x26>
    92e0:	8082                	ret
    92e2:	8082                	ret
    92e4:	41e00613          	li	a2,1054
    92e8:	557d                	li	a0,-1
    92ea:	fef64be3          	blt	a2,a5,92e0 <__fixunsdfsi+0x22>
    92ee:	43300513          	li	a0,1075
    92f2:	8d1d                	sub	a0,a0,a5
    92f4:	467d                	li	a2,31
    92f6:	8f55                	or	a4,a4,a3
    92f8:	00a64a63          	blt	a2,a0,930c <__fixunsdfsi+0x4e>
    92fc:	bed78793          	addi	a5,a5,-1043
    9300:	00f71733          	sll	a4,a4,a5
    9304:	00a85533          	srl	a0,a6,a0
    9308:	8d59                	or	a0,a0,a4
    930a:	8082                	ret
    930c:	41300513          	li	a0,1043
    9310:	40f507b3          	sub	a5,a0,a5
    9314:	00f75533          	srl	a0,a4,a5
    9318:	8082                	ret

0000931a <__floatunsidf>:
    931a:	cd1d                	beqz	a0,9358 <__floatunsidf+0x3e>
    931c:	1141                	addi	sp,sp,-16
    931e:	c422                	sw	s0,8(sp)
    9320:	c606                	sw	ra,12(sp)
    9322:	842a                	mv	s0,a0
    9324:	a11fb0ef          	jal	ra,4d34 <__clzsi2>
    9328:	41e00693          	li	a3,1054
    932c:	8e89                	sub	a3,a3,a0
    932e:	47a9                	li	a5,10
    9330:	7ff6f693          	andi	a3,a3,2047
    9334:	02a7dc63          	bge	a5,a0,936c <__floatunsidf+0x52>
    9338:	1555                	addi	a0,a0,-11
    933a:	00a417b3          	sll	a5,s0,a0
    933e:	07b2                	slli	a5,a5,0xc
    9340:	83b1                	srli	a5,a5,0xc
    9342:	4701                	li	a4,0
    9344:	40b2                	lw	ra,12(sp)
    9346:	4422                	lw	s0,8(sp)
    9348:	07b2                	slli	a5,a5,0xc
    934a:	06d2                	slli	a3,a3,0x14
    934c:	83b1                	srli	a5,a5,0xc
    934e:	8fd5                	or	a5,a5,a3
    9350:	853a                	mv	a0,a4
    9352:	85be                	mv	a1,a5
    9354:	0141                	addi	sp,sp,16
    9356:	8082                	ret
    9358:	4781                	li	a5,0
    935a:	4681                	li	a3,0
    935c:	07b2                	slli	a5,a5,0xc
    935e:	06d2                	slli	a3,a3,0x14
    9360:	83b1                	srli	a5,a5,0xc
    9362:	4701                	li	a4,0
    9364:	8fd5                	or	a5,a5,a3
    9366:	853a                	mv	a0,a4
    9368:	85be                	mv	a1,a5
    936a:	8082                	ret
    936c:	472d                	li	a4,11
    936e:	8f09                	sub	a4,a4,a0
    9370:	00e457b3          	srl	a5,s0,a4
    9374:	07b2                	slli	a5,a5,0xc
    9376:	01550713          	addi	a4,a0,21 # 80000015 <_eusrstack+0x5fff8015>
    937a:	00e41733          	sll	a4,s0,a4
    937e:	83b1                	srli	a5,a5,0xc
    9380:	b7d1                	j	9344 <__floatunsidf+0x2a>

00009382 <__extenddftf2>:
    9382:	01465793          	srli	a5,a2,0x14
    9386:	00c61713          	slli	a4,a2,0xc
    938a:	7ff7f793          	andi	a5,a5,2047
    938e:	7179                	addi	sp,sp,-48
    9390:	8331                	srli	a4,a4,0xc
    9392:	00178693          	addi	a3,a5,1
    9396:	d422                	sw	s0,40(sp)
    9398:	d226                	sw	s1,36(sp)
    939a:	d606                	sw	ra,44(sp)
    939c:	d04a                	sw	s2,32(sp)
    939e:	c82e                	sw	a1,16(sp)
    93a0:	ca3a                	sw	a4,20(sp)
    93a2:	ce02                	sw	zero,28(sp)
    93a4:	cc02                	sw	zero,24(sp)
    93a6:	7fe6f693          	andi	a3,a3,2046
    93aa:	842a                	mv	s0,a0
    93ac:	01f65493          	srli	s1,a2,0x1f
    93b0:	cea1                	beqz	a3,9408 <__extenddftf2+0x86>
    93b2:	6691                	lui	a3,0x4
    93b4:	c0068693          	addi	a3,a3,-1024 # 3c00 <__subdf3+0x598>
    93b8:	97b6                	add	a5,a5,a3
    93ba:	0045d613          	srli	a2,a1,0x4
    93be:	01c71693          	slli	a3,a4,0x1c
    93c2:	07c6                	slli	a5,a5,0x11
    93c4:	8ed1                	or	a3,a3,a2
    93c6:	01c59513          	slli	a0,a1,0x1c
    93ca:	8311                	srli	a4,a4,0x4
    93cc:	83c5                	srli	a5,a5,0x11
    93ce:	4801                	li	a6,0
    93d0:	00e11623          	sh	a4,12(sp)
    93d4:	4732                	lw	a4,12(sp)
    93d6:	07c6                	slli	a5,a5,0x11
    93d8:	800105b7          	lui	a1,0x80010
    93dc:	83c5                	srli	a5,a5,0x11
    93de:	15fd                	addi	a1,a1,-1
    93e0:	07c2                	slli	a5,a5,0x10
    93e2:	8f6d                	and	a4,a4,a1
    93e4:	8fd9                	or	a5,a5,a4
    93e6:	0786                	slli	a5,a5,0x1
    93e8:	01f49613          	slli	a2,s1,0x1f
    93ec:	8385                	srli	a5,a5,0x1
    93ee:	8fd1                	or	a5,a5,a2
    93f0:	c048                	sw	a0,4(s0)
    93f2:	01042023          	sw	a6,0(s0)
    93f6:	c414                	sw	a3,8(s0)
    93f8:	c45c                	sw	a5,12(s0)
    93fa:	8522                	mv	a0,s0
    93fc:	50b2                	lw	ra,44(sp)
    93fe:	5422                	lw	s0,40(sp)
    9400:	5492                	lw	s1,36(sp)
    9402:	5902                	lw	s2,32(sp)
    9404:	6145                	addi	sp,sp,48
    9406:	8082                	ret
    9408:	00b76533          	or	a0,a4,a1
    940c:	eba5                	bnez	a5,947c <__extenddftf2+0xfa>
    940e:	cd59                	beqz	a0,94ac <__extenddftf2+0x12a>
    9410:	c35d                	beqz	a4,94b6 <__extenddftf2+0x134>
    9412:	853a                	mv	a0,a4
    9414:	921fb0ef          	jal	ra,4d34 <__clzsi2>
    9418:	03150713          	addi	a4,a0,49
    941c:	01f77813          	andi	a6,a4,31
    9420:	8715                	srai	a4,a4,0x5
    9422:	0a081e63          	bnez	a6,94de <__extenddftf2+0x15c>
    9426:	0810                	addi	a2,sp,16
    9428:	00271693          	slli	a3,a4,0x2
    942c:	40d606b3          	sub	a3,a2,a3
    9430:	888a                	mv	a7,sp
    9432:	00271813          	slli	a6,a4,0x2
    9436:	46cc                	lw	a1,12(a3)
    9438:	010687b3          	add	a5,a3,a6
    943c:	16f1                	addi	a3,a3,-4
    943e:	c7cc                	sw	a1,12(a5)
    9440:	fed89be3          	bne	a7,a3,9436 <__extenddftf2+0xb4>
    9444:	177d                	addi	a4,a4,-1
    9446:	070a                	slli	a4,a4,0x2
    9448:	9732                	add	a4,a4,a2
    944a:	00072023          	sw	zero,0(a4)
    944e:	ffc70693          	addi	a3,a4,-4
    9452:	00e60963          	beq	a2,a4,9464 <__extenddftf2+0xe2>
    9456:	8736                	mv	a4,a3
    9458:	00072023          	sw	zero,0(a4)
    945c:	ffc70693          	addi	a3,a4,-4
    9460:	fee61be3          	bne	a2,a4,9456 <__extenddftf2+0xd4>
    9464:	6791                	lui	a5,0x4
    9466:	c0c78793          	addi	a5,a5,-1012 # 3c0c <__subdf3+0x5a4>
    946a:	8f89                	sub	a5,a5,a0
    946c:	07c6                	slli	a5,a5,0x11
    946e:	4842                	lw	a6,16(sp)
    9470:	4552                	lw	a0,20(sp)
    9472:	46e2                	lw	a3,24(sp)
    9474:	01c15703          	lhu	a4,28(sp)
    9478:	83c5                	srli	a5,a5,0x11
    947a:	bf99                	j	93d0 <__extenddftf2+0x4e>
    947c:	c115                	beqz	a0,94a0 <__extenddftf2+0x11e>
    947e:	67a1                	lui	a5,0x8
    9480:	00475513          	srli	a0,a4,0x4
    9484:	01c71693          	slli	a3,a4,0x1c
    9488:	00f56733          	or	a4,a0,a5
    948c:	0045d613          	srli	a2,a1,0x4
    9490:	0742                	slli	a4,a4,0x10
    9492:	8ed1                	or	a3,a3,a2
    9494:	01c59513          	slli	a0,a1,0x1c
    9498:	8341                	srli	a4,a4,0x10
    949a:	17fd                	addi	a5,a5,-1
    949c:	4801                	li	a6,0
    949e:	bf0d                	j	93d0 <__extenddftf2+0x4e>
    94a0:	67a1                	lui	a5,0x8
    94a2:	4681                	li	a3,0
    94a4:	17fd                	addi	a5,a5,-1
    94a6:	4701                	li	a4,0
    94a8:	4801                	li	a6,0
    94aa:	b71d                	j	93d0 <__extenddftf2+0x4e>
    94ac:	4681                	li	a3,0
    94ae:	4781                	li	a5,0
    94b0:	4701                	li	a4,0
    94b2:	4801                	li	a6,0
    94b4:	bf31                	j	93d0 <__extenddftf2+0x4e>
    94b6:	852e                	mv	a0,a1
    94b8:	892e                	mv	s2,a1
    94ba:	87bfb0ef          	jal	ra,4d34 <__clzsi2>
    94be:	05150713          	addi	a4,a0,81
    94c2:	01f77813          	andi	a6,a4,31
    94c6:	02050513          	addi	a0,a0,32
    94ca:	8715                	srai	a4,a4,0x5
    94cc:	f4080de3          	beqz	a6,9426 <__extenddftf2+0xa4>
    94d0:	4789                	li	a5,2
    94d2:	00f70663          	beq	a4,a5,94de <__extenddftf2+0x15c>
    94d6:	4709                	li	a4,2
    94d8:	0810                	addi	a2,sp,16
    94da:	48b1                	li	a7,12
    94dc:	a835                	j	9518 <__extenddftf2+0x196>
    94de:	40e006b3          	neg	a3,a4
    94e2:	068a                	slli	a3,a3,0x2
    94e4:	0810                	addi	a2,sp,16
    94e6:	06b1                	addi	a3,a3,12
    94e8:	02000e13          	li	t3,32
    94ec:	96b2                	add	a3,a3,a2
    94ee:	00271893          	slli	a7,a4,0x2
    94f2:	410e0e33          	sub	t3,t3,a6
    94f6:	ffc6a583          	lw	a1,-4(a3)
    94fa:	429c                	lw	a5,0(a3)
    94fc:	01168333          	add	t1,a3,a7
    9500:	01c5d5b3          	srl	a1,a1,t3
    9504:	010797b3          	sll	a5,a5,a6
    9508:	8ddd                	or	a1,a1,a5
    950a:	00b32023          	sw	a1,0(t1)
    950e:	16f1                	addi	a3,a3,-4
    9510:	fed613e3          	bne	a2,a3,94f6 <__extenddftf2+0x174>
    9514:	4942                	lw	s2,16(sp)
    9516:	177d                	addi	a4,a4,-1
    9518:	101c                	addi	a5,sp,32
    951a:	98be                	add	a7,a7,a5
    951c:	01091933          	sll	s2,s2,a6
    9520:	ff28a823          	sw	s2,-16(a7) # fff0 <_data_lma+0x61ec>
    9524:	b70d                	j	9446 <__extenddftf2+0xc4>

00009526 <__trunctfdf2>:
    9526:	00c52803          	lw	a6,12(a0)
    952a:	4118                	lw	a4,0(a0)
    952c:	4154                	lw	a3,4(a0)
    952e:	450c                	lw	a1,8(a0)
    9530:	6521                	lui	a0,0x8
    9532:	fff50793          	addi	a5,a0,-1 # 7fff <memcpy+0x25>
    9536:	01085613          	srli	a2,a6,0x10
    953a:	00359e13          	slli	t3,a1,0x3
    953e:	8e7d                	and	a2,a2,a5
    9540:	01d75893          	srli	a7,a4,0x1d
    9544:	01d6d793          	srli	a5,a3,0x1d
    9548:	01081313          	slli	t1,a6,0x10
    954c:	068e                	slli	a3,a3,0x3
    954e:	1141                	addi	sp,sp,-16
    9550:	01c7e7b3          	or	a5,a5,t3
    9554:	0116e6b3          	or	a3,a3,a7
    9558:	01035313          	srli	t1,t1,0x10
    955c:	00371e13          	slli	t3,a4,0x3
    9560:	00160893          	addi	a7,a2,1
    9564:	1579                	addi	a0,a0,-2
    9566:	81f5                	srli	a1,a1,0x1d
    9568:	030e                	slli	t1,t1,0x3
    956a:	c43e                	sw	a5,8(sp)
    956c:	c236                	sw	a3,4(sp)
    956e:	c072                	sw	t3,0(sp)
    9570:	00a8f533          	and	a0,a7,a0
    9574:	01f85813          	srli	a6,a6,0x1f
    9578:	0065e5b3          	or	a1,a1,t1
    957c:	c905                	beqz	a0,95ac <__trunctfdf2+0x86>
    957e:	7771                	lui	a4,0xffffc
    9580:	40070713          	addi	a4,a4,1024 # ffffc400 <_eusrstack+0xdfff4400>
    9584:	963a                	add	a2,a2,a4
    9586:	7fe00713          	li	a4,2046
    958a:	04c75d63          	bge	a4,a2,95e4 <__trunctfdf2+0xbe>
    958e:	7ff00613          	li	a2,2047
    9592:	4701                	li	a4,0
    9594:	4781                	li	a5,0
    9596:	0732                	slli	a4,a4,0xc
    9598:	0652                	slli	a2,a2,0x14
    959a:	8331                	srli	a4,a4,0xc
    959c:	087e                	slli	a6,a6,0x1f
    959e:	8f51                	or	a4,a4,a2
    95a0:	01076733          	or	a4,a4,a6
    95a4:	853e                	mv	a0,a5
    95a6:	85ba                	mv	a1,a4
    95a8:	0141                	addi	sp,sp,16
    95aa:	8082                	ret
    95ac:	8fd5                	or	a5,a5,a3
    95ae:	8fcd                	or	a5,a5,a1
    95b0:	01c7e7b3          	or	a5,a5,t3
    95b4:	e205                	bnez	a2,95d4 <__trunctfdf2+0xae>
    95b6:	cbf1                	beqz	a5,968a <__trunctfdf2+0x164>
    95b8:	4781                	li	a5,0
    95ba:	4695                	li	a3,5
    95bc:	0036d593          	srli	a1,a3,0x3
    95c0:	00979713          	slli	a4,a5,0x9
    95c4:	01d79693          	slli	a3,a5,0x1d
    95c8:	00b6e7b3          	or	a5,a3,a1
    95cc:	8331                	srli	a4,a4,0xc
    95ce:	7ff67613          	andi	a2,a2,2047
    95d2:	b7d1                	j	9596 <__trunctfdf2+0x70>
    95d4:	dfcd                	beqz	a5,958e <__trunctfdf2+0x68>
    95d6:	4801                	li	a6,0
    95d8:	7ff00613          	li	a2,2047
    95dc:	00080737          	lui	a4,0x80
    95e0:	4781                	li	a5,0
    95e2:	bf55                	j	9596 <__trunctfdf2+0x70>
    95e4:	0ac04663          	bgtz	a2,9690 <__trunctfdf2+0x16a>
    95e8:	fcc00793          	li	a5,-52
    95ec:	0ef64f63          	blt	a2,a5,96ea <__trunctfdf2+0x1c4>
    95f0:	03d00793          	li	a5,61
    95f4:	40c78633          	sub	a2,a5,a2
    95f8:	40565793          	srai	a5,a2,0x5
    95fc:	00080737          	lui	a4,0x80
    9600:	8dd9                	or	a1,a1,a4
    9602:	00279513          	slli	a0,a5,0x2
    9606:	870a                	mv	a4,sp
    9608:	4681                	li	a3,0
    960a:	c62e                	sw	a1,12(sp)
    960c:	00a108b3          	add	a7,sp,a0
    9610:	0711                	addi	a4,a4,4
    9612:	8a7d                	andi	a2,a2,31
    9614:	01c6e6b3          	or	a3,a3,t3
    9618:	01170963          	beq	a4,a7,962a <__trunctfdf2+0x104>
    961c:	00072e03          	lw	t3,0(a4) # 80000 <_data_lma+0x761fc>
    9620:	0711                	addi	a4,a4,4
    9622:	01c6e6b3          	or	a3,a3,t3
    9626:	ff171be3          	bne	a4,a7,961c <__trunctfdf2+0xf6>
    962a:	470d                	li	a4,3
    962c:	8f1d                	sub	a4,a4,a5
    962e:	ca79                	beqz	a2,9704 <__trunctfdf2+0x1de>
    9630:	01010893          	addi	a7,sp,16
    9634:	98aa                	add	a7,a7,a0
    9636:	ff08a883          	lw	a7,-16(a7)
    963a:	02000e13          	li	t3,32
    963e:	40ce0e33          	sub	t3,t3,a2
    9642:	01c898b3          	sll	a7,a7,t3
    9646:	0116e6b3          	or	a3,a3,a7
    964a:	cb75                	beqz	a4,973e <__trunctfdf2+0x218>
    964c:	070a                	slli	a4,a4,0x2
    964e:	950a                	add	a0,a0,sp
    9650:	00e10eb3          	add	t4,sp,a4
    9654:	888a                	mv	a7,sp
    9656:	410c                	lw	a1,0(a0)
    9658:	00452303          	lw	t1,4(a0)
    965c:	0891                	addi	a7,a7,4
    965e:	00c5d5b3          	srl	a1,a1,a2
    9662:	01c31333          	sll	t1,t1,t3
    9666:	0065e5b3          	or	a1,a1,t1
    966a:	feb8ae23          	sw	a1,-4(a7)
    966e:	0511                	addi	a0,a0,4
    9670:	ff1e93e3          	bne	t4,a7,9656 <__trunctfdf2+0x130>
    9674:	4591                	li	a1,4
    9676:	40f587b3          	sub	a5,a1,a5
    967a:	45b2                	lw	a1,12(sp)
    967c:	0808                	addi	a0,sp,16
    967e:	972a                	add	a4,a4,a0
    9680:	00c5d5b3          	srl	a1,a1,a2
    9684:	feb72823          	sw	a1,-16(a4)
    9688:	a861                	j	9720 <__trunctfdf2+0x1fa>
    968a:	4601                	li	a2,0
    968c:	4701                	li	a4,0
    968e:	b721                	j	9596 <__trunctfdf2+0x70>
    9690:	00469713          	slli	a4,a3,0x4
    9694:	00479513          	slli	a0,a5,0x4
    9698:	01c76733          	or	a4,a4,t3
    969c:	82f1                	srli	a3,a3,0x1c
    969e:	83f1                	srli	a5,a5,0x1c
    96a0:	0592                	slli	a1,a1,0x4
    96a2:	00e03733          	snez	a4,a4
    96a6:	8ec9                	or	a3,a3,a0
    96a8:	8fcd                	or	a5,a5,a1
    96aa:	8ed9                	or	a3,a3,a4
    96ac:	0076f713          	andi	a4,a3,7
    96b0:	c711                	beqz	a4,96bc <__trunctfdf2+0x196>
    96b2:	00f6f713          	andi	a4,a3,15
    96b6:	4591                	li	a1,4
    96b8:	02b71c63          	bne	a4,a1,96f0 <__trunctfdf2+0x1ca>
    96bc:	00800737          	lui	a4,0x800
    96c0:	8f7d                	and	a4,a4,a5
    96c2:	ee070de3          	beqz	a4,95bc <__trunctfdf2+0x96>
    96c6:	0605                	addi	a2,a2,1
    96c8:	7ff00713          	li	a4,2047
    96cc:	ece601e3          	beq	a2,a4,958e <__trunctfdf2+0x68>
    96d0:	ff800737          	lui	a4,0xff800
    96d4:	177d                	addi	a4,a4,-1
    96d6:	8f7d                	and	a4,a4,a5
    96d8:	01d71793          	slli	a5,a4,0x1d
    96dc:	828d                	srli	a3,a3,0x3
    96de:	0726                	slli	a4,a4,0x9
    96e0:	7ff67613          	andi	a2,a2,2047
    96e4:	8fd5                	or	a5,a5,a3
    96e6:	8331                	srli	a4,a4,0xc
    96e8:	b57d                	j	9596 <__trunctfdf2+0x70>
    96ea:	4685                	li	a3,1
    96ec:	4781                	li	a5,0
    96ee:	4601                	li	a2,0
    96f0:	ffc6b713          	sltiu	a4,a3,-4
    96f4:	00174713          	xori	a4,a4,1
    96f8:	97ba                	add	a5,a5,a4
    96fa:	00800737          	lui	a4,0x800
    96fe:	0691                	addi	a3,a3,4
    9700:	8f7d                	and	a4,a4,a5
    9702:	b7c1                	j	96c2 <__trunctfdf2+0x19c>
    9704:	858a                	mv	a1,sp
    9706:	00a588b3          	add	a7,a1,a0
    970a:	0008a883          	lw	a7,0(a7)
    970e:	0591                	addi	a1,a1,4
    9710:	0605                	addi	a2,a2,1
    9712:	ff15ae23          	sw	a7,-4(a1) # 8000fffc <_eusrstack+0x60007ffc>
    9716:	fec758e3          	bge	a4,a2,9706 <__trunctfdf2+0x1e0>
    971a:	4711                	li	a4,4
    971c:	40f707b3          	sub	a5,a4,a5
    9720:	078a                	slli	a5,a5,0x2
    9722:	978a                	add	a5,a5,sp
    9724:	0818                	addi	a4,sp,16
    9726:	0007a023          	sw	zero,0(a5) # 8000 <memcpy+0x26>
    972a:	0791                	addi	a5,a5,4
    972c:	fee79de3          	bne	a5,a4,9726 <__trunctfdf2+0x200>
    9730:	4702                	lw	a4,0(sp)
    9732:	00d036b3          	snez	a3,a3
    9736:	4792                	lw	a5,4(sp)
    9738:	8ed9                	or	a3,a3,a4
    973a:	4601                	li	a2,0
    973c:	bf85                	j	96ac <__trunctfdf2+0x186>
    973e:	4785                	li	a5,1
    9740:	4701                	li	a4,0
    9742:	bf2d                	j	967c <__trunctfdf2+0x156>

00009744 <_sbrk>:
    9744:	81418793          	addi	a5,gp,-2028 # 200009e4 <heap_end.1518>
    9748:	439c                	lw	a5,0(a5)
    974a:	c791                	beqz	a5,9756 <_sbrk+0x12>
    974c:	953e                	add	a0,a0,a5
    974e:	80a1aa23          	sw	a0,-2028(gp) # 200009e4 <heap_end.1518>
    9752:	853e                	mv	a0,a5
    9754:	8082                	ret
    9756:	8a418793          	addi	a5,gp,-1884 # 20000a74 <_ebss>
    975a:	953e                	add	a0,a0,a5
    975c:	80a1aa23          	sw	a0,-2028(gp) # 200009e4 <heap_end.1518>
    9760:	853e                	mv	a0,a5
    9762:	8082                	ret
    9764:	0000                	unimp
    9766:	41f0                	lw	a2,68(a1)

00009768 <CFB>:
    9768:	0000 4000 0000 4000 0000 4080 0000 4100     ...@...@...@...A
    9778:	0000 4180 0000 4200 0000 4238               ...A...B..8B

00009784 <COS_Factor>:
    9784:	0000 3f00 0000 3f80 0000 4000 0000 4080     ...?...?...@...@
    9794:	0000 4100 0000 4180 0000 4200 0000 4220     ...A...A...B.. B
    97a4:	0000 0000 77ab 83c9 6701 401c 0000 4000     .....w...g.@...@
    97b4:	0000 0000 3a07 a06d 06d3 3fc2 6177 7469     .....:m....?wait
    97c4:	6620 6c61 696c 676e 6520 6764 2065 6974      falling edge ti
    97d4:	656d 756f 0d74 0000 7265 3a72 7320 616c     meout...err: sla
    97e4:	6576 6e20 746f 7220 6c65 6165 6573 7720     ve not release w
    97f4:	7269 0d65 0000 0000 7265 3a72 6c20 776f     ire.....err: low
    9804:	7420 6d69 2065 203c 3036 000d 6e2f 01a3      time < 60../n..
    9814:	05bc 3fc2 0000 3e80 0000 3f00 6f43 203d     ...?...>...?Co= 
    9824:	3525 322e 0d66 000a 6854 2065 6e69 7570     %5.2f...The inpu
    9834:	2074 7369 6f20 7475 6f20 2066 6172 676e     t is out of rang
    9844:	0065 0000 2520 0073 0000 0000 0000 0000     e... %s.........
    9854:	ffe0 40ef 0000 0000 0000 3fe0 0000 42ee     ...@.......?...B
    9864:	0000 41f8 7265 6f72 0d72 0000 6f4e 4d20     ...Aerror...No M
    9874:	4344 3230 000d 0000 6572 6461 6320 7061     DC02....read cap
    9884:	2032 7265 6f72 0072 4320 3d31 3425 2064     2 error. C1=%4d 
    9894:	202c 3625 332e 2066 4320 3d32 3425 2c64     , %6.3f  C2=%4d,
    98a4:	2520 2e36 6633 2020 3d53 3025 5832 2020      %6.3f  S=%02X  
    98b4:	4320 253d 3230 0d58 000a 0000 7b82 ffff      C=%02X......{..
    98c4:	7baa ffff 7bd2 ffff 7bea ffff 7c04 ffff     .{...{...{...|..
    98d4:	6e28 6c75 296c 0000 9562 ffff 93e6 ffff     (null)..b.......
    98e4:	94f6 ffff 94fe ffff 94f6 ffff 9416 ffff     ................
    98f4:	94f6 ffff 94fe ffff 93e6 ffff 93e6 ffff     ................
    9904:	9416 ffff 94fe ffff 9558 ffff 9558 ffff     ........X...X...
    9914:	9558 ffff 9416 ffff 9aa4 ffff 9996 ffff     X...............
    9924:	9996 ffff 9994 ffff 999c ffff 999c ffff     ................
    9934:	9962 ffff 9994 ffff 999c ffff 9962 ffff     b...........b...
    9944:	999c ffff 9994 ffff 9a90 ffff 9a90 ffff     ................
    9954:	9a90 ffff 9962 ffff ad2a ffff ac7c ffff     ....b...*...|...
    9964:	ac7c ffff ac7a ffff ac80 ffff ac80 ffff     |...z...........
    9974:	ac50 ffff ac7a ffff ac80 ffff ac50 ffff     P...z.......P...
    9984:	ac80 ffff ac7a ffff ad18 ffff ad18 ffff     ....z...........
    9994:	ad18 ffff ac50 ffff                         ....P...

0000999c <__clz_tab>:
    999c:	0100 0202 0303 0303 0404 0404 0404 0404     ................
    99ac:	0505 0505 0505 0505 0505 0505 0505 0505     ................
    99bc:	0606 0606 0606 0606 0606 0606 0606 0606     ................
    99cc:	0606 0606 0606 0606 0606 0606 0606 0606     ................
    99dc:	0707 0707 0707 0707 0707 0707 0707 0707     ................
    99ec:	0707 0707 0707 0707 0707 0707 0707 0707     ................
    99fc:	0707 0707 0707 0707 0707 0707 0707 0707     ................
    9a0c:	0707 0707 0707 0707 0707 0707 0707 0707     ................
    9a1c:	0808 0808 0808 0808 0808 0808 0808 0808     ................
    9a2c:	0808 0808 0808 0808 0808 0808 0808 0808     ................
    9a3c:	0808 0808 0808 0808 0808 0808 0808 0808     ................
    9a4c:	0808 0808 0808 0808 0808 0808 0808 0808     ................
    9a5c:	0808 0808 0808 0808 0808 0808 0808 0808     ................
    9a6c:	0808 0808 0808 0808 0808 0808 0808 0808     ................
    9a7c:	0808 0808 0808 0808 0808 0808 0808 0808     ................
    9a8c:	0808 0808 0808 0808 0808 0808 0808 0808     ................
    9a9c:	0000 0000 ffff ffff ffff 7fef 4e49 0046     ............INF.
    9aac:	6e69 0066 414e 004e 616e 006e 0030 0000     inf.NAN.nan.0...
    9abc:	3130 3332 3534 3736 3938 4241 4443 4645     0123456789ABCDEF
    9acc:	0000 0000 3130 3332 3534 3736 3938 6261     ....0123456789ab
    9adc:	6463 6665 0000 0000 2565 646c 0000 0000     cdef....e%ld....
    9aec:	0000 7fc0 c336 ffff c322 ffff c354 ffff     ....6..."...T...
    9afc:	c35a ffff c336 ffff 0000 0000 0000 0000     Z...6...........
    9b0c:	0000 3ff0 0000 0000 0000 4000 0000 ffc0     ...?.......@....
    9b1c:	ffff 41df 3595 94a0 ffff 3fdf e535 35af     ...A.5.....?5..5
    9b2c:	0000 3fe0 3595 94a0 ffff 3fcf 666e 0000     ...?.5.....?nf..
    9b3c:	6e69 7469 0079 0000 6e61 0000               inity...an..

00009b48 <fpi.3395>:
    9b48:	0035 0000 fbce ffff 03cb 0000 0001 0000     5...............
    9b58:	0000 0000                                   ....

00009b5c <fpinan.3431>:
    9b5c:	0034 0000 fbce ffff 03cb 0000 0001 0000     4...............
    9b6c:	0000 0000                                   ....

00009b70 <tinytens>:
    9b70:	89bc 97d8 d2b2 3c9c a733 d5a8 f623 3949     .......<3...#.I9
    9b80:	a73d 44f4 0ffd 32a5 979d cf8c ba08 255b     =..D...2......[%
    9b90:	6f43 64ac 0628 1168 0000 0000 0000 3ff8     Co.d(.h........?
    9ba0:	4361 636f 87a7 3fd2 c8b3 8b60 8a28 3fc6     aCoc...?..`.(..?
    9bb0:	79fb 509f 4413 3fd3 0000 0000 0000 4024     .y.P.D.?......$@
    9bc0:	0000 0000 0000 401c 0000 0000 0000 4014     .......@.......@
    9bd0:	6e49 6966 696e 7974 0000 0000 614e 004e     Infinity....NaN.
    9be0:	0043 0000 4f50 4953 0058 0000 002e 0000     C...POSIX.......

00009bf0 <__mprec_bigtens>:
    9bf0:	8000 37e0 c379 4341 6e17 b505 b8b5 4693     ...7y.AC.n.....F
    9c00:	f9f5 e93f 4f03 4d38 1d32 f930 7748 5a82     ..?..O8M2.0.Hw.Z
    9c10:	bf3c 7f73 4fdd 7515                         <.s..O.u

00009c18 <__mprec_tens>:
    9c18:	0000 0000 0000 3ff0 0000 0000 0000 4024     .......?......$@
    9c28:	0000 0000 0000 4059 0000 0000 4000 408f     ......Y@.....@.@
    9c38:	0000 0000 8800 40c3 0000 0000 6a00 40f8     .......@.....j.@
    9c48:	0000 0000 8480 412e 0000 0000 12d0 4163     .......A......cA
    9c58:	0000 0000 d784 4197 0000 0000 cd65 41cd     .......A....e..A
    9c68:	0000 2000 a05f 4202 0000 e800 4876 4237     ... _..B....vH7B
    9c78:	0000 a200 1a94 426d 0000 e540 309c 42a2     ......mB..@..0.B
    9c88:	0000 1e90 bcc4 42d6 0000 2634 6bf5 430c     .......B..4&.k.C
    9c98:	8000 37e0 c379 4341 a000 85d8 3457 4376     ...7y.AC....W4vC
    9ca8:	c800 674e c16d 43ab 3d00 6091 58e4 43e1     ..Ngm..C.=.`.X.C
    9cb8:	8c40 78b5 af1d 4415 ef50 d6e2 1ae4 444b     @..x...DP.....KD
    9cc8:	d592 064d f0cf 4480 4af6 c7e1 2d02 44b5     ..M....D.J...-.D
    9cd8:	9db4 79d9 7843 44ea                         ...yCx.D

00009ce0 <p05.3319>:
    9ce0:	0005 0000 0019 0000 007d 0000 2d23 2b30     ........}...#-0+
    9cf0:	0020 0000 6c68 004c 6665 4567 4746 0000      ...hlL.efgEFG..

00009d00 <_ctype_>:
    9d00:	2000 2020 2020 2020 2020 2828 2828 2028     .         ((((( 
    9d10:	2020 2020 2020 2020 2020 2020 2020 2020                     
    9d20:	8820 1010 1010 1010 1010 1010 1010 1010      ...............
    9d30:	0410 0404 0404 0404 0404 1004 1010 1010     ................
    9d40:	1010 4141 4141 4141 0101 0101 0101 0101     ..AAAAAA........
    9d50:	0101 0101 0101 0101 0101 0101 1010 1010     ................
    9d60:	1010 4242 4242 4242 0202 0202 0202 0202     ..BBBBBB........
    9d70:	0202 0202 0202 0202 0202 0202 1010 1010     ................
    9d80:	0020 0000 0000 0000 0000 0000 0000 0000      ...............
	...
